
LT24_SW.elf:     file format elf32-littlenios2
LT24_SW.elf
architecture: nios2:r1, flags 0x00000112:
EXEC_P, HAS_SYMS, D_PAGED
start address 0x020001bc

Program Header:
    LOAD off    0x00001000 vaddr 0x02000000 paddr 0x02000000 align 2**12
         filesz 0x00000020 memsz 0x00000020 flags r-x
    LOAD off    0x00001020 vaddr 0x02000020 paddr 0x02000020 align 2**12
         filesz 0x00025df4 memsz 0x00025df4 flags r-x
    LOAD off    0x00026e14 vaddr 0x02025e14 paddr 0x020280c0 align 2**12
         filesz 0x000022ac memsz 0x000022ac flags rw-
    LOAD off    0x0002936c vaddr 0x0202a36c paddr 0x0202a36c align 2**12
         filesz 0x00000000 memsz 0x00000154 flags rw-

Sections:
Idx Name          Size      VMA       LMA       File off  Algn
  0 .entry        00000020  02000000  02000000  00001000  2**5
                  CONTENTS, ALLOC, LOAD, READONLY, CODE
  1 .exceptions   0000019c  02000020  02000020  00001020  2**2
                  CONTENTS, ALLOC, LOAD, READONLY, CODE
  2 .text         0000bcbc  020001bc  020001bc  000011bc  2**2
                  CONTENTS, ALLOC, LOAD, READONLY, CODE
  3 .rodata       00019f9c  0200be78  0200be78  0000ce78  2**2
                  CONTENTS, ALLOC, LOAD, READONLY, DATA
  4 .rwdata       000022ac  02025e14  020280c0  00026e14  2**2
                  CONTENTS, ALLOC, LOAD, DATA, SMALL_DATA
  5 .bss          00000154  0202a36c  0202a36c  0002936c  2**2
                  ALLOC, SMALL_DATA
  6 .SDRAM        00000000  0202a4c0  0202a4c0  000290c0  2**0
                  CONTENTS
  7 .background_mem 00000000  04000000  04000000  000290c0  2**0
                  CONTENTS
  8 .pic_mem      00000000  04004000  04004000  000290c0  2**0
                  CONTENTS
  9 .comment      00000023  00000000  00000000  000290c0  2**0
                  CONTENTS, READONLY
 10 .debug_aranges 00000a90  00000000  00000000  000290e8  2**3
                  CONTENTS, READONLY, DEBUGGING
 11 .debug_info   00013366  00000000  00000000  00029b78  2**0
                  CONTENTS, READONLY, DEBUGGING
 12 .debug_abbrev 000058f8  00000000  00000000  0003cede  2**0
                  CONTENTS, READONLY, DEBUGGING
 13 .debug_line   00007194  00000000  00000000  000427d6  2**0
                  CONTENTS, READONLY, DEBUGGING
 14 .debug_frame  00001ee0  00000000  00000000  0004996c  2**2
                  CONTENTS, READONLY, DEBUGGING
 15 .debug_str    000040b9  00000000  00000000  0004b84c  2**0
                  CONTENTS, READONLY, DEBUGGING
 16 .debug_loc    00009250  00000000  00000000  0004f905  2**0
                  CONTENTS, READONLY, DEBUGGING
 17 .debug_alt_sim_info 00000060  00000000  00000000  00058b58  2**2
                  CONTENTS, READONLY, DEBUGGING
 18 .debug_ranges 00000b00  00000000  00000000  00058bb8  2**3
                  CONTENTS, READONLY, DEBUGGING
 19 .thread_model 00000003  00000000  00000000  0005de0b  2**0
                  CONTENTS, READONLY
 20 .cpu          00000003  00000000  00000000  0005de0e  2**0
                  CONTENTS, READONLY
 21 .qsys         00000001  00000000  00000000  0005de11  2**0
                  CONTENTS, READONLY
 22 .simulation_enabled 00000001  00000000  00000000  0005de12  2**0
                  CONTENTS, READONLY
 23 .stderr_dev   00000009  00000000  00000000  0005de13  2**0
                  CONTENTS, READONLY
 24 .stdin_dev    00000009  00000000  00000000  0005de1c  2**0
                  CONTENTS, READONLY
 25 .stdout_dev   00000009  00000000  00000000  0005de25  2**0
                  CONTENTS, READONLY
 26 .sopc_system_name 0000000d  00000000  00000000  0005de2e  2**0
                  CONTENTS, READONLY
 27 .quartus_project_dir 00000017  00000000  00000000  0005de3b  2**0
                  CONTENTS, READONLY
 28 .jdi          0000436e  00000000  00000000  0005de52  2**0
                  CONTENTS, READONLY
 29 .sopcinfo     0008c7a2  00000000  00000000  000621c0  2**0
                  CONTENTS, READONLY
SYMBOL TABLE:
02000000 l    d  .entry	00000000 .entry
02000020 l    d  .exceptions	00000000 .exceptions
020001bc l    d  .text	00000000 .text
0200be78 l    d  .rodata	00000000 .rodata
02025e14 l    d  .rwdata	00000000 .rwdata
0202a36c l    d  .bss	00000000 .bss
0202a4c0 l    d  .SDRAM	00000000 .SDRAM
04000000 l    d  .background_mem	00000000 .background_mem
04004000 l    d  .pic_mem	00000000 .pic_mem
00000000 l    d  .comment	00000000 .comment
00000000 l    d  .debug_aranges	00000000 .debug_aranges
00000000 l    d  .debug_info	00000000 .debug_info
00000000 l    d  .debug_abbrev	00000000 .debug_abbrev
00000000 l    d  .debug_line	00000000 .debug_line
00000000 l    d  .debug_frame	00000000 .debug_frame
00000000 l    d  .debug_str	00000000 .debug_str
00000000 l    d  .debug_loc	00000000 .debug_loc
00000000 l    d  .debug_alt_sim_info	00000000 .debug_alt_sim_info
00000000 l    d  .debug_ranges	00000000 .debug_ranges
00000000 l    df *ABS*	00000000 ../LT24_SW_bsp//obj/HAL/src/crt0.o
02000204 l       .text	00000000 alt_after_alt_main
00000000 l    df *ABS*	00000000 alt_exception_entry.o
02000094 l       .exceptions	00000000 alt_exception_unknown
00000000 l    df *ABS*	00000000 alt_irq_handler.c
00000000 l    df *ABS*	00000000 gui.c
0202a36c l     O .bss	00000004 x.3893
0202807c l     O .rwdata	00000004 y.3894
00000000 l    df *ABS*	00000000 gui_vpg.c
00000000 l    df *ABS*	00000000 tahomabold_20.c
0200bed8 l     O .rodata	000000b6 tahomabold_20_33
0200bf8e l     O .rodata	00000104 tahomabold_20_34
0200c092 l     O .rodata	000001a0 tahomabold_20_35
0200c232 l     O .rodata	00000152 tahomabold_20_36
0200c384 l     O .rodata	00000270 tahomabold_20_37
0200c5f4 l     O .rodata	000001ba tahomabold_20_38
0200c7ae l     O .rodata	0000009c tahomabold_20_39
0200c84a l     O .rodata	000000ea tahomabold_20_40
0200c934 l     O .rodata	000000ea tahomabold_20_41
0200ca1e l     O .rodata	00000152 tahomabold_20_42
0200cb70 l     O .rodata	000001a0 tahomabold_20_43
0200cd10 l     O .rodata	0000009c tahomabold_20_44
0200cdac l     O .rodata	000000ea tahomabold_20_45
0200ce96 l     O .rodata	0000009c tahomabold_20_46
0200cf32 l     O .rodata	00000138 tahomabold_20_47
0200d06a l     O .rodata	00000152 tahomabold_20_48
0200d1bc l     O .rodata	00000152 tahomabold_20_49
0200d30e l     O .rodata	00000152 tahomabold_20_50
0200d460 l     O .rodata	00000152 tahomabold_20_51
0200d5b2 l     O .rodata	00000152 tahomabold_20_52
0200d704 l     O .rodata	00000152 tahomabold_20_53
0200d856 l     O .rodata	00000152 tahomabold_20_54
0200d9a8 l     O .rodata	00000152 tahomabold_20_55
0200dafa l     O .rodata	00000152 tahomabold_20_56
0200dc4c l     O .rodata	00000152 tahomabold_20_57
0200dd9e l     O .rodata	000000b6 tahomabold_20_58
0200de54 l     O .rodata	000000b6 tahomabold_20_59
0200df0a l     O .rodata	000001a0 tahomabold_20_60
0200e0aa l     O .rodata	000001a0 tahomabold_20_61
0200e24a l     O .rodata	000001a0 tahomabold_20_62
0200e3ea l     O .rodata	0000011e tahomabold_20_63
0200e508 l     O .rodata	000001d4 tahomabold_20_64
0200e6dc l     O .rodata	0000016c tahomabold_20_65
0200e848 l     O .rodata	0000016c tahomabold_20_66
0200e9b4 l     O .rodata	00000152 tahomabold_20_67
0200eb06 l     O .rodata	00000186 tahomabold_20_68
0200ec8c l     O .rodata	00000138 tahomabold_20_69
0200edc4 l     O .rodata	00000138 tahomabold_20_70
0200eefc l     O .rodata	00000186 tahomabold_20_71
0200f082 l     O .rodata	00000186 tahomabold_20_72
0200f208 l     O .rodata	00000104 tahomabold_20_73
0200f30c l     O .rodata	00000104 tahomabold_20_74
0200f410 l     O .rodata	0000016c tahomabold_20_75
0200f57c l     O .rodata	0000011e tahomabold_20_76
0200f69a l     O .rodata	000001d4 tahomabold_20_77
0200f86e l     O .rodata	00000186 tahomabold_20_78
0200f9f4 l     O .rodata	00000186 tahomabold_20_79
0200fb7a l     O .rodata	00000152 tahomabold_20_80
0200fccc l     O .rodata	00000186 tahomabold_20_81
0200fe52 l     O .rodata	00000186 tahomabold_20_82
0200ffd8 l     O .rodata	00000152 tahomabold_20_83
0201012a l     O .rodata	00000138 tahomabold_20_84
02010262 l     O .rodata	00000186 tahomabold_20_85
020103e8 l     O .rodata	0000016c tahomabold_20_86
02010554 l     O .rodata	00000222 tahomabold_20_87
02010776 l     O .rodata	0000016c tahomabold_20_88
020108e2 l     O .rodata	0000016c tahomabold_20_89
02010a4e l     O .rodata	00000138 tahomabold_20_90
02010b86 l     O .rodata	000000ea tahomabold_20_91
02010c70 l     O .rodata	00000138 tahomabold_20_92
02010da8 l     O .rodata	000000ea tahomabold_20_93
02010e92 l     O .rodata	000001a0 tahomabold_20_94
02011032 l     O .rodata	00000152 tahomabold_20_95
02011184 l     O .rodata	0000011e tahomabold_20_96
020112a2 l     O .rodata	00000138 tahomabold_20_97
020113da l     O .rodata	00000152 tahomabold_20_98
0201152c l     O .rodata	0000011e tahomabold_20_99
0201164a l     O .rodata	00000152 tahomabold_20_100
0201179c l     O .rodata	00000138 tahomabold_20_101
020118d4 l     O .rodata	000000d0 tahomabold_20_102
020119a4 l     O .rodata	00000152 tahomabold_20_103
02011af6 l     O .rodata	00000152 tahomabold_20_104
02011c48 l     O .rodata	0000009c tahomabold_20_105
02011ce4 l     O .rodata	000000ea tahomabold_20_106
02011dce l     O .rodata	00000138 tahomabold_20_107
02011f06 l     O .rodata	0000009c tahomabold_20_108
02011fa2 l     O .rodata	000001ee tahomabold_20_109
02012190 l     O .rodata	00000152 tahomabold_20_110
020122e2 l     O .rodata	00000138 tahomabold_20_111
0201241a l     O .rodata	00000152 tahomabold_20_112
0201256c l     O .rodata	00000152 tahomabold_20_113
020126be l     O .rodata	000000ea tahomabold_20_114
020127a8 l     O .rodata	00000104 tahomabold_20_115
020128ac l     O .rodata	000000d0 tahomabold_20_116
0201297c l     O .rodata	00000152 tahomabold_20_117
02012ace l     O .rodata	00000138 tahomabold_20_118
02012c06 l     O .rodata	000001d4 tahomabold_20_119
02012dda l     O .rodata	00000138 tahomabold_20_120
02012f12 l     O .rodata	00000138 tahomabold_20_121
0201304a l     O .rodata	0000011e tahomabold_20_122
02013168 l     O .rodata	00000138 tahomabold_20_123
020132a0 l     O .rodata	00000152 tahomabold_20_124
020133f2 l     O .rodata	00000138 tahomabold_20_125
0201352a l     O .rodata	000001a0 tahomabold_20_126
00000000 l    df *ABS*	00000000 tahomabold_32.c
020136ca l     O .rodata	000001b8 tahomabold_32_33
02013882 l     O .rodata	00000280 tahomabold_32_34
02013b02 l     O .rodata	00000410 tahomabold_32_35
02013f12 l     O .rodata	00000320 tahomabold_32_36
02014232 l     O .rodata	000005f0 tahomabold_32_37
02014822 l     O .rodata	00000410 tahomabold_32_38
02014c32 l     O .rodata	00000168 tahomabold_32_39
02014d9a l     O .rodata	00000258 tahomabold_32_40
02014ff2 l     O .rodata	00000258 tahomabold_32_41
0201524a l     O .rodata	00000320 tahomabold_32_42
0201556a l     O .rodata	00000410 tahomabold_32_43
0201597a l     O .rodata	00000190 tahomabold_32_44
02015b0a l     O .rodata	00000230 tahomabold_32_45
02015d3a l     O .rodata	00000190 tahomabold_32_46
02015eca l     O .rodata	000002d0 tahomabold_32_47
0201619a l     O .rodata	00000320 tahomabold_32_48
020164ba l     O .rodata	00000320 tahomabold_32_49
020167da l     O .rodata	00000320 tahomabold_32_50
02016afa l     O .rodata	00000320 tahomabold_32_51
02016e1a l     O .rodata	00000320 tahomabold_32_52
0201713a l     O .rodata	00000320 tahomabold_32_53
0201745a l     O .rodata	00000320 tahomabold_32_54
0201777a l     O .rodata	00000320 tahomabold_32_55
02017a9a l     O .rodata	00000320 tahomabold_32_56
02017dba l     O .rodata	00000320 tahomabold_32_57
020180da l     O .rodata	000001e0 tahomabold_32_58
020182ba l     O .rodata	000001e0 tahomabold_32_59
0201849a l     O .rodata	00000410 tahomabold_32_60
020188aa l     O .rodata	00000410 tahomabold_32_61
02018cba l     O .rodata	00000410 tahomabold_32_62
020190ca l     O .rodata	000002d0 tahomabold_32_63
0201939a l     O .rodata	00000488 tahomabold_32_64
02019822 l     O .rodata	00000370 tahomabold_32_65
02019b92 l     O .rodata	00000370 tahomabold_32_66
02019f02 l     O .rodata	00000348 tahomabold_32_67
0201a24a l     O .rodata	000003c0 tahomabold_32_68
0201a60a l     O .rodata	00000320 tahomabold_32_69
0201a92a l     O .rodata	000002f8 tahomabold_32_70
0201ac22 l     O .rodata	000003c0 tahomabold_32_71
0201afe2 l     O .rodata	000003c0 tahomabold_32_72
0201b3a2 l     O .rodata	00000258 tahomabold_32_73
0201b5fa l     O .rodata	00000280 tahomabold_32_74
0201b87a l     O .rodata	00000398 tahomabold_32_75
0201bc12 l     O .rodata	000002d0 tahomabold_32_76
0201bee2 l     O .rodata	00000488 tahomabold_32_77
0201c36a l     O .rodata	000003e8 tahomabold_32_78
0201c752 l     O .rodata	000003e8 tahomabold_32_79
0201cb3a l     O .rodata	00000348 tahomabold_32_80
0201ce82 l     O .rodata	000003e8 tahomabold_32_81
0201d26a l     O .rodata	000003c0 tahomabold_32_82
0201d62a l     O .rodata	00000320 tahomabold_32_83
0201d94a l     O .rodata	00000320 tahomabold_32_84
0201dc6a l     O .rodata	000003c0 tahomabold_32_85
0201e02a l     O .rodata	00000370 tahomabold_32_86
0201e39a l     O .rodata	00000528 tahomabold_32_87
0201e8c2 l     O .rodata	00000370 tahomabold_32_88
0201ec32 l     O .rodata	00000370 tahomabold_32_89
0201efa2 l     O .rodata	00000320 tahomabold_32_90
0201f2c2 l     O .rodata	00000258 tahomabold_32_91
0201f51a l     O .rodata	000002d0 tahomabold_32_92
0201f7ea l     O .rodata	00000258 tahomabold_32_93
0201fa42 l     O .rodata	00000410 tahomabold_32_94
0201fe52 l     O .rodata	00000320 tahomabold_32_95
02020172 l     O .rodata	000002a8 tahomabold_32_96
0202041a l     O .rodata	000002f8 tahomabold_32_97
02020712 l     O .rodata	00000320 tahomabold_32_98
02020a32 l     O .rodata	000002a8 tahomabold_32_99
02020cda l     O .rodata	00000320 tahomabold_32_100
02020ffa l     O .rodata	000002f8 tahomabold_32_101
020212f2 l     O .rodata	00000230 tahomabold_32_102
02021522 l     O .rodata	00000320 tahomabold_32_103
02021842 l     O .rodata	00000320 tahomabold_32_104
02021b62 l     O .rodata	00000190 tahomabold_32_105
02021cf2 l     O .rodata	00000208 tahomabold_32_106
02021efa l     O .rodata	000002f8 tahomabold_32_107
020221f2 l     O .rodata	00000190 tahomabold_32_108
02022382 l     O .rodata	000004d8 tahomabold_32_109
0202285a l     O .rodata	00000320 tahomabold_32_110
02022b7a l     O .rodata	00000320 tahomabold_32_111
02022e9a l     O .rodata	00000320 tahomabold_32_112
020231ba l     O .rodata	00000320 tahomabold_32_113
020234da l     O .rodata	00000230 tahomabold_32_114
0202370a l     O .rodata	00000280 tahomabold_32_115
0202398a l     O .rodata	00000208 tahomabold_32_116
02023b92 l     O .rodata	00000320 tahomabold_32_117
02023eb2 l     O .rodata	000002f8 tahomabold_32_118
020241aa l     O .rodata	00000460 tahomabold_32_119
0202460a l     O .rodata	000002f8 tahomabold_32_120
02024902 l     O .rodata	000002d0 tahomabold_32_121
02024bd2 l     O .rodata	000002a8 tahomabold_32_122
02024e7a l     O .rodata	00000320 tahomabold_32_123
0202519a l     O .rodata	00000320 tahomabold_32_124
020254ba l     O .rodata	00000320 tahomabold_32_125
020257da l     O .rodata	00000410 tahomabold_32_126
00000000 l    df *ABS*	00000000 ILI9341.c
00000000 l    df *ABS*	00000000 geometry.c
00000000 l    df *ABS*	00000000 simple_graphics.c
00000000 l    df *ABS*	00000000 simple_text.c
00000000 l    df *ABS*	00000000 main.c
00000000 l    df *ABS*	00000000 touch_spi.c
00000000 l    df *ABS*	00000000 w_sqrt.c
00000000 l    df *ABS*	00000000 e_sqrt.c
00000000 l    df *ABS*	00000000 s_fpclassify.c
00000000 l    df *ABS*	00000000 s_lib_ver.c
00000000 l    df *ABS*	00000000 s_matherr.c
00000000 l    df *ABS*	00000000 lib2-divmod.c
020061e0 l     F .text	0000006c udivmodsi4
00000000 l    df *ABS*	00000000 adddf3.c
00000000 l    df *ABS*	00000000 divdf3.c
00000000 l    df *ABS*	00000000 ledf2.c
00000000 l    df *ABS*	00000000 muldf3.c
00000000 l    df *ABS*	00000000 subdf3.c
00000000 l    df *ABS*	00000000 fixdfsi.c
00000000 l    df *ABS*	00000000 floatsidf.c
00000000 l    df *ABS*	00000000 libgcc2.c
00000000 l    df *ABS*	00000000 libgcc2.c
00000000 l    df *ABS*	00000000 errno.c
00000000 l    df *ABS*	00000000 impure.c
020279c0 l     O .rwdata	000000e0 impure_data
00000000 l    df *ABS*	00000000 malloc.c
00000000 l    df *ABS*	00000000 mallocr.c
00000000 l    df *ABS*	00000000 memcpy.c
00000000 l    df *ABS*	00000000 memset.c
00000000 l    df *ABS*	00000000 printf.c
00000000 l    df *ABS*	00000000 puts.c
00000000 l    df *ABS*	00000000 sbrkr.c
00000000 l    df *ABS*	00000000 sprintf.c
00000000 l    df *ABS*	00000000 strcpy.c
00000000 l    df *ABS*	00000000 strlen.c
00000000 l    df *ABS*	00000000 vfprintf.c
02009098 l     F .text	0000006c print_repeat
00000000 l    df *ABS*	00000000 vfprintf.c
0200966c l     F .text	0000006c print_repeat
00000000 l    df *ABS*	00000000 mallocr.c
00000000 l    df *ABS*	00000000 fvwrite_small_dev.c
00000000 l    df *ABS*	00000000 fvwrite_small_str.c
00000000 l    df *ABS*	00000000 int_errno.c
00000000 l    df *ABS*	00000000 memmove.c
00000000 l    df *ABS*	00000000 writer.c
00000000 l    df *ABS*	00000000 alt_alarm_start.c
00000000 l    df *ABS*	00000000 alt_iic.c
00000000 l    df *ABS*	00000000 alt_iic_isr_register.c
00000000 l    df *ABS*	00000000 alt_irq_vars.c
00000000 l    df *ABS*	00000000 alt_load.c
0200a5fc l     F .text	00000064 alt_load_section
00000000 l    df *ABS*	00000000 alt_main.c
00000000 l    df *ABS*	00000000 alt_malloc_lock.c
00000000 l    df *ABS*	00000000 alt_sbrk.c
0202809c l     O .rwdata	00000004 heap_end
00000000 l    df *ABS*	00000000 alt_tick.c
00000000 l    df *ABS*	00000000 alt_usleep.c
00000000 l    df *ABS*	00000000 alt_write.c
0200aa04 l     F .text	00000050 alt_get_errno
00000000 l    df *ABS*	00000000 alt_sys_init.c
0200ab4c l     F .text	00000038 alt_dev_reg
02027ea8 l     O .rwdata	0000002c JTAG_UART
00000000 l    df *ABS*	00000000 altera_avalon_jtag_uart_fd.c
00000000 l    df *ABS*	00000000 altera_avalon_jtag_uart_read.c
00000000 l    df *ABS*	00000000 altera_avalon_jtag_uart_write.c
00000000 l    df *ABS*	00000000 altera_avalon_spi.c
00000000 l    df *ABS*	00000000 altera_avalon_timer_sc.c
0200b040 l     F .text	00000074 alt_avalon_timer_sc_irq
00000000 l    df *ABS*	00000000 alt_busy_sleep.c
00000000 l    df *ABS*	00000000 alt_close.c
0200b294 l     F .text	00000050 alt_get_errno
00000000 l    df *ABS*	00000000 alt_dcache_flush_all.c
00000000 l    df *ABS*	00000000 alt_dev.c
0200b3f8 l     F .text	0000002c alt_dev_null_write
00000000 l    df *ABS*	00000000 alt_dev_llist_insert.c
0200b424 l     F .text	00000050 alt_get_errno
00000000 l    df *ABS*	00000000 alt_errno.c
00000000 l    df *ABS*	00000000 alt_icache_flush_all.c
00000000 l    df *ABS*	00000000 alt_io_redirect.c
0200b548 l     F .text	000000c0 alt_open_fd
00000000 l    df *ABS*	00000000 alt_open.c
0200b680 l     F .text	00000050 alt_get_errno
0200b6d0 l     F .text	000000cc alt_file_locked
00000000 l    df *ABS*	00000000 alt_release_fd.c
00000000 l    df *ABS*	00000000 altera_nios2_qsys_irq.c
00000000 l    df *ABS*	00000000 alt_find_dev.c
00000000 l    df *ABS*	00000000 alt_find_file.c
00000000 l    df *ABS*	00000000 alt_get_fd.c
00000000 l    df *ABS*	00000000 alt_icache_flush.c
00000000 l    df *ABS*	00000000 exit.c
00000000 l    df *ABS*	00000000 memcmp.c
00000000 l    df *ABS*	00000000 __call_atexit.c
00000000 l    df *ABS*	00000000 alt_exit.c
02002dd4 g     F .text	00000078 vid_draw_horiz_line
02001488 g     F .text	0000006c LCD_DrawPoint
0200a6e0 g     F .text	00000068 alt_main
02009050 g     F .text	0000002c strcpy
02008e90 g     F .text	00000080 _puts_r
0202a3c0 g     O .bss	00000100 alt_irq
02002f38 g     F .text	0000006c vid_color_convert16_24
02005da0 g     F .text	00000130 sqrt
020280c0 g       *ABS*	00000000 __flash_rwdata_start
04004000 g       *ABS*	00000000 __alt_mem_pic_mem
020057a8 g     F .text	00000160 touch_enable_penirq
0202a4c0 g       *ABS*	00000000 __alt_heap_start
02001b60 g     F .text	00000138 LCD_Pattern_Horizon
02008e44 g     F .text	0000004c printf
02000390 g     F .text	000001d4 GUI_DeskInit
0200a768 g     F .text	00000020 __malloc_unlock
02002a2c g     F .text	00000148 vid_draw_box
020021a0 g     F .text	00000044 PtCopy
02004838 g     F .text	0000025c vid_print_string_alpha
0200a134 g     F .text	00000060 memmove
020275a8 g     O .rwdata	00000415 cour10_font_array
02002808 g     F .text	0000011c vid_move_block
02008704 g     F .text	00000010 __errno
02005150 g     F .text	000000e0 vid_string_pixel_length_alpha
0200a098 g     F .text	0000009c __sfvwrite_small_str
02000000 g     F .entry	0000001c __reset
02001db4 g     F .text	0000003c Clr_BUFFER_FLAG
02000020 g       *ABS*	00000000 __flash_exceptions_start
02001408 g     F .text	00000080 LCD_Clear
0202a37c g     O .bss	00000004 errno
0202a388 g     O .bss	00000004 alt_argv
0203007c g       *ABS*	00000000 _gp
0200a9d4 g     F .text	00000030 usleep
02000bc0 g     F .text	000000b0 VPG_ColorPanel
02004a94 g     F .text	00000148 seperate_color_channels
02027efc g     O .rwdata	00000180 alt_fd_list
0200b974 g     F .text	00000090 alt_find_dev
02008dc0 g     F .text	00000028 memcpy
020085d0 g     F .text	000000d0 .hidden __floatsidf
02003728 g     F .text	00000738 vid_round_corner_points
020054dc g     F .text	00000068 Touch_UnInit
0200b608 g     F .text	00000078 alt_io_redirect
02007474 g     F .text	000000e0 .hidden __ltdf2
02000564 g     F .text	00000090 GUI_CheckButton
02008f10 g     F .text	00000014 puts
020021e4 g     F .text	0000005c vid_clean_screen
02006164 g     F .text	00000074 __fpclassifyd
02002344 g     F .text	00000154 vid_scroll_string_init
0200acc4 g     F .text	000000e4 altera_avalon_jtag_uart_read
02008714 g     F .text	00000014 malloc
02008e08 g     F .text	0000003c _printf_r
02005368 g     F .text	00000174 Touch_Init
020062fc g     F .text	00000008 .hidden __udivsi3
020005f4 g     F .text	0000021c GUI_DeskDraw
0200bbcc g     F .text	0000008c alt_icache_flush
0202a378 g     O .bss	00000004 __malloc_top_pad
02008f24 g     F .text	00000050 _sbrk_r
02005738 g     F .text	00000030 touch_empty_fifo
020020b8 g     F .text	00000034 RectHeight
020280b8 g     O .rwdata	00000004 alt_max_fd
02000b9c g     F .text	00000024 VPG_XLine
0202a374 g     O .bss	00000004 __malloc_max_sbrked_mem
020269e8 g     O .rwdata	00000bc0 tahomabold_32
0200630c g     F .text	0000089c .hidden __adddf3
020008a4 g     F .text	0000007c GUI_ClearPaintArea
02001e74 g     F .text	00000040 PtSet
02028084 g     O .rwdata	00000004 __fdlib_version
02028088 g     O .rwdata	00000004 _global_impure_ptr
02003250 g     F .text	0000013c vid_draw_circle
0202a4c0 g       *ABS*	00000000 __bss_end
0200a50c g     F .text	000000f0 alt_iic_isr_register
0200a8d0 g     F .text	00000104 alt_tick
02001f98 g     F .text	00000088 RectOffset
02002fe8 g     F .text	00000268 vid_draw_sloped_line
02000d6c g     F .text	000000e4 VPG_VGrid
0200a4c0 g     F .text	0000004c alt_ic_irq_enabled
0200338c g     F .text	0000039c vid_draw_round_corner_box
0200a838 g     F .text	00000098 alt_alarm_stop
0202a380 g     O .bss	00000004 alt_irq_active
02001c98 g     F .text	000000e0 LCD_Pattern_Vertical
020000ec g     F .exceptions	000000d0 alt_irq_handler
02027ed4 g     O .rwdata	00000028 alt_dev_null
0200b3b4 g     F .text	00000044 alt_dcache_flush_all
02005c50 g     F .text	00000078 touch_alarm_callback
02008548 g     F .text	00000088 .hidden __fixdfsi
02005768 g     F .text	00000040 touch_is_pen_pressed
020280c0 g       *ABS*	00000000 __ram_rwdata_end
020042ac g     F .text	00000378 vid_draw_triangle
020280b0 g     O .rwdata	00000008 alt_dev_list
0200aa54 g     F .text	000000f8 write
02025e14 g     O .rwdata	00000014 szPallete
02004708 g     F .text	00000130 CropImage16
02025e14 g       *ABS*	00000000 __ram_rodata_end
02000000 g       *ABS*	00000000 __alt_mem_SDRAM
02007474 g     F .text	000000e0 .hidden __ledf2
02002498 g     F .text	00000370 vid_scroll_string
02005938 g     F .text	00000318 touch_get_xy
02006304 g     F .text	00000008 .hidden __umodsi3
020056c4 g     F .text	00000074 touch_isr
02002084 g     F .text	00000034 RectWidth
02004624 g     F .text	000000e4 CopyImage16
0202a4c0 g       *ABS*	00000000 end
02001260 g     F .text	000000a8 GUI_VPG
020002d8 g     F .text	00000060 GUI_ShowInfo
02002b74 g     F .text	000000f0 vid_print_char
04000000 g       *ABS*	00000000 __alt_stack_pointer
0200b0b4 g     F .text	00000088 alt_avalon_timer_sc_init
020086a0 g     F .text	00000064 .hidden __clzsi2
0200ada8 g     F .text	00000094 altera_avalon_jtag_uart_write
02003eb4 g     F .text	00000054 min3
020010e4 g     F .text	0000017c GUI_ShowPAT
02002240 g     F .text	000000c4 vid_draw_line
020096d8 g     F .text	00000544 ___vfprintf_internal_r
02008f74 g     F .text	00000064 _sprintf_r
02009d64 g     F .text	00000288 _free_r
02001354 g     F .text	000000b4 LCD_SetCursor
0200bca8 g     F .text	0000019c __call_exitprocs
02000c70 g     F .text	000000fc VPG_Grid
02028090 g     O .rwdata	00000004 __malloc_sbrk_base
020001bc g     F .text	0000004c _start
04000000 g       *ABS*	00000000 __alt_mem_background_mem
0202a390 g     O .bss	00000004 _alt_tick_rate
02005908 g     F .text	00000030 touch_clear_input
0200ae3c g     F .text	00000204 alt_avalon_spi_command
0202a394 g     O .bss	00000004 _alt_nticks
02003f6c g     F .text	00000100 vid_put_pixel_in_span_map
02000f34 g     F .text	000001b0 VPG_ColorBar
0200abb8 g     F .text	0000004c alt_sys_init
02002d40 g     F .text	00000094 vid_paint_block
02025e14 g       *ABS*	00000000 __ram_rwdata_start
0200be78 g       *ABS*	00000000 __ram_rodata_start
0202a398 g     O .bss	00000028 __malloc_current_mallinfo
02000e50 g     F .text	000000e4 VPG_HGrid
02002e98 g     F .text	000000a0 vid_color_convert24_16
0200ac04 g     F .text	00000060 altera_avalon_jtag_uart_read_fd
0200bb18 g     F .text	000000b4 alt_get_fd
0200b13c g     F .text	00000158 alt_busy_sleep
02000920 g     F .text	0000021c GUI
02004d50 g     F .text	0000024c alpha_blending
0200bc78 g     F .text	00000030 memcmp
0202a4c0 g       *ABS*	00000000 __alt_stack_base
02006ba8 g     F .text	000008cc .hidden __divdf3
02027aa0 g     O .rwdata	00000408 __malloc_av_
02007554 g     F .text	00000724 .hidden __muldf3
0200ba04 g     F .text	00000114 alt_find_file
0200b474 g     F .text	000000a4 alt_dev_llist_insert
0200a748 g     F .text	00000020 __malloc_lock
02002fa4 g     F .text	00000044 vid_copy_line_to_frame_buffer
0200a788 g     F .text	000000b0 sbrk
02009104 g     F .text	00000544 ___svfprintf_internal_r
02009fec g     F .text	000000ac __sfvwrite_small_dev
0202a36c g       *ABS*	00000000 __bss_start
020014f4 g     F .text	0000066c LCD_Init
02008de8 g     F .text	00000020 memset
02005230 g     F .text	00000138 main
0202a38c g     O .bss	00000004 alt_envp
0202a370 g     O .bss	00000004 __malloc_max_total_mem
0200ac64 g     F .text	00000060 altera_avalon_jtag_uart_write_fd
02000338 g     F .text	00000058 GUI_ShowTouchPoint
02025e28 g     O .rwdata	00000bc0 tahomabold_20
020061d8 g     F .text	00000008 matherr
04000000 g       *ABS*	00000000 __alt_heap_limit
02004f9c g     F .text	000001b4 vid_print_char_alpha
02028080 g     O .rwdata	00000004 cour10_font
0200873c g     F .text	00000684 _malloc_r
020280bc g     O .rwdata	00000004 alt_errno
020020ec g     F .text	000000b4 PtDistance
02001eb4 g     F .text	0000005c RectSet
02001308 g     F .text	0000004c Delay_Ms
0200624c g     F .text	00000054 .hidden __divsi3
02002020 g     F .text	00000064 RectCopy
02009c40 g     F .text	00000124 _malloc_trim_r
02004d0c g     F .text	00000044 read_from_frame
0200be78 g       *ABS*	00000000 __flash_rodata_start
02002d00 g     F .text	00000040 vid_get_pixel
0200ab84 g     F .text	00000034 alt_irq_init
0200b8f4 g     F .text	00000060 alt_release_fd
02008fd8 g     F .text	00000078 sprintf
02025ce1 g     O .rodata	00000100 .hidden __clz_tab
0200a194 g     F .text	00000058 _write_r
02001df0 g     F .text	00000084 IsPtInRect
0202808c g     O .rwdata	00000004 _impure_ptr
0202a384 g     O .bss	00000004 alt_argc
02000020 g       .exceptions	00000000 alt_irq_entry
0200557c g     F .text	00000148 Touch_GetXY
020280a8 g     O .rwdata	00000008 alt_fs_list
02009648 g     F .text	00000024 __vfprintf_internal_unused
02002924 g     F .text	00000108 vid_print_string
02000020 g       *ABS*	00000000 __ram_exceptions_start
02005ed0 g     F .text	00000294 __ieee754_sqrt
0200a32c g     F .text	00000050 alt_ic_isr_register
020280c0 g       *ABS*	00000000 _edata
0202a4c0 g       *ABS*	00000000 _end
02000b3c g     F .text	00000060 ShowInfo
02003e60 g     F .text	00000054 max3
020001bc g       *ABS*	00000000 __ram_exceptions_end
0200a41c g     F .text	000000a4 alt_ic_irq_disable
02002e4c g     F .text	0000004c vid_merge_colors
02028094 g     O .rwdata	00000004 __malloc_trim_threshold
0200b954 g     F .text	00000020 altera_nios2_qsys_irq_init
0200bc58 g     F .text	00000020 exit
02000810 g     F .text	00000094 IsContinuedPoint
020062a0 g     F .text	0000005c .hidden __modsi3
04000000 g       *ABS*	00000000 __alt_data_end
02000020 g     F .exceptions	00000000 alt_exception
02005cc8 g     F .text	000000d8 touch_xy_transform
02002c64 g     F .text	0000009c vid_set_pixel
02001d78 g     F .text	0000003c Set_BUFFER_FLAG
0200be44 g     F .text	00000034 _exit
0200a1ec g     F .text	00000140 alt_alarm_start
02002304 g     F .text	00000040 vid_scroll_string_quit
0200907c g     F .text	0000001c strlen
0200b79c g     F .text	00000158 open
02001f10 g     F .text	00000088 RectInflate
0200b518 g     F .text	00000030 alt_icache_flush_all
02028098 g     O .rwdata	00000004 alt_priority_mask
0200a37c g     F .text	000000a0 alt_ic_irq_enable
02009c1c g     F .text	00000024 __vfprintf_internal
02007c78 g     F .text	000008d0 .hidden __subdf3
0200406c g     F .text	00000240 vid_bres_scan_edges
020280a0 g     O .rwdata	00000008 alt_alarm_list
02003f08 g     F .text	00000064 max_diff3
02000208 g     F .text	000000d0 GUI_ShowWelcome
02004bdc g     F .text	00000130 merge_color_channels
0200b2e4 g     F .text	000000d0 close
0200a660 g     F .text	00000080 alt_load
02005544 g     F .text	00000038 Touch_EmptyFifo
02008728 g     F .text	00000014 free



Disassembly of section .entry:

02000000 <__reset>:
#if NIOS2_ICACHE_SIZE > 0 && defined(ALT_ALLOW_CODE_AT_RESET) && !defined(ALT_SIM_OPTIMIZE)
    /* Assume the instruction cache size is always a power of two. */
#if NIOS2_ICACHE_SIZE > 0x8000
    movhi r2, %hi(NIOS2_ICACHE_SIZE)
#else
    movui r2, NIOS2_ICACHE_SIZE
 2000000:	00840014 	movui	r2,4096
#endif

0:
    initi r2
 2000004:	1001483a 	initi	r2
    addi r2, r2, -NIOS2_ICACHE_LINE_SIZE
 2000008:	10bff804 	addi	r2,r2,-32
    bgt r2, zero, 0b
 200000c:	00bffd16 	blt	zero,r2,2000004 <__alt_mem_pic_mem+0xfdffc004>
 * Jump to the _start entry point in the .text section if reset code
 * is allowed or if optimizing for RTL simulation.
 */
#if defined(ALT_ALLOW_CODE_AT_RESET) || defined(ALT_SIM_OPTIMIZE)
    /* Jump to the _start entry point in the .text section. */
    movhi r1, %hi(_start)
 2000010:	00408034 	movhi	at,512
    ori r1, r1, %lo(_start)
 2000014:	08406f14 	ori	at,at,444
    jmp r1
 2000018:	0800683a 	jmp	at
 200001c:	00000000 	call	0 <__reset-0x2000000>

Disassembly of section .exceptions:

02000020 <alt_exception>:

#else /* ALT_EXCEPTION_STACK disabled */
        /* 
         * Reserve space on normal stack for registers about to be pushed.
         */
        addi  sp, sp, -76
 2000020:	deffed04 	addi	sp,sp,-76
         * documentation for details).
         *
         * Leave a gap in the stack frame at 4(sp) for the muldiv handler to
         * store zero into.
         */
        stw   ra,  0(sp)
 2000024:	dfc00015 	stw	ra,0(sp)
        stw   r1,   8(sp)
 2000028:	d8400215 	stw	at,8(sp)
        stw   r2,  12(sp)
 200002c:	d8800315 	stw	r2,12(sp)
        stw   r3,  16(sp)
 2000030:	d8c00415 	stw	r3,16(sp)
        stw   r4,  20(sp)
 2000034:	d9000515 	stw	r4,20(sp)
        stw   r5,  24(sp)
 2000038:	d9400615 	stw	r5,24(sp)
        stw   r6,  28(sp)
 200003c:	d9800715 	stw	r6,28(sp)
        stw   r7,  32(sp)
 2000040:	d9c00815 	stw	r7,32(sp)
        rdctl r5, estatus   /* Read early to avoid usage stall */
 2000044:	000b307a 	rdctl	r5,estatus
        stw   r8,  36(sp)
 2000048:	da000915 	stw	r8,36(sp)
        stw   r9,  40(sp)
 200004c:	da400a15 	stw	r9,40(sp)
        stw   r10, 44(sp)
 2000050:	da800b15 	stw	r10,44(sp)
        stw   r11, 48(sp)
 2000054:	dac00c15 	stw	r11,48(sp)
        stw   r12, 52(sp)
 2000058:	db000d15 	stw	r12,52(sp)
        stw   r13, 56(sp)
 200005c:	db400e15 	stw	r13,56(sp)
        stw   r14, 60(sp)
 2000060:	db800f15 	stw	r14,60(sp)
        stw   r15, 64(sp)
 2000064:	dbc01015 	stw	r15,64(sp)
        /*
         * ea-4 contains the address of the instruction being executed
         * when the exception occured. For interrupt exceptions, we will
         * will be re-issue the isntruction. Store it in 72(sp)
         */
        stw   r5,  68(sp)  /* estatus */
 2000068:	d9401115 	stw	r5,68(sp)
        addi  r15, ea, -4  /* instruction that caused exception */
 200006c:	ebffff04 	addi	r15,ea,-4
        stw   r15,  72(sp)
 2000070:	dbc01215 	stw	r15,72(sp)
#else
        /*
         * Test to see if the exception was a software exception or caused 
         * by an external interrupt, and vector accordingly.
         */
        rdctl r4, ipending
 2000074:	0009313a 	rdctl	r4,ipending
        andi  r2, r5, 1
 2000078:	2880004c 	andi	r2,r5,1
        beq   r2, zero, .Lnot_irq
 200007c:	10000326 	beq	r2,zero,200008c <alt_exception+0x6c>
        beq   r4, zero, .Lnot_irq
 2000080:	20000226 	beq	r4,zero,200008c <alt_exception+0x6c>
        /*
         * Now that all necessary registers have been preserved, call 
         * alt_irq_handler() to process the interrupts.
         */

        call alt_irq_handler
 2000084:	20000ec0 	call	20000ec <alt_irq_handler>

        .section .exceptions.irqreturn, "xa"

        br    .Lexception_exit
 2000088:	00000306 	br	2000098 <alt_exception_unknown+0x4>
         * upon completion, so we write ea (address of instruction *after*
         * the one where the exception occured) into 72(sp). The actual
         * instruction that caused the exception is written in r2, which these
         * handlers will utilize.
         */
        stw   ea,  72(sp)  /* Don't re-issue */
 200008c:	df401215 	stw	ea,72(sp)
        ldw   r2, -4(ea)   /* Instruction that caused exception */
 2000090:	e8bfff17 	ldw	r2,-4(ea)

02000094 <alt_exception_unknown>:
#ifdef NIOS2_HAS_DEBUG_STUB
       /*
        *  Either tell the user now (if there is a debugger attached) or go into
        *  the debug monitor which will loop until a debugger is attached.
        */
        break
 2000094:	003da03a 	break	0
        /* 
         * Restore the saved registers, so that all general purpose registers 
         * have been restored to their state at the time the interrupt occured.
         */

        ldw   r5,  68(sp)
 2000098:	d9401117 	ldw	r5,68(sp)
        ldw   ea,  72(sp)  /* This becomes the PC once eret is executed */
 200009c:	df401217 	ldw	ea,72(sp)
        ldw   ra,   0(sp)
 20000a0:	dfc00017 	ldw	ra,0(sp)

        wrctl estatus, r5
 20000a4:	2801707a 	wrctl	estatus,r5

        ldw   r1,   8(sp)
 20000a8:	d8400217 	ldw	at,8(sp)
        ldw   r2,  12(sp)
 20000ac:	d8800317 	ldw	r2,12(sp)
        ldw   r3,  16(sp)
 20000b0:	d8c00417 	ldw	r3,16(sp)
        ldw   r4,  20(sp)
 20000b4:	d9000517 	ldw	r4,20(sp)
        ldw   r5,  24(sp)
 20000b8:	d9400617 	ldw	r5,24(sp)
        ldw   r6,  28(sp)
 20000bc:	d9800717 	ldw	r6,28(sp)
        ldw   r7,  32(sp)
 20000c0:	d9c00817 	ldw	r7,32(sp)

#if defined(ALT_EXCEPTION_STACK) && defined(ALT_STACK_CHECK)
        ldw   et, %gprel(alt_exception_old_stack_limit)(gp)
#endif

        ldw   r8,  36(sp)
 20000c4:	da000917 	ldw	r8,36(sp)
        ldw   r9,  40(sp)
 20000c8:	da400a17 	ldw	r9,40(sp)
        ldw   r10, 44(sp)
 20000cc:	da800b17 	ldw	r10,44(sp)
        ldw   r11, 48(sp)
 20000d0:	dac00c17 	ldw	r11,48(sp)
        ldw   r12, 52(sp)
 20000d4:	db000d17 	ldw	r12,52(sp)
        ldw   r13, 56(sp)
 20000d8:	db400e17 	ldw	r13,56(sp)
        ldw   r14, 60(sp)
 20000dc:	db800f17 	ldw	r14,60(sp)
        ldw   r15, 64(sp)
 20000e0:	dbc01017 	ldw	r15,64(sp)
        stw   et, %gprel(alt_stack_limit_value)(gp)
        stw   zero, %gprel(alt_exception_old_stack_limit)(gp)
#endif /* ALT_STACK_CHECK */
        ldw   sp,  76(sp)
#else /* ALT_EXCEPTION_STACK disabled */
        addi  sp, sp, 76
 20000e4:	dec01304 	addi	sp,sp,76

        /*
         * Return to the interrupted instruction.
         */

        eret
 20000e8:	ef80083a 	eret

020000ec <alt_irq_handler>:
 * instruction is present if the macro ALT_CI_INTERRUPT_VECTOR defined.
 */

void alt_irq_handler (void) __attribute__ ((section (".exceptions")));
void alt_irq_handler (void)
{
 20000ec:	defff904 	addi	sp,sp,-28
 20000f0:	dfc00615 	stw	ra,24(sp)
 20000f4:	df000515 	stw	fp,20(sp)
 20000f8:	df000504 	addi	fp,sp,20
  
  /*
   * Notify the operating system that we are at interrupt level.
   */ 
  
  ALT_OS_INT_ENTER();
 20000fc:	0001883a 	nop
#ifndef NIOS2_EIC_PRESENT
static ALT_INLINE alt_u32 ALT_ALWAYS_INLINE alt_irq_pending (void)
{
  alt_u32 active;

  NIOS2_READ_IPENDING (active);
 2000100:	0005313a 	rdctl	r2,ipending
 2000104:	e0bffe15 	stw	r2,-8(fp)

  return active;
 2000108:	e0bffe17 	ldw	r2,-8(fp)
   * Consider the case where the high priority interupt is asserted during
   * the interrupt entry sequence for a lower priority interrupt to see why
   * this is the case.
   */

  active = alt_irq_pending ();
 200010c:	e0bffb15 	stw	r2,-20(fp)

  do
  {
    i = 0;
 2000110:	e03ffd15 	stw	zero,-12(fp)
    mask = 1;
 2000114:	00800044 	movi	r2,1
 2000118:	e0bffc15 	stw	r2,-16(fp)
     * called to clear the interrupt condition.
     */

    do
    {
      if (active & mask)
 200011c:	e0fffb17 	ldw	r3,-20(fp)
 2000120:	e0bffc17 	ldw	r2,-16(fp)
 2000124:	1884703a 	and	r2,r3,r2
 2000128:	10001426 	beq	r2,zero,200017c <alt_irq_handler+0x90>
      { 
#ifdef ALT_ENHANCED_INTERRUPT_API_PRESENT
        alt_irq[i].handler(alt_irq[i].context); 
 200012c:	008080f4 	movhi	r2,515
 2000130:	10a8f004 	addi	r2,r2,-23616
 2000134:	e0fffd17 	ldw	r3,-12(fp)
 2000138:	180690fa 	slli	r3,r3,3
 200013c:	10c5883a 	add	r2,r2,r3
 2000140:	10c00017 	ldw	r3,0(r2)
 2000144:	008080f4 	movhi	r2,515
 2000148:	10a8f004 	addi	r2,r2,-23616
 200014c:	e13ffd17 	ldw	r4,-12(fp)
 2000150:	200890fa 	slli	r4,r4,3
 2000154:	1105883a 	add	r2,r2,r4
 2000158:	10800104 	addi	r2,r2,4
 200015c:	10800017 	ldw	r2,0(r2)
 2000160:	1009883a 	mov	r4,r2
 2000164:	183ee83a 	callr	r3
#else
        alt_irq[i].handler(alt_irq[i].context, i); 
#endif
        break;
 2000168:	0001883a 	nop
#ifndef NIOS2_EIC_PRESENT
static ALT_INLINE alt_u32 ALT_ALWAYS_INLINE alt_irq_pending (void)
{
  alt_u32 active;

  NIOS2_READ_IPENDING (active);
 200016c:	0005313a 	rdctl	r2,ipending
 2000170:	e0bfff15 	stw	r2,-4(fp)

  return active;
 2000174:	e0bfff17 	ldw	r2,-4(fp)
 2000178:	00000706 	br	2000198 <alt_irq_handler+0xac>
      }
      mask <<= 1;
 200017c:	e0bffc17 	ldw	r2,-16(fp)
 2000180:	1085883a 	add	r2,r2,r2
 2000184:	e0bffc15 	stw	r2,-16(fp)
      i++;
 2000188:	e0bffd17 	ldw	r2,-12(fp)
 200018c:	10800044 	addi	r2,r2,1
 2000190:	e0bffd15 	stw	r2,-12(fp)

    } while (1);
 2000194:	003fe106 	br	200011c <__alt_mem_pic_mem+0xfdffc11c>

    active = alt_irq_pending ();
 2000198:	e0bffb15 	stw	r2,-20(fp)
    
  } while (active);
 200019c:	e0bffb17 	ldw	r2,-20(fp)
 20001a0:	103fdb1e 	bne	r2,zero,2000110 <__alt_mem_pic_mem+0xfdffc110>

  /*
   * Notify the operating system that interrupt processing is complete.
   */ 

  ALT_OS_INT_EXIT();
 20001a4:	0001883a 	nop
}
 20001a8:	e037883a 	mov	sp,fp
 20001ac:	dfc00117 	ldw	ra,4(sp)
 20001b0:	df000017 	ldw	fp,0(sp)
 20001b4:	dec00204 	addi	sp,sp,8
 20001b8:	f800283a 	ret

Disassembly of section .text:

020001bc <_start>:

    /* Assume the data cache size is always a power of two. */
#if NIOS2_DCACHE_SIZE > 0x8000
    movhi r2, %hi(NIOS2_DCACHE_SIZE)
#else
    movui r2, NIOS2_DCACHE_SIZE
 20001bc:	00820014 	movui	r2,2048
#endif

0:
    initd 0(r2)
 20001c0:	10000033 	initd	0(r2)
#ifdef NIOS2_ECC_PRESENT
    addi r2, r2, -4
#else
    addi r2, r2, -NIOS2_DCACHE_LINE_SIZE
 20001c4:	10bff804 	addi	r2,r2,-32
#endif
    bgt r2, zero, 0b
 20001c8:	00bffd16 	blt	zero,r2,20001c0 <__alt_mem_pic_mem+0xfdffc1c0>

    /*
     * Now that the caches are initialized, set up the stack pointer and global pointer.
     * The values provided by the linker are assumed to be correctly aligned.
     */
    movhi sp, %hi(__alt_stack_pointer)
 20001cc:	06c10034 	movhi	sp,1024
    ori sp, sp, %lo(__alt_stack_pointer)
 20001d0:	dec00014 	ori	sp,sp,0
    movhi gp, %hi(_gp)
 20001d4:	068080f4 	movhi	gp,515
    ori gp, gp, %lo(_gp)
 20001d8:	d6801f14 	ori	gp,gp,124
 */
#ifndef ALT_SIM_OPTIMIZE
    /* Log that the BSS is about to be cleared. */
    ALT_LOG_PUTS(alt_log_msg_bss)

    movhi r2, %hi(__bss_start)
 20001dc:	008080b4 	movhi	r2,514
    ori r2, r2, %lo(__bss_start)
 20001e0:	10a8db14 	ori	r2,r2,41836

    movhi r3, %hi(__bss_end)
 20001e4:	00c080b4 	movhi	r3,514
    ori r3, r3, %lo(__bss_end)
 20001e8:	18e93014 	ori	r3,r3,42176

    beq r2, r3, 1f
 20001ec:	10c00326 	beq	r2,r3,20001fc <_start+0x40>

0:
    stw zero, (r2)
 20001f0:	10000015 	stw	zero,0(r2)
    addi r2, r2, 4
 20001f4:	10800104 	addi	r2,r2,4
    bltu r2, r3, 0b
 20001f8:	10fffd36 	bltu	r2,r3,20001f0 <__alt_mem_pic_mem+0xfdffc1f0>
     * section aren't defined until alt_load() has been called).
     */
    mov   et, zero
#endif

    call alt_load
 20001fc:	200a6600 	call	200a660 <alt_load>

    /* Log that alt_main is about to be called. */
    ALT_LOG_PUTS(alt_log_msg_alt_main)

    /* Call the C entry point. It should never return. */
    call alt_main
 2000200:	200a6e00 	call	200a6e0 <alt_main>

02000204 <alt_after_alt_main>:

    /* Wait in infinite loop in case alt_main does return. */
alt_after_alt_main:
    br alt_after_alt_main
 2000204:	003fff06 	br	2000204 <__alt_mem_pic_mem+0xfdffc204>

02000208 <GUI_ShowWelcome>:
    RECT rcPaint;
    PALETTE_INFO szPalette[BTN_NUM];
}DESK_INFO;


void GUI_ShowWelcome(alt_video_display *pDisplay){
 2000208:	defff804 	addi	sp,sp,-32
 200020c:	dfc00715 	stw	ra,28(sp)
 2000210:	df000615 	stw	fp,24(sp)
 2000214:	df000604 	addi	fp,sp,24
 2000218:	e13fff15 	stw	r4,-4(fp)
	int x, y;


	x = pDisplay->width / 2 - 60;
 200021c:	e0bfff17 	ldw	r2,-4(fp)
 2000220:	10800117 	ldw	r2,4(r2)
 2000224:	1006d7fa 	srli	r3,r2,31
 2000228:	1885883a 	add	r2,r3,r2
 200022c:	1005d07a 	srai	r2,r2,1
 2000230:	10bff104 	addi	r2,r2,-60
 2000234:	e0bffd15 	stw	r2,-12(fp)
	y = pDisplay->height / 2 - 10;
 2000238:	e0bfff17 	ldw	r2,-4(fp)
 200023c:	10800217 	ldw	r2,8(r2)
 2000240:	1006d7fa 	srli	r3,r2,31
 2000244:	1885883a 	add	r2,r3,r2
 2000248:	1005d07a 	srai	r2,r2,1
 200024c:	10bffd84 	addi	r2,r2,-10
 2000250:	e0bffe15 	stw	r2,-8(fp)

	vid_print_string_alpha(x, y, BLUE_24, BLACK_24, tahomabold_20, pDisplay, "Terasic");
 2000254:	008080b4 	movhi	r2,514
 2000258:	10978a04 	addi	r2,r2,24104
 200025c:	d8800015 	stw	r2,0(sp)
 2000260:	e0bfff17 	ldw	r2,-4(fp)
 2000264:	d8800115 	stw	r2,4(sp)
 2000268:	00808074 	movhi	r2,513
 200026c:	10af9e04 	addi	r2,r2,-16776
 2000270:	d8800215 	stw	r2,8(sp)
 2000274:	e13ffd17 	ldw	r4,-12(fp)
 2000278:	e17ffe17 	ldw	r5,-8(fp)
 200027c:	01803fc4 	movi	r6,255
 2000280:	000f883a 	mov	r7,zero
 2000284:	20048380 	call	2004838 <vid_print_string_alpha>
	vid_print_string_alpha(x, y+22, BLUE_24, BLACK_24, tahomabold_20, pDisplay, "Touch Demo");
 2000288:	e0bffe17 	ldw	r2,-8(fp)
 200028c:	10c00584 	addi	r3,r2,22
 2000290:	008080b4 	movhi	r2,514
 2000294:	10978a04 	addi	r2,r2,24104
 2000298:	d8800015 	stw	r2,0(sp)
 200029c:	e0bfff17 	ldw	r2,-4(fp)
 20002a0:	d8800115 	stw	r2,4(sp)
 20002a4:	00808074 	movhi	r2,513
 20002a8:	10afa004 	addi	r2,r2,-16768
 20002ac:	d8800215 	stw	r2,8(sp)
 20002b0:	e13ffd17 	ldw	r4,-12(fp)
 20002b4:	180b883a 	mov	r5,r3
 20002b8:	01803fc4 	movi	r6,255
 20002bc:	000f883a 	mov	r7,zero
 20002c0:	20048380 	call	2004838 <vid_print_string_alpha>
}
 20002c4:	e037883a 	mov	sp,fp
 20002c8:	dfc00117 	ldw	ra,4(sp)
 20002cc:	df000017 	ldw	fp,0(sp)
 20002d0:	dec00204 	addi	sp,sp,8
 20002d4:	f800283a 	ret

020002d8 <GUI_ShowInfo>:

void GUI_ShowInfo(alt_video_display *pDisplay, char *pText){
 20002d8:	defff904 	addi	sp,sp,-28
 20002dc:	dfc00615 	stw	ra,24(sp)
 20002e0:	df000515 	stw	fp,20(sp)
 20002e4:	df000504 	addi	fp,sp,20
 20002e8:	e13ffe15 	stw	r4,-8(fp)
 20002ec:	e17fff15 	stw	r5,-4(fp)
    static int x=0,y=100;
   // vid_clean_screen(pReader, BLACK_24);
    vid_print_string_alpha(x, y, BLUE_24, BLACK_24, tahomabold_20, pDisplay, pText);
 20002f0:	d128bc17 	ldw	r4,-23824(gp)
 20002f4:	d0e00017 	ldw	r3,-32768(gp)
 20002f8:	008080b4 	movhi	r2,514
 20002fc:	10978a04 	addi	r2,r2,24104
 2000300:	d8800015 	stw	r2,0(sp)
 2000304:	e0bffe17 	ldw	r2,-8(fp)
 2000308:	d8800115 	stw	r2,4(sp)
 200030c:	e0bfff17 	ldw	r2,-4(fp)
 2000310:	d8800215 	stw	r2,8(sp)
 2000314:	180b883a 	mov	r5,r3
 2000318:	01803fc4 	movi	r6,255
 200031c:	000f883a 	mov	r7,zero
 2000320:	20048380 	call	2004838 <vid_print_string_alpha>
 //   VIPFR_ActiveDrawFrame(pReader);
}
 2000324:	e037883a 	mov	sp,fp
 2000328:	dfc00117 	ldw	ra,4(sp)
 200032c:	df000017 	ldw	fp,0(sp)
 2000330:	dec00204 	addi	sp,sp,8
 2000334:	f800283a 	ret

02000338 <GUI_ShowTouchPoint>:

void GUI_ShowTouchPoint(alt_video_display *pDisplay, int X, int Y, int color){
 2000338:	defff804 	addi	sp,sp,-32
 200033c:	dfc00715 	stw	ra,28(sp)
 2000340:	df000615 	stw	fp,24(sp)
 2000344:	df000604 	addi	fp,sp,24
 2000348:	e13ffc15 	stw	r4,-16(fp)
 200034c:	e17ffd15 	stw	r5,-12(fp)
 2000350:	e1bffe15 	stw	r6,-8(fp)
 2000354:	e1ffff15 	stw	r7,-4(fp)
    vid_draw_circle(X, Y, 10, color, DO_FILL, pDisplay);
 2000358:	00800044 	movi	r2,1
 200035c:	d8800015 	stw	r2,0(sp)
 2000360:	e0bffc17 	ldw	r2,-16(fp)
 2000364:	d8800115 	stw	r2,4(sp)
 2000368:	e13ffd17 	ldw	r4,-12(fp)
 200036c:	e17ffe17 	ldw	r5,-8(fp)
 2000370:	01800284 	movi	r6,10
 2000374:	e1ffff17 	ldw	r7,-4(fp)
 2000378:	20032500 	call	2003250 <vid_draw_circle>
   // VIPFR_ActiveDrawFrame(pReader);
}
 200037c:	e037883a 	mov	sp,fp
 2000380:	dfc00117 	ldw	ra,4(sp)
 2000384:	df000017 	ldw	fp,0(sp)
 2000388:	dec00204 	addi	sp,sp,8
 200038c:	f800283a 	ret

02000390 <GUI_DeskInit>:


//----------------------------------------------------------------------------------------------------

void GUI_DeskInit(alt_video_display *pDisplay, DESK_INFO *pDeskInfo){
 2000390:	deffef04 	addi	sp,sp,-68
 2000394:	dfc01015 	stw	ra,64(sp)
 2000398:	df000f15 	stw	fp,60(sp)
 200039c:	df000f04 	addi	fp,sp,60
 20003a0:	e13ffe15 	stw	r4,-8(fp)
 20003a4:	e17fff15 	stw	r5,-4(fp)
    int i;
    RECT rc;
    const int BoxH = 40;
 20003a8:	00800a04 	movi	r2,40
 20003ac:	e0bff315 	stw	r2,-52(fp)
    const int BoxW = 40;
 20003b0:	00800a04 	movi	r2,40
 20003b4:	e0bff415 	stw	r2,-48(fp)
    const int GapH = 5;
 20003b8:	00800144 	movi	r2,5
 20003bc:	e0bff515 	stw	r2,-44(fp)
    const int DrawBorder = 2;
 20003c0:	00800084 	movi	r2,2
 20003c4:	e0bff615 	stw	r2,-40(fp)
    const int TextW = 0;
 20003c8:	e03ff715 	stw	zero,-36(fp)
    const int ClearExtraW = 30;
 20003cc:	00800784 	movi	r2,30
 20003d0:	e0bff815 	stw	r2,-32(fp)
    int GapW;

    
    GapW = (pDisplay->width - TextW - ClearExtraW - (BTN_NUM*BoxW))/(BTN_NUM+1);
 20003d4:	e0bffe17 	ldw	r2,-8(fp)
 20003d8:	10c00117 	ldw	r3,4(r2)
 20003dc:	e0bff717 	ldw	r2,-36(fp)
 20003e0:	1887c83a 	sub	r3,r3,r2
 20003e4:	e0bff817 	ldw	r2,-32(fp)
 20003e8:	1887c83a 	sub	r3,r3,r2
 20003ec:	e0bff417 	ldw	r2,-48(fp)
 20003f0:	10bffee4 	muli	r2,r2,-5
 20003f4:	1885883a 	add	r2,r3,r2
 20003f8:	1009883a 	mov	r4,r2
 20003fc:	01400184 	movi	r5,6
 2000400:	200624c0 	call	200624c <__divsi3>
 2000404:	e0bff915 	stw	r2,-28(fp)
    //printf("GapW=%d\r\n", GapW);
    rc.top = pDisplay->height - BoxH - GapH;
 2000408:	e0bffe17 	ldw	r2,-8(fp)
 200040c:	10c00217 	ldw	r3,8(r2)
 2000410:	e0bff317 	ldw	r2,-52(fp)
 2000414:	1887c83a 	sub	r3,r3,r2
 2000418:	e0bff517 	ldw	r2,-44(fp)
 200041c:	1885c83a 	sub	r2,r3,r2
 2000420:	e0bffc15 	stw	r2,-16(fp)
    rc.bottom = rc.top + BoxH;
 2000424:	e0fffc17 	ldw	r3,-16(fp)
 2000428:	e0bff317 	ldw	r2,-52(fp)
 200042c:	1885883a 	add	r2,r3,r2
 2000430:	e0bffd15 	stw	r2,-12(fp)
    rc.left = GapW + TextW + ClearExtraW;
 2000434:	e0fff917 	ldw	r3,-28(fp)
 2000438:	e0bff717 	ldw	r2,-36(fp)
 200043c:	1887883a 	add	r3,r3,r2
 2000440:	e0bff817 	ldw	r2,-32(fp)
 2000444:	1885883a 	add	r2,r3,r2
 2000448:	e0bffa15 	stw	r2,-24(fp)
    rc.right = rc.left + BoxW;
 200044c:	e0fffa17 	ldw	r3,-24(fp)
 2000450:	e0bff417 	ldw	r2,-48(fp)
 2000454:	1885883a 	add	r2,r3,r2
 2000458:	e0bffb15 	stw	r2,-20(fp)
    
    // desk drawing area    
    RectSet(&pDeskInfo->rcPaint, DrawBorder, pDisplay->width-DrawBorder, DrawBorder, rc.top - DrawBorder);
 200045c:	e0bfff17 	ldw	r2,-4(fp)
 2000460:	11000104 	addi	r4,r2,4
 2000464:	e0bffe17 	ldw	r2,-8(fp)
 2000468:	10c00117 	ldw	r3,4(r2)
 200046c:	e0bff617 	ldw	r2,-40(fp)
 2000470:	188dc83a 	sub	r6,r3,r2
 2000474:	e0fffc17 	ldw	r3,-16(fp)
 2000478:	e0bff617 	ldw	r2,-40(fp)
 200047c:	1885c83a 	sub	r2,r3,r2
 2000480:	d8800015 	stw	r2,0(sp)
 2000484:	e17ff617 	ldw	r5,-40(fp)
 2000488:	e1fff617 	ldw	r7,-40(fp)
 200048c:	2001eb40 	call	2001eb4 <RectSet>
    
    for(i=0;i<BTN_NUM;i++){
 2000490:	e03ff215 	stw	zero,-56(fp)
 2000494:	00002206 	br	2000520 <GUI_DeskInit+0x190>
        RectCopy(&pDeskInfo->szPalette[i].rc, &rc);
 2000498:	e0bff217 	ldw	r2,-56(fp)
 200049c:	10800044 	addi	r2,r2,1
 20004a0:	10800524 	muli	r2,r2,20
 20004a4:	e0ffff17 	ldw	r3,-4(fp)
 20004a8:	1887883a 	add	r3,r3,r2
 20004ac:	e0bffa04 	addi	r2,fp,-24
 20004b0:	1809883a 	mov	r4,r3
 20004b4:	100b883a 	mov	r5,r2
 20004b8:	20020200 	call	2002020 <RectCopy>
        pDeskInfo->szPalette[i].color = szPallete[i];
 20004bc:	008080b4 	movhi	r2,514
 20004c0:	10978504 	addi	r2,r2,24084
 20004c4:	e0fff217 	ldw	r3,-56(fp)
 20004c8:	18c7883a 	add	r3,r3,r3
 20004cc:	18c7883a 	add	r3,r3,r3
 20004d0:	10c5883a 	add	r2,r2,r3
 20004d4:	10800017 	ldw	r2,0(r2)
 20004d8:	1009883a 	mov	r4,r2
 20004dc:	e0ffff17 	ldw	r3,-4(fp)
 20004e0:	e0bff217 	ldw	r2,-56(fp)
 20004e4:	10800524 	muli	r2,r2,20
 20004e8:	1885883a 	add	r2,r3,r2
 20004ec:	10800904 	addi	r2,r2,36
 20004f0:	11000015 	stw	r4,0(r2)
        RectOffset(&rc, BoxW+GapW, 0);
 20004f4:	e0fff417 	ldw	r3,-48(fp)
 20004f8:	e0bff917 	ldw	r2,-28(fp)
 20004fc:	1885883a 	add	r2,r3,r2
 2000500:	e0fffa04 	addi	r3,fp,-24
 2000504:	1809883a 	mov	r4,r3
 2000508:	100b883a 	mov	r5,r2
 200050c:	000d883a 	mov	r6,zero
 2000510:	2001f980 	call	2001f98 <RectOffset>
    rc.right = rc.left + BoxW;
    
    // desk drawing area    
    RectSet(&pDeskInfo->rcPaint, DrawBorder, pDisplay->width-DrawBorder, DrawBorder, rc.top - DrawBorder);
    
    for(i=0;i<BTN_NUM;i++){
 2000514:	e0bff217 	ldw	r2,-56(fp)
 2000518:	10800044 	addi	r2,r2,1
 200051c:	e0bff215 	stw	r2,-56(fp)
 2000520:	e0bff217 	ldw	r2,-56(fp)
 2000524:	10800150 	cmplti	r2,r2,5
 2000528:	103fdb1e 	bne	r2,zero,2000498 <__alt_mem_pic_mem+0xfdffc498>
        RectCopy(&pDeskInfo->szPalette[i].rc, &rc);
        pDeskInfo->szPalette[i].color = szPallete[i];
        RectOffset(&rc, BoxW+GapW, 0);
    }
    pDeskInfo->szPalette[BTN_CLEAR].rc.left -= ClearExtraW;
 200052c:	e0bfff17 	ldw	r2,-4(fp)
 2000530:	10c00517 	ldw	r3,20(r2)
 2000534:	e0bff817 	ldw	r2,-32(fp)
 2000538:	1887c83a 	sub	r3,r3,r2
 200053c:	e0bfff17 	ldw	r2,-4(fp)
 2000540:	10c00515 	stw	r3,20(r2)
    pDeskInfo->Paint_Index = BTN_BLUE;
 2000544:	e0bfff17 	ldw	r2,-4(fp)
 2000548:	00c00084 	movi	r3,2
 200054c:	10c00015 	stw	r3,0(r2)
}
 2000550:	e037883a 	mov	sp,fp
 2000554:	dfc00117 	ldw	ra,4(sp)
 2000558:	df000017 	ldw	fp,0(sp)
 200055c:	dec00204 	addi	sp,sp,8
 2000560:	f800283a 	ret

02000564 <GUI_CheckButton>:

//----------------------------------------------------------------------------------------------------

int GUI_CheckButton(DESK_INFO *pDeskInfo, POINT *pt){
 2000564:	defffa04 	addi	sp,sp,-24
 2000568:	dfc00515 	stw	ra,20(sp)
 200056c:	df000415 	stw	fp,16(sp)
 2000570:	df000404 	addi	fp,sp,16
 2000574:	e13ffe15 	stw	r4,-8(fp)
 2000578:	e17fff15 	stw	r5,-4(fp)
    int ButtonId = BTN_NONE;
 200057c:	00800184 	movi	r2,6
 2000580:	e0bffc15 	stw	r2,-16(fp)
    int i;
    
    for(i=0;i<BTN_NUM && (ButtonId == BTN_NONE);i++){
 2000584:	e03ffd15 	stw	zero,-12(fp)
 2000588:	00000e06 	br	20005c4 <GUI_CheckButton+0x60>
        if (IsPtInRect(pt, &pDeskInfo->szPalette[i].rc))
 200058c:	e0bffd17 	ldw	r2,-12(fp)
 2000590:	10800044 	addi	r2,r2,1
 2000594:	10800524 	muli	r2,r2,20
 2000598:	e0fffe17 	ldw	r3,-8(fp)
 200059c:	1885883a 	add	r2,r3,r2
 20005a0:	e13fff17 	ldw	r4,-4(fp)
 20005a4:	100b883a 	mov	r5,r2
 20005a8:	2001df00 	call	2001df0 <IsPtInRect>
 20005ac:	10000226 	beq	r2,zero,20005b8 <GUI_CheckButton+0x54>
            ButtonId = i;
 20005b0:	e0bffd17 	ldw	r2,-12(fp)
 20005b4:	e0bffc15 	stw	r2,-16(fp)

int GUI_CheckButton(DESK_INFO *pDeskInfo, POINT *pt){
    int ButtonId = BTN_NONE;
    int i;
    
    for(i=0;i<BTN_NUM && (ButtonId == BTN_NONE);i++){
 20005b8:	e0bffd17 	ldw	r2,-12(fp)
 20005bc:	10800044 	addi	r2,r2,1
 20005c0:	e0bffd15 	stw	r2,-12(fp)
 20005c4:	e0bffd17 	ldw	r2,-12(fp)
 20005c8:	10800148 	cmpgei	r2,r2,5
 20005cc:	1000031e 	bne	r2,zero,20005dc <GUI_CheckButton+0x78>
 20005d0:	e0bffc17 	ldw	r2,-16(fp)
 20005d4:	108001a0 	cmpeqi	r2,r2,6
 20005d8:	103fec1e 	bne	r2,zero,200058c <__alt_mem_pic_mem+0xfdffc58c>
        if (IsPtInRect(pt, &pDeskInfo->szPalette[i].rc))
            ButtonId = i;
    }
    return ButtonId;
 20005dc:	e0bffc17 	ldw	r2,-16(fp)
}
 20005e0:	e037883a 	mov	sp,fp
 20005e4:	dfc00117 	ldw	ra,4(sp)
 20005e8:	df000017 	ldw	fp,0(sp)
 20005ec:	dec00204 	addi	sp,sp,8
 20005f0:	f800283a 	ret

020005f4 <GUI_DeskDraw>:

//----------------------------------------------------------------------------------------------------

void GUI_DeskDraw(alt_video_display *pDisplay, DESK_INFO *pDeskInfo){
 20005f4:	defff104 	addi	sp,sp,-60
 20005f8:	dfc00e15 	stw	ra,56(sp)
 20005fc:	df000d15 	stw	fp,52(sp)
 2000600:	dc400c15 	stw	r17,48(sp)
 2000604:	dc000b15 	stw	r16,44(sp)
 2000608:	df000d04 	addi	fp,sp,52
 200060c:	e13ffc15 	stw	r4,-16(fp)
 2000610:	e17ffd15 	stw	r5,-12(fp)
    // show text
    //  vid_print_string_alpha(pDeskInfo->rcPaint.left, pDeskInfo->szPalette[0].rc.top, BLUE_24, BLACK_24, tahomabold_20, pDisplay, "Terasic");
    //  vid_print_string_alpha(pDeskInfo->rcPaint.left, pDeskInfo->szPalette[0].rc.top+22, BLUE_24, BLACK_24, tahomabold_20, pDisplay, "Touch");

    // draw border
    RectCopy(&rc, &pDeskInfo->rcPaint);
 2000614:	e0bffd17 	ldw	r2,-12(fp)
 2000618:	10800104 	addi	r2,r2,4
 200061c:	e0fff804 	addi	r3,fp,-32
 2000620:	1809883a 	mov	r4,r3
 2000624:	100b883a 	mov	r5,r2
 2000628:	20020200 	call	2002020 <RectCopy>
    vid_draw_box (rc.left, rc.top, rc.right, rc.bottom, WHITE_24, DO_NOT_FILL, pDisplay);
 200062c:	e13ff817 	ldw	r4,-32(fp)
 2000630:	e17ffa17 	ldw	r5,-24(fp)
 2000634:	e1bff917 	ldw	r6,-28(fp)
 2000638:	e0fffb17 	ldw	r3,-20(fp)
 200063c:	00804034 	movhi	r2,256
 2000640:	10bfffc4 	addi	r2,r2,-1
 2000644:	d8800015 	stw	r2,0(sp)
 2000648:	d8000115 	stw	zero,4(sp)
 200064c:	e0bffc17 	ldw	r2,-16(fp)
 2000650:	d8800215 	stw	r2,8(sp)
 2000654:	180f883a 	mov	r7,r3
 2000658:	2002a2c0 	call	2002a2c <vid_draw_box>
    

    // draw palette
	active = pDeskInfo->Paint_Index;
 200065c:	e0bffd17 	ldw	r2,-12(fp)
 2000660:	10800017 	ldw	r2,0(r2)
 2000664:	e0bff715 	stw	r2,-36(fp)
    for(i=0;i<BTN_NUM;i++){
 2000668:	e03ff615 	stw	zero,-40(fp)
 200066c:	00005e06 	br	20007e8 <GUI_DeskDraw+0x1f4>
        RectCopy(&rc, &(pDeskInfo->szPalette[i].rc));
 2000670:	e0bff617 	ldw	r2,-40(fp)
 2000674:	10800044 	addi	r2,r2,1
 2000678:	10800524 	muli	r2,r2,20
 200067c:	e0fffd17 	ldw	r3,-12(fp)
 2000680:	1885883a 	add	r2,r3,r2
 2000684:	e0fff804 	addi	r3,fp,-32
 2000688:	1809883a 	mov	r4,r3
 200068c:	100b883a 	mov	r5,r2
 2000690:	20020200 	call	2002020 <RectCopy>
        if (i == BTN_CLEAR){
 2000694:	e0bff617 	ldw	r2,-40(fp)
 2000698:	10002d1e 	bne	r2,zero,2000750 <GUI_DeskDraw+0x15c>
            vid_draw_box (rc.left, rc.top, rc.right, rc.bottom, pDeskInfo->szPalette[i].color, DO_NOT_FILL, pDisplay);
 200069c:	e13ff817 	ldw	r4,-32(fp)
 20006a0:	e17ffa17 	ldw	r5,-24(fp)
 20006a4:	e1bff917 	ldw	r6,-28(fp)
 20006a8:	e1fffb17 	ldw	r7,-20(fp)
 20006ac:	e0fffd17 	ldw	r3,-12(fp)
 20006b0:	e0bff617 	ldw	r2,-40(fp)
 20006b4:	10800524 	muli	r2,r2,20
 20006b8:	1885883a 	add	r2,r3,r2
 20006bc:	10800904 	addi	r2,r2,36
 20006c0:	10800017 	ldw	r2,0(r2)
 20006c4:	d8800015 	stw	r2,0(sp)
 20006c8:	d8000115 	stw	zero,4(sp)
 20006cc:	e0bffc17 	ldw	r2,-16(fp)
 20006d0:	d8800215 	stw	r2,8(sp)
 20006d4:	2002a2c0 	call	2002a2c <vid_draw_box>
            vid_print_string_alpha(rc.left+8, rc.top+(RectHeight(&rc)-22)/2, pDeskInfo->szPalette[i].color, BLACK_24, tahomabold_20, pDisplay, "Clear");
 20006d8:	e0bff817 	ldw	r2,-32(fp)
 20006dc:	14400204 	addi	r17,r2,8
 20006e0:	e43ffa17 	ldw	r16,-24(fp)
 20006e4:	e0bff804 	addi	r2,fp,-32
 20006e8:	1009883a 	mov	r4,r2
 20006ec:	20020b80 	call	20020b8 <RectHeight>
 20006f0:	10bffa84 	addi	r2,r2,-22
 20006f4:	1006d7fa 	srli	r3,r2,31
 20006f8:	1885883a 	add	r2,r3,r2
 20006fc:	1005d07a 	srai	r2,r2,1
 2000700:	808b883a 	add	r5,r16,r2
 2000704:	e0fffd17 	ldw	r3,-12(fp)
 2000708:	e0bff617 	ldw	r2,-40(fp)
 200070c:	10800524 	muli	r2,r2,20
 2000710:	1885883a 	add	r2,r3,r2
 2000714:	10800904 	addi	r2,r2,36
 2000718:	10c00017 	ldw	r3,0(r2)
 200071c:	008080b4 	movhi	r2,514
 2000720:	10978a04 	addi	r2,r2,24104
 2000724:	d8800015 	stw	r2,0(sp)
 2000728:	e0bffc17 	ldw	r2,-16(fp)
 200072c:	d8800115 	stw	r2,4(sp)
 2000730:	00808074 	movhi	r2,513
 2000734:	10afa304 	addi	r2,r2,-16756
 2000738:	d8800215 	stw	r2,8(sp)
 200073c:	8809883a 	mov	r4,r17
 2000740:	180d883a 	mov	r6,r3
 2000744:	000f883a 	mov	r7,zero
 2000748:	20048380 	call	2004838 <vid_print_string_alpha>
 200074c:	00002306 	br	20007dc <GUI_DeskDraw+0x1e8>
        }else{
        	if (active != i){
 2000750:	e0fff717 	ldw	r3,-36(fp)
 2000754:	e0bff617 	ldw	r2,-40(fp)
 2000758:	18801026 	beq	r3,r2,200079c <GUI_DeskDraw+0x1a8>
          		vid_draw_box (rc.left, rc.top, rc.right, rc.bottom, BLACK_24, DO_FILL, pDisplay);
 200075c:	e13ff817 	ldw	r4,-32(fp)
 2000760:	e17ffa17 	ldw	r5,-24(fp)
 2000764:	e1bff917 	ldw	r6,-28(fp)
 2000768:	e0fffb17 	ldw	r3,-20(fp)
 200076c:	d8000015 	stw	zero,0(sp)
 2000770:	00800044 	movi	r2,1
 2000774:	d8800115 	stw	r2,4(sp)
 2000778:	e0bffc17 	ldw	r2,-16(fp)
 200077c:	d8800215 	stw	r2,8(sp)
 2000780:	180f883a 	mov	r7,r3
 2000784:	2002a2c0 	call	2002a2c <vid_draw_box>
        		RectInflate(&rc, -4, -4);
 2000788:	e0bff804 	addi	r2,fp,-32
 200078c:	1009883a 	mov	r4,r2
 2000790:	017fff04 	movi	r5,-4
 2000794:	01bfff04 	movi	r6,-4
 2000798:	2001f100 	call	2001f10 <RectInflate>
        	}
      		vid_draw_box (rc.left, rc.top, rc.right, rc.bottom, pDeskInfo->szPalette[i].color, DO_FILL, pDisplay);
 200079c:	e13ff817 	ldw	r4,-32(fp)
 20007a0:	e17ffa17 	ldw	r5,-24(fp)
 20007a4:	e1bff917 	ldw	r6,-28(fp)
 20007a8:	e1fffb17 	ldw	r7,-20(fp)
 20007ac:	e0fffd17 	ldw	r3,-12(fp)
 20007b0:	e0bff617 	ldw	r2,-40(fp)
 20007b4:	10800524 	muli	r2,r2,20
 20007b8:	1885883a 	add	r2,r3,r2
 20007bc:	10800904 	addi	r2,r2,36
 20007c0:	10800017 	ldw	r2,0(r2)
 20007c4:	d8800015 	stw	r2,0(sp)
 20007c8:	00800044 	movi	r2,1
 20007cc:	d8800115 	stw	r2,4(sp)
 20007d0:	e0bffc17 	ldw	r2,-16(fp)
 20007d4:	d8800215 	stw	r2,8(sp)
 20007d8:	2002a2c0 	call	2002a2c <vid_draw_box>
    vid_draw_box (rc.left, rc.top, rc.right, rc.bottom, WHITE_24, DO_NOT_FILL, pDisplay);
    

    // draw palette
	active = pDeskInfo->Paint_Index;
    for(i=0;i<BTN_NUM;i++){
 20007dc:	e0bff617 	ldw	r2,-40(fp)
 20007e0:	10800044 	addi	r2,r2,1
 20007e4:	e0bff615 	stw	r2,-40(fp)
 20007e8:	e0bff617 	ldw	r2,-40(fp)
 20007ec:	10800150 	cmplti	r2,r2,5
 20007f0:	103f9f1e 	bne	r2,zero,2000670 <__alt_mem_pic_mem+0xfdffc670>
    //  vid_print_string_alpha(rc.left+2, rc.top+2, BLACK_24, pDeskInfo->szPalette[active].color, tahomabold_20, pDisplay, "*");
        
    //active = pDeskInfo->Paint1_Index;
    //RectCopy(&rc, &pDeskInfo->szPalette[active].rc);
    //vid_print_string_alpha(rc.left+2, rc.top+2, BLACK_24, pDeskInfo->szPalette[active].color, tahomabold_20, pDisplay, "2");
}
 20007f4:	e6fffe04 	addi	sp,fp,-8
 20007f8:	dfc00317 	ldw	ra,12(sp)
 20007fc:	df000217 	ldw	fp,8(sp)
 2000800:	dc400117 	ldw	r17,4(sp)
 2000804:	dc000017 	ldw	r16,0(sp)
 2000808:	dec00404 	addi	sp,sp,16
 200080c:	f800283a 	ret

02000810 <IsContinuedPoint>:

//----------------------------------------------------------------------------------------------------

bool IsContinuedPoint(POINT *ptPre, POINT *ptNew){
 2000810:	defffb04 	addi	sp,sp,-20
 2000814:	df000415 	stw	fp,16(sp)
 2000818:	df000404 	addi	fp,sp,16
 200081c:	e13ffe15 	stw	r4,-8(fp)
 2000820:	e17fff15 	stw	r5,-4(fp)
    bool bYes = TRUE;
 2000824:	00800044 	movi	r2,1
 2000828:	e0bffc15 	stw	r2,-16(fp)
    const int nMax = 50;
 200082c:	00800c84 	movi	r2,50
 2000830:	e0bffd15 	stw	r2,-12(fp)
    if (abs(ptPre->x - ptNew->x) > nMax)
 2000834:	e0bffe17 	ldw	r2,-8(fp)
 2000838:	10c00017 	ldw	r3,0(r2)
 200083c:	e0bfff17 	ldw	r2,-4(fp)
 2000840:	10800017 	ldw	r2,0(r2)
 2000844:	1885c83a 	sub	r2,r3,r2
 2000848:	1000010e 	bge	r2,zero,2000850 <IsContinuedPoint+0x40>
 200084c:	0085c83a 	sub	r2,zero,r2
 2000850:	1007883a 	mov	r3,r2
 2000854:	e0bffd17 	ldw	r2,-12(fp)
 2000858:	10c0020e 	bge	r2,r3,2000864 <IsContinuedPoint+0x54>
        bYes = FALSE;
 200085c:	e03ffc15 	stw	zero,-16(fp)
 2000860:	00000b06 	br	2000890 <IsContinuedPoint+0x80>
    else if (abs(ptPre->y - ptNew->y) > nMax)
 2000864:	e0bffe17 	ldw	r2,-8(fp)
 2000868:	10c00117 	ldw	r3,4(r2)
 200086c:	e0bfff17 	ldw	r2,-4(fp)
 2000870:	10800117 	ldw	r2,4(r2)
 2000874:	1885c83a 	sub	r2,r3,r2
 2000878:	1000010e 	bge	r2,zero,2000880 <IsContinuedPoint+0x70>
 200087c:	0085c83a 	sub	r2,zero,r2
 2000880:	1007883a 	mov	r3,r2
 2000884:	e0bffd17 	ldw	r2,-12(fp)
 2000888:	10c0010e 	bge	r2,r3,2000890 <IsContinuedPoint+0x80>
        bYes = FALSE;
 200088c:	e03ffc15 	stw	zero,-16(fp)
        
    return bYes;
 2000890:	e0bffc17 	ldw	r2,-16(fp)
}
 2000894:	e037883a 	mov	sp,fp
 2000898:	df000017 	ldw	fp,0(sp)
 200089c:	dec00104 	addi	sp,sp,4
 20008a0:	f800283a 	ret

020008a4 <GUI_ClearPaintArea>:

//----------------------------------------------------------------------------------------------------

void GUI_ClearPaintArea(alt_video_display *pDisplay, DESK_INFO *pDeskInfo){
 20008a4:	defff504 	addi	sp,sp,-44
 20008a8:	dfc00a15 	stw	ra,40(sp)
 20008ac:	df000915 	stw	fp,36(sp)
 20008b0:	df000904 	addi	fp,sp,36
 20008b4:	e13ffe15 	stw	r4,-8(fp)
 20008b8:	e17fff15 	stw	r5,-4(fp)
    RECT rc;
    RectCopy(&rc, &pDeskInfo->rcPaint);
 20008bc:	e0bfff17 	ldw	r2,-4(fp)
 20008c0:	10800104 	addi	r2,r2,4
 20008c4:	e13ffa04 	addi	r4,fp,-24
 20008c8:	100b883a 	mov	r5,r2
 20008cc:	20020200 	call	2002020 <RectCopy>
    RectInflate(&rc, -1, -1);
 20008d0:	e13ffa04 	addi	r4,fp,-24
 20008d4:	017fffc4 	movi	r5,-1
 20008d8:	01bfffc4 	movi	r6,-1
 20008dc:	2001f100 	call	2001f10 <RectInflate>
    vid_draw_box (rc.left, rc.top, rc.right, rc.bottom, BLACK_24, DO_FILL, pDisplay);
 20008e0:	e13ffa17 	ldw	r4,-24(fp)
 20008e4:	e17ffc17 	ldw	r5,-16(fp)
 20008e8:	e1bffb17 	ldw	r6,-20(fp)
 20008ec:	e0fffd17 	ldw	r3,-12(fp)
 20008f0:	d8000015 	stw	zero,0(sp)
 20008f4:	00800044 	movi	r2,1
 20008f8:	d8800115 	stw	r2,4(sp)
 20008fc:	e0bffe17 	ldw	r2,-8(fp)
 2000900:	d8800215 	stw	r2,8(sp)
 2000904:	180f883a 	mov	r7,r3
 2000908:	2002a2c0 	call	2002a2c <vid_draw_box>
    //
  //  RectCopy(&rc, &pDeskInfo->szPalette[BTN_GESTRUE].rc);
  //  vid_draw_box (rc.left, rc.top, rc.right, rc.bottom, BLACK_24, DO_FILL, pDisplay);
}
 200090c:	e037883a 	mov	sp,fp
 2000910:	dfc00117 	ldw	ra,4(sp)
 2000914:	df000017 	ldw	fp,0(sp)
 2000918:	dec00204 	addi	sp,sp,8
 200091c:	f800283a 	ret

02000920 <GUI>:

//----------------------------------------------------------------------------------------------------

void GUI(alt_video_display *pDisplay, TOUCH_HANDLE *pTouch){
 2000920:	deffd004 	addi	sp,sp,-192
 2000924:	dfc02f15 	stw	ra,188(sp)
 2000928:	df002e15 	stw	fp,184(sp)
 200092c:	df002e04 	addi	fp,sp,184
 2000930:	e13ffe15 	stw	r4,-8(fp)
 2000934:	e17fff15 	stw	r5,-4(fp)
    // video
    DESK_INFO DeskInfo;
    int X, Y;
    POINT Pt;
    const int nDotSize = DOT_SIZE;
 2000938:	00800144 	movi	r2,5
 200093c:	e0bfd615 	stw	r2,-168(fp)
    RECT rcTouch;
    int ColorPen, ButtonId;
    bool UpdatePalette;

    // clean screen
    vid_clean_screen(pDisplay, BLACK_24);
 2000940:	e13ffe17 	ldw	r4,-8(fp)
 2000944:	000b883a 	mov	r5,zero
 2000948:	20021e40 	call	20021e4 <vid_clean_screen>
    
    // Show Terasic Welcome
    GUI_ShowWelcome(pDisplay);
 200094c:	e13ffe17 	ldw	r4,-8(fp)
 2000950:	20002080 	call	2000208 <GUI_ShowWelcome>
    usleep(4*1000*1000);
 2000954:	01000f74 	movhi	r4,61
 2000958:	21024004 	addi	r4,r4,2304
 200095c:	200a9d40 	call	200a9d4 <usleep>
    vid_clean_screen(pDisplay, BLACK_24);
 2000960:	e13ffe17 	ldw	r4,-8(fp)
 2000964:	000b883a 	mov	r5,zero
 2000968:	20021e40 	call	20021e4 <vid_clean_screen>

    GUI_DeskInit(pDisplay, &DeskInfo);
 200096c:	e0bfd804 	addi	r2,fp,-160
 2000970:	e13ffe17 	ldw	r4,-8(fp)
 2000974:	100b883a 	mov	r5,r2
 2000978:	20003900 	call	2000390 <GUI_DeskInit>
    GUI_DeskDraw(pDisplay, &DeskInfo);
 200097c:	e0bfd804 	addi	r2,fp,-160
 2000980:	e13ffe17 	ldw	r4,-8(fp)
 2000984:	100b883a 	mov	r5,r2
 2000988:	20005f40 	call	20005f4 <GUI_DeskDraw>
    
    RectCopy(&rcTouch, &DeskInfo.rcPaint);
 200098c:	e0fffa04 	addi	r3,fp,-24
 2000990:	e0bfd804 	addi	r2,fp,-160
 2000994:	10800104 	addi	r2,r2,4
 2000998:	1809883a 	mov	r4,r3
 200099c:	100b883a 	mov	r5,r2
 20009a0:	20020200 	call	2002020 <RectCopy>
    RectInflate(&rcTouch, -nDotSize-2, -nDotSize-2);
 20009a4:	00ffff84 	movi	r3,-2
 20009a8:	e0bfd617 	ldw	r2,-168(fp)
 20009ac:	188bc83a 	sub	r5,r3,r2
 20009b0:	00ffff84 	movi	r3,-2
 20009b4:	e0bfd617 	ldw	r2,-168(fp)
 20009b8:	1885c83a 	sub	r2,r3,r2
 20009bc:	e0fffa04 	addi	r3,fp,-24
 20009c0:	1809883a 	mov	r4,r3
 20009c4:	100d883a 	mov	r6,r2
 20009c8:	2001f100 	call	2001f10 <RectInflate>
    
    ColorPen = DeskInfo.szPalette[DeskInfo.Paint_Index].color;
 20009cc:	e0bfd817 	ldw	r2,-160(fp)
 20009d0:	10800524 	muli	r2,r2,20
 20009d4:	e0ffd404 	addi	r3,fp,-176
 20009d8:	1885883a 	add	r2,r3,r2
 20009dc:	10800d04 	addi	r2,r2,52
 20009e0:	10800017 	ldw	r2,0(r2)
 20009e4:	e0bfd415 	stw	r2,-176(fp)
   //  printf("ContinuedTime=%d\r\n", ContinuedTime);
   // PtSet(&ptGesture, DeskInfo.szPalette[BTN_GESTRUE].rc.left+5, DeskInfo.szPalette[BTN_GESTRUE].rc.top+5);

    while(1){
            // touch
            if (Touch_GetXY(pTouch, &X, &Y)){
 20009e8:	e0fff604 	addi	r3,fp,-40
 20009ec:	e0bff704 	addi	r2,fp,-36
 20009f0:	e13fff17 	ldw	r4,-4(fp)
 20009f4:	180b883a 	mov	r5,r3
 20009f8:	100d883a 	mov	r6,r2
 20009fc:	200557c0 	call	200557c <Touch_GetXY>
 2000a00:	10004d26 	beq	r2,zero,2000b38 <GUI+0x218>

                printf("x=%d, y=%d\r\n", X,Y);
 2000a04:	e0fff617 	ldw	r3,-40(fp)
 2000a08:	e0bff717 	ldw	r2,-36(fp)
 2000a0c:	01008074 	movhi	r4,513
 2000a10:	212fa504 	addi	r4,r4,-16748
 2000a14:	180b883a 	mov	r5,r3
 2000a18:	100d883a 	mov	r6,r2
 2000a1c:	2008e440 	call	2008e44 <printf>
                PtSet(&Pt, X, Y);
 2000a20:	e0fff617 	ldw	r3,-40(fp)
 2000a24:	e0bff717 	ldw	r2,-36(fp)
 2000a28:	e13ff804 	addi	r4,fp,-32
 2000a2c:	180b883a 	mov	r5,r3
 2000a30:	100d883a 	mov	r6,r2
 2000a34:	2001e740 	call	2001e74 <PtSet>


                //   printf("t:%d, %d\r\n", (int)alt_nticks(), LastTimePt1);
                if ( IsPtInRect(&Pt, &rcTouch)){
 2000a38:	e0fff804 	addi	r3,fp,-32
 2000a3c:	e0bffa04 	addi	r2,fp,-24
 2000a40:	1809883a 	mov	r4,r3
 2000a44:	100b883a 	mov	r5,r2
 2000a48:	2001df00 	call	2001df0 <IsPtInRect>
 2000a4c:	10000b26 	beq	r2,zero,2000a7c <GUI+0x15c>

                    vid_draw_circle(Pt.x, Pt.y, nDotSize, ColorPen, DO_FILL, pDisplay);
 2000a50:	e13ff817 	ldw	r4,-32(fp)
 2000a54:	e0fff917 	ldw	r3,-28(fp)
 2000a58:	00800044 	movi	r2,1
 2000a5c:	d8800015 	stw	r2,0(sp)
 2000a60:	e0bffe17 	ldw	r2,-8(fp)
 2000a64:	d8800115 	stw	r2,4(sp)
 2000a68:	180b883a 	mov	r5,r3
 2000a6c:	e1bfd617 	ldw	r6,-168(fp)
 2000a70:	e1ffd417 	ldw	r7,-176(fp)
 2000a74:	20032500 	call	2003250 <vid_draw_circle>
 2000a78:	00002f06 	br	2000b38 <GUI+0x218>

                }else if (GUI_CheckButton(&DeskInfo, &Pt) == BTN_CLEAR){
 2000a7c:	e0ffd804 	addi	r3,fp,-160
 2000a80:	e0bff804 	addi	r2,fp,-32
 2000a84:	1809883a 	mov	r4,r3
 2000a88:	100b883a 	mov	r5,r2
 2000a8c:	20005640 	call	2000564 <GUI_CheckButton>
 2000a90:	1000071e 	bne	r2,zero,2000ab0 <GUI+0x190>
                    GUI_ClearPaintArea(pDisplay, &DeskInfo);
 2000a94:	e0bfd804 	addi	r2,fp,-160
 2000a98:	e13ffe17 	ldw	r4,-8(fp)
 2000a9c:	100b883a 	mov	r5,r2
 2000aa0:	20008a40 	call	20008a4 <GUI_ClearPaintArea>
                    Touch_EmptyFifo(pTouch);
 2000aa4:	e13fff17 	ldw	r4,-4(fp)
 2000aa8:	20055440 	call	2005544 <Touch_EmptyFifo>
 2000aac:	00002206 	br	2000b38 <GUI+0x218>
                }else {
                    ButtonId = GUI_CheckButton(&DeskInfo, &Pt);
 2000ab0:	e0ffd804 	addi	r3,fp,-160
 2000ab4:	e0bff804 	addi	r2,fp,-32
 2000ab8:	1809883a 	mov	r4,r3
 2000abc:	100b883a 	mov	r5,r2
 2000ac0:	20005640 	call	2000564 <GUI_CheckButton>
 2000ac4:	e0bfd715 	stw	r2,-164(fp)
                    UpdatePalette = FALSE;
 2000ac8:	e03fd515 	stw	zero,-172(fp)
                    if (ButtonId != BTN_NONE && ButtonId != BTN_CLEAR){
 2000acc:	e0bfd717 	ldw	r2,-164(fp)
 2000ad0:	108001a0 	cmpeqi	r2,r2,6
 2000ad4:	1000181e 	bne	r2,zero,2000b38 <GUI+0x218>
 2000ad8:	e0bfd717 	ldw	r2,-164(fp)
 2000adc:	10001626 	beq	r2,zero,2000b38 <GUI+0x218>
                        // chang draw color
                        if ( ButtonId != DeskInfo.Paint_Index ){
 2000ae0:	e0ffd817 	ldw	r3,-160(fp)
 2000ae4:	e0bfd717 	ldw	r2,-164(fp)
 2000ae8:	18800426 	beq	r3,r2,2000afc <GUI+0x1dc>
                            DeskInfo.Paint_Index = ButtonId;
 2000aec:	e0bfd717 	ldw	r2,-164(fp)
 2000af0:	e0bfd815 	stw	r2,-160(fp)
                            UpdatePalette = TRUE;
 2000af4:	00800044 	movi	r2,1
 2000af8:	e0bfd515 	stw	r2,-172(fp)
                        }

                        if (UpdatePalette){
 2000afc:	e0bfd517 	ldw	r2,-172(fp)
 2000b00:	10000d26 	beq	r2,zero,2000b38 <GUI+0x218>
                            ColorPen = DeskInfo.szPalette[DeskInfo.Paint_Index].color;
 2000b04:	e0bfd817 	ldw	r2,-160(fp)
 2000b08:	10800524 	muli	r2,r2,20
 2000b0c:	e0ffd404 	addi	r3,fp,-176
 2000b10:	1885883a 	add	r2,r3,r2
 2000b14:	10800d04 	addi	r2,r2,52
 2000b18:	10800017 	ldw	r2,0(r2)
 2000b1c:	e0bfd415 	stw	r2,-176(fp)
                            GUI_DeskDraw(pDisplay, &DeskInfo);
 2000b20:	e0bfd804 	addi	r2,fp,-160
 2000b24:	e13ffe17 	ldw	r4,-8(fp)
 2000b28:	100b883a 	mov	r5,r2
 2000b2c:	20005f40 	call	20005f4 <GUI_DeskDraw>
                            Touch_EmptyFifo(pTouch);
 2000b30:	e13fff17 	ldw	r4,-4(fp)
 2000b34:	20055440 	call	2005544 <Touch_EmptyFifo>
                        }
                    }
                }
            } // if touch
        } // while
 2000b38:	003fab06 	br	20009e8 <__alt_mem_pic_mem+0xfdffc9e8>

02000b3c <ShowInfo>:
#include "../graphic_lib/simple_graphics.h"
#include "../graphic_lib/geometry.h"



void ShowInfo(alt_video_display *pDisplay, char *pText){
 2000b3c:	defff904 	addi	sp,sp,-28
 2000b40:	dfc00615 	stw	ra,24(sp)
 2000b44:	df000515 	stw	fp,20(sp)
 2000b48:	df000504 	addi	fp,sp,20
 2000b4c:	e13ffe15 	stw	r4,-8(fp)
 2000b50:	e17fff15 	stw	r5,-4(fp)
    vid_print_string_alpha(1, 1, WHITE_24, BLACK_24, tahomabold_20, pDisplay, pText);
 2000b54:	008080b4 	movhi	r2,514
 2000b58:	10978a04 	addi	r2,r2,24104
 2000b5c:	d8800015 	stw	r2,0(sp)
 2000b60:	e0bffe17 	ldw	r2,-8(fp)
 2000b64:	d8800115 	stw	r2,4(sp)
 2000b68:	e0bfff17 	ldw	r2,-4(fp)
 2000b6c:	d8800215 	stw	r2,8(sp)
 2000b70:	01000044 	movi	r4,1
 2000b74:	01400044 	movi	r5,1
 2000b78:	01804034 	movhi	r6,256
 2000b7c:	31bfffc4 	addi	r6,r6,-1
 2000b80:	000f883a 	mov	r7,zero
 2000b84:	20048380 	call	2004838 <vid_print_string_alpha>
}
 2000b88:	e037883a 	mov	sp,fp
 2000b8c:	dfc00117 	ldw	ra,4(sp)
 2000b90:	df000017 	ldw	fp,0(sp)
 2000b94:	dec00204 	addi	sp,sp,8
 2000b98:	f800283a 	ret

02000b9c <VPG_XLine>:


void VPG_XLine(alt_video_display *pDisplay){
 2000b9c:	defffe04 	addi	sp,sp,-8
 2000ba0:	df000115 	stw	fp,4(sp)
 2000ba4:	df000104 	addi	fp,sp,4
 2000ba8:	e13fff15 	stw	r4,-4(fp)
return ;
 2000bac:	0001883a 	nop

    // show text
    ShowInfo(pDisplay, "X Line");


}
 2000bb0:	e037883a 	mov	sp,fp
 2000bb4:	df000017 	ldw	fp,0(sp)
 2000bb8:	dec00104 	addi	sp,sp,4
 2000bbc:	f800283a 	ret

02000bc0 <VPG_ColorPanel>:


void VPG_ColorPanel(alt_video_display *pDisplay, alt_u32 Color){
 2000bc0:	defff204 	addi	sp,sp,-56
 2000bc4:	dfc00d15 	stw	ra,52(sp)
 2000bc8:	df000c15 	stw	fp,48(sp)
 2000bcc:	df000c04 	addi	fp,sp,48
 2000bd0:	e13ffe15 	stw	r4,-8(fp)
 2000bd4:	e17fff15 	stw	r5,-4(fp)
    int x, y;
    char szText[32];

    for(y=0;y<pDisplay->height;y++){
 2000bd8:	e03ff515 	stw	zero,-44(fp)
 2000bdc:	00001106 	br	2000c24 <VPG_ColorPanel+0x64>
        for(x=0;x<pDisplay->width;x++){
 2000be0:	e03ff415 	stw	zero,-48(fp)
 2000be4:	00000806 	br	2000c08 <VPG_ColorPanel+0x48>
        	vid_set_pixel(x,y,Color, pDisplay);
 2000be8:	e13ff417 	ldw	r4,-48(fp)
 2000bec:	e17ff517 	ldw	r5,-44(fp)
 2000bf0:	e1bfff17 	ldw	r6,-4(fp)
 2000bf4:	e1fffe17 	ldw	r7,-8(fp)
 2000bf8:	2002c640 	call	2002c64 <vid_set_pixel>
void VPG_ColorPanel(alt_video_display *pDisplay, alt_u32 Color){
    int x, y;
    char szText[32];

    for(y=0;y<pDisplay->height;y++){
        for(x=0;x<pDisplay->width;x++){
 2000bfc:	e0bff417 	ldw	r2,-48(fp)
 2000c00:	10800044 	addi	r2,r2,1
 2000c04:	e0bff415 	stw	r2,-48(fp)
 2000c08:	e0bffe17 	ldw	r2,-8(fp)
 2000c0c:	10800117 	ldw	r2,4(r2)
 2000c10:	e0fff417 	ldw	r3,-48(fp)
 2000c14:	18bff416 	blt	r3,r2,2000be8 <__alt_mem_pic_mem+0xfdffcbe8>

void VPG_ColorPanel(alt_video_display *pDisplay, alt_u32 Color){
    int x, y;
    char szText[32];

    for(y=0;y<pDisplay->height;y++){
 2000c18:	e0bff517 	ldw	r2,-44(fp)
 2000c1c:	10800044 	addi	r2,r2,1
 2000c20:	e0bff515 	stw	r2,-44(fp)
 2000c24:	e0bffe17 	ldw	r2,-8(fp)
 2000c28:	10800217 	ldw	r2,8(r2)
 2000c2c:	e0fff517 	ldw	r3,-44(fp)
 2000c30:	18bfeb16 	blt	r3,r2,2000be0 <__alt_mem_pic_mem+0xfdffcbe0>
        	vid_set_pixel(x,y,Color, pDisplay);
        }
    }

    // show text
    sprintf(szText,"Panel: %08xh", (unsigned int) Color);
 2000c34:	e0bff604 	addi	r2,fp,-40
 2000c38:	1009883a 	mov	r4,r2
 2000c3c:	01408074 	movhi	r5,513
 2000c40:	296fa904 	addi	r5,r5,-16732
 2000c44:	e1bfff17 	ldw	r6,-4(fp)
 2000c48:	2008fd80 	call	2008fd8 <sprintf>
    ShowInfo(pDisplay, szText);
 2000c4c:	e0bff604 	addi	r2,fp,-40
 2000c50:	e13ffe17 	ldw	r4,-8(fp)
 2000c54:	100b883a 	mov	r5,r2
 2000c58:	2000b3c0 	call	2000b3c <ShowInfo>



}
 2000c5c:	e037883a 	mov	sp,fp
 2000c60:	dfc00117 	ldw	ra,4(sp)
 2000c64:	df000017 	ldw	fp,0(sp)
 2000c68:	dec00204 	addi	sp,sp,8
 2000c6c:	f800283a 	ret

02000c70 <VPG_Grid>:

void VPG_Grid(alt_video_display *pDisplay, alt_u8 GridSize){
 2000c70:	defff104 	addi	sp,sp,-60
 2000c74:	dfc00e15 	stw	ra,56(sp)
 2000c78:	df000d15 	stw	fp,52(sp)
 2000c7c:	df000d04 	addi	fp,sp,52
 2000c80:	e13ffe15 	stw	r4,-8(fp)
 2000c84:	2805883a 	mov	r2,r5
 2000c88:	e0bfff05 	stb	r2,-4(fp)
    int x,y;
    alt_u32 Value32;
    char szText[32];


    for(y=0;y<pDisplay->height;y++){
 2000c8c:	e03ff415 	stw	zero,-48(fp)
 2000c90:	00002206 	br	2000d1c <VPG_Grid+0xac>
        for(x=0;x<pDisplay->width;x++){
 2000c94:	e03ff315 	stw	zero,-52(fp)
 2000c98:	00001906 	br	2000d00 <VPG_Grid+0x90>
            if (x%GridSize == 0 || y%GridSize == 0)
 2000c9c:	e0bfff03 	ldbu	r2,-4(fp)
 2000ca0:	e0fff317 	ldw	r3,-52(fp)
 2000ca4:	1809883a 	mov	r4,r3
 2000ca8:	100b883a 	mov	r5,r2
 2000cac:	20062a00 	call	20062a0 <__modsi3>
 2000cb0:	10000626 	beq	r2,zero,2000ccc <VPG_Grid+0x5c>
 2000cb4:	e0bfff03 	ldbu	r2,-4(fp)
 2000cb8:	e0fff417 	ldw	r3,-48(fp)
 2000cbc:	1809883a 	mov	r4,r3
 2000cc0:	100b883a 	mov	r5,r2
 2000cc4:	20062a00 	call	20062a0 <__modsi3>
 2000cc8:	1000041e 	bne	r2,zero,2000cdc <VPG_Grid+0x6c>
                Value32 = WHITE_24;
 2000ccc:	00804034 	movhi	r2,256
 2000cd0:	10bfffc4 	addi	r2,r2,-1
 2000cd4:	e0bff515 	stw	r2,-44(fp)
 2000cd8:	00000106 	br	2000ce0 <VPG_Grid+0x70>
            else
                Value32 = BLACK_24;
 2000cdc:	e03ff515 	stw	zero,-44(fp)
            vid_set_pixel(x,y,Value32, pDisplay);
 2000ce0:	e13ff317 	ldw	r4,-52(fp)
 2000ce4:	e17ff417 	ldw	r5,-48(fp)
 2000ce8:	e1bff517 	ldw	r6,-44(fp)
 2000cec:	e1fffe17 	ldw	r7,-8(fp)
 2000cf0:	2002c640 	call	2002c64 <vid_set_pixel>
    alt_u32 Value32;
    char szText[32];


    for(y=0;y<pDisplay->height;y++){
        for(x=0;x<pDisplay->width;x++){
 2000cf4:	e0bff317 	ldw	r2,-52(fp)
 2000cf8:	10800044 	addi	r2,r2,1
 2000cfc:	e0bff315 	stw	r2,-52(fp)
 2000d00:	e0bffe17 	ldw	r2,-8(fp)
 2000d04:	10800117 	ldw	r2,4(r2)
 2000d08:	e0fff317 	ldw	r3,-52(fp)
 2000d0c:	18bfe316 	blt	r3,r2,2000c9c <__alt_mem_pic_mem+0xfdffcc9c>
    int x,y;
    alt_u32 Value32;
    char szText[32];


    for(y=0;y<pDisplay->height;y++){
 2000d10:	e0bff417 	ldw	r2,-48(fp)
 2000d14:	10800044 	addi	r2,r2,1
 2000d18:	e0bff415 	stw	r2,-48(fp)
 2000d1c:	e0bffe17 	ldw	r2,-8(fp)
 2000d20:	10800217 	ldw	r2,8(r2)
 2000d24:	e0fff417 	ldw	r3,-48(fp)
 2000d28:	18bfda16 	blt	r3,r2,2000c94 <__alt_mem_pic_mem+0xfdffcc94>
            vid_set_pixel(x,y,Value32, pDisplay);
        }

    }
    // show text
    sprintf(szText,"Grid%d", GridSize);
 2000d2c:	e0bfff03 	ldbu	r2,-4(fp)
 2000d30:	e0fff604 	addi	r3,fp,-40
 2000d34:	1809883a 	mov	r4,r3
 2000d38:	01408074 	movhi	r5,513
 2000d3c:	296fad04 	addi	r5,r5,-16716
 2000d40:	100d883a 	mov	r6,r2
 2000d44:	2008fd80 	call	2008fd8 <sprintf>
    ShowInfo(pDisplay, szText);
 2000d48:	e0bff604 	addi	r2,fp,-40
 2000d4c:	e13ffe17 	ldw	r4,-8(fp)
 2000d50:	100b883a 	mov	r5,r2
 2000d54:	2000b3c0 	call	2000b3c <ShowInfo>

}
 2000d58:	e037883a 	mov	sp,fp
 2000d5c:	dfc00117 	ldw	ra,4(sp)
 2000d60:	df000017 	ldw	fp,0(sp)
 2000d64:	dec00204 	addi	sp,sp,8
 2000d68:	f800283a 	ret

02000d6c <VPG_VGrid>:

void VPG_VGrid(alt_video_display *pDisplay, alt_u8 GridSize){
 2000d6c:	defff104 	addi	sp,sp,-60
 2000d70:	dfc00e15 	stw	ra,56(sp)
 2000d74:	df000d15 	stw	fp,52(sp)
 2000d78:	df000d04 	addi	fp,sp,52
 2000d7c:	e13ffe15 	stw	r4,-8(fp)
 2000d80:	2805883a 	mov	r2,r5
 2000d84:	e0bfff05 	stb	r2,-4(fp)
    int x,y;
    alt_u32 Value32;
    char szText[32];


    for(y=0;y<pDisplay->height;y++){
 2000d88:	e03ff415 	stw	zero,-48(fp)
 2000d8c:	00001c06 	br	2000e00 <VPG_VGrid+0x94>
        for(x=0;x<pDisplay->width;x++){
 2000d90:	e03ff315 	stw	zero,-52(fp)
 2000d94:	00001306 	br	2000de4 <VPG_VGrid+0x78>
            if (x%GridSize == 0)
 2000d98:	e0bfff03 	ldbu	r2,-4(fp)
 2000d9c:	e0fff317 	ldw	r3,-52(fp)
 2000da0:	1809883a 	mov	r4,r3
 2000da4:	100b883a 	mov	r5,r2
 2000da8:	20062a00 	call	20062a0 <__modsi3>
 2000dac:	1000041e 	bne	r2,zero,2000dc0 <VPG_VGrid+0x54>
                Value32 = WHITE_24;
 2000db0:	00804034 	movhi	r2,256
 2000db4:	10bfffc4 	addi	r2,r2,-1
 2000db8:	e0bff515 	stw	r2,-44(fp)
 2000dbc:	00000106 	br	2000dc4 <VPG_VGrid+0x58>
            else
                Value32 = BLACK_24;
 2000dc0:	e03ff515 	stw	zero,-44(fp)
            vid_set_pixel(x,y,Value32, pDisplay);
 2000dc4:	e13ff317 	ldw	r4,-52(fp)
 2000dc8:	e17ff417 	ldw	r5,-48(fp)
 2000dcc:	e1bff517 	ldw	r6,-44(fp)
 2000dd0:	e1fffe17 	ldw	r7,-8(fp)
 2000dd4:	2002c640 	call	2002c64 <vid_set_pixel>
    alt_u32 Value32;
    char szText[32];


    for(y=0;y<pDisplay->height;y++){
        for(x=0;x<pDisplay->width;x++){
 2000dd8:	e0bff317 	ldw	r2,-52(fp)
 2000ddc:	10800044 	addi	r2,r2,1
 2000de0:	e0bff315 	stw	r2,-52(fp)
 2000de4:	e0bffe17 	ldw	r2,-8(fp)
 2000de8:	10800117 	ldw	r2,4(r2)
 2000dec:	e0fff317 	ldw	r3,-52(fp)
 2000df0:	18bfe916 	blt	r3,r2,2000d98 <__alt_mem_pic_mem+0xfdffcd98>
    int x,y;
    alt_u32 Value32;
    char szText[32];


    for(y=0;y<pDisplay->height;y++){
 2000df4:	e0bff417 	ldw	r2,-48(fp)
 2000df8:	10800044 	addi	r2,r2,1
 2000dfc:	e0bff415 	stw	r2,-48(fp)
 2000e00:	e0bffe17 	ldw	r2,-8(fp)
 2000e04:	10800217 	ldw	r2,8(r2)
 2000e08:	e0fff417 	ldw	r3,-48(fp)
 2000e0c:	18bfe016 	blt	r3,r2,2000d90 <__alt_mem_pic_mem+0xfdffcd90>
            vid_set_pixel(x,y,Value32, pDisplay);
        }

    }
    // show text
    sprintf(szText,"VGrid%d", GridSize);
 2000e10:	e0bfff03 	ldbu	r2,-4(fp)
 2000e14:	e0fff604 	addi	r3,fp,-40
 2000e18:	1809883a 	mov	r4,r3
 2000e1c:	01408074 	movhi	r5,513
 2000e20:	296faf04 	addi	r5,r5,-16708
 2000e24:	100d883a 	mov	r6,r2
 2000e28:	2008fd80 	call	2008fd8 <sprintf>
    ShowInfo(pDisplay, szText);
 2000e2c:	e0bff604 	addi	r2,fp,-40
 2000e30:	e13ffe17 	ldw	r4,-8(fp)
 2000e34:	100b883a 	mov	r5,r2
 2000e38:	2000b3c0 	call	2000b3c <ShowInfo>

}
 2000e3c:	e037883a 	mov	sp,fp
 2000e40:	dfc00117 	ldw	ra,4(sp)
 2000e44:	df000017 	ldw	fp,0(sp)
 2000e48:	dec00204 	addi	sp,sp,8
 2000e4c:	f800283a 	ret

02000e50 <VPG_HGrid>:

void VPG_HGrid(alt_video_display *pDisplay, alt_u8 GridSize){
 2000e50:	defff104 	addi	sp,sp,-60
 2000e54:	dfc00e15 	stw	ra,56(sp)
 2000e58:	df000d15 	stw	fp,52(sp)
 2000e5c:	df000d04 	addi	fp,sp,52
 2000e60:	e13ffe15 	stw	r4,-8(fp)
 2000e64:	2805883a 	mov	r2,r5
 2000e68:	e0bfff05 	stb	r2,-4(fp)
    int x,y;
    alt_u32 Value32;
    char szText[32];

    for(y=0;y<pDisplay->height;y++){
 2000e6c:	e03ff415 	stw	zero,-48(fp)
 2000e70:	00001c06 	br	2000ee4 <VPG_HGrid+0x94>
        for(x=0;x<pDisplay->width;x++){
 2000e74:	e03ff315 	stw	zero,-52(fp)
 2000e78:	00001306 	br	2000ec8 <VPG_HGrid+0x78>
            if (y%GridSize == 0)
 2000e7c:	e0bfff03 	ldbu	r2,-4(fp)
 2000e80:	e0fff417 	ldw	r3,-48(fp)
 2000e84:	1809883a 	mov	r4,r3
 2000e88:	100b883a 	mov	r5,r2
 2000e8c:	20062a00 	call	20062a0 <__modsi3>
 2000e90:	1000041e 	bne	r2,zero,2000ea4 <VPG_HGrid+0x54>
                Value32 = WHITE_24;
 2000e94:	00804034 	movhi	r2,256
 2000e98:	10bfffc4 	addi	r2,r2,-1
 2000e9c:	e0bff515 	stw	r2,-44(fp)
 2000ea0:	00000106 	br	2000ea8 <VPG_HGrid+0x58>
            else
                Value32 = BLACK_24;
 2000ea4:	e03ff515 	stw	zero,-44(fp)
            vid_set_pixel(x,y,Value32, pDisplay);
 2000ea8:	e13ff317 	ldw	r4,-52(fp)
 2000eac:	e17ff417 	ldw	r5,-48(fp)
 2000eb0:	e1bff517 	ldw	r6,-44(fp)
 2000eb4:	e1fffe17 	ldw	r7,-8(fp)
 2000eb8:	2002c640 	call	2002c64 <vid_set_pixel>
    int x,y;
    alt_u32 Value32;
    char szText[32];

    for(y=0;y<pDisplay->height;y++){
        for(x=0;x<pDisplay->width;x++){
 2000ebc:	e0bff317 	ldw	r2,-52(fp)
 2000ec0:	10800044 	addi	r2,r2,1
 2000ec4:	e0bff315 	stw	r2,-52(fp)
 2000ec8:	e0bffe17 	ldw	r2,-8(fp)
 2000ecc:	10800117 	ldw	r2,4(r2)
 2000ed0:	e0fff317 	ldw	r3,-52(fp)
 2000ed4:	18bfe916 	blt	r3,r2,2000e7c <__alt_mem_pic_mem+0xfdffce7c>
void VPG_HGrid(alt_video_display *pDisplay, alt_u8 GridSize){
    int x,y;
    alt_u32 Value32;
    char szText[32];

    for(y=0;y<pDisplay->height;y++){
 2000ed8:	e0bff417 	ldw	r2,-48(fp)
 2000edc:	10800044 	addi	r2,r2,1
 2000ee0:	e0bff415 	stw	r2,-48(fp)
 2000ee4:	e0bffe17 	ldw	r2,-8(fp)
 2000ee8:	10800217 	ldw	r2,8(r2)
 2000eec:	e0fff417 	ldw	r3,-48(fp)
 2000ef0:	18bfe016 	blt	r3,r2,2000e74 <__alt_mem_pic_mem+0xfdffce74>
            vid_set_pixel(x,y,Value32, pDisplay);
        }

    }
    // show text
    sprintf(szText,"HGrid%d", GridSize);
 2000ef4:	e0bfff03 	ldbu	r2,-4(fp)
 2000ef8:	e0fff604 	addi	r3,fp,-40
 2000efc:	1809883a 	mov	r4,r3
 2000f00:	01408074 	movhi	r5,513
 2000f04:	296fb104 	addi	r5,r5,-16700
 2000f08:	100d883a 	mov	r6,r2
 2000f0c:	2008fd80 	call	2008fd8 <sprintf>
    ShowInfo(pDisplay, szText);
 2000f10:	e0bff604 	addi	r2,fp,-40
 2000f14:	e13ffe17 	ldw	r4,-8(fp)
 2000f18:	100b883a 	mov	r5,r2
 2000f1c:	2000b3c0 	call	2000b3c <ShowInfo>

}
 2000f20:	e037883a 	mov	sp,fp
 2000f24:	dfc00117 	ldw	ra,4(sp)
 2000f28:	df000017 	ldw	fp,0(sp)
 2000f2c:	dec00204 	addi	sp,sp,8
 2000f30:	f800283a 	ret

02000f34 <VPG_ColorBar>:




void VPG_ColorBar(alt_video_display *pDisplay){
 2000f34:	defffa04 	addi	sp,sp,-24
 2000f38:	dfc00515 	stw	ra,20(sp)
 2000f3c:	df000415 	stw	fp,16(sp)
 2000f40:	df000404 	addi	fp,sp,16
 2000f44:	e13fff15 	stw	r4,-4(fp)
    int x,y;
    alt_u32 Value32;

    for(y=0;y<pDisplay->height;y++){
 2000f48:	e03ffd15 	stw	zero,-12(fp)
 2000f4c:	00005c06 	br	20010c0 <VPG_ColorBar+0x18c>
        for(x=0;x<pDisplay->width;x++){
 2000f50:	e03ffc15 	stw	zero,-16(fp)
 2000f54:	00005306 	br	20010a4 <VPG_ColorBar+0x170>
            if (x == 0 || y == 0 || x == pDisplay->width-1 || y == pDisplay->height-1){
 2000f58:	e0bffc17 	ldw	r2,-16(fp)
 2000f5c:	10000c26 	beq	r2,zero,2000f90 <VPG_ColorBar+0x5c>
 2000f60:	e0bffd17 	ldw	r2,-12(fp)
 2000f64:	10000a26 	beq	r2,zero,2000f90 <VPG_ColorBar+0x5c>
 2000f68:	e0bfff17 	ldw	r2,-4(fp)
 2000f6c:	10800117 	ldw	r2,4(r2)
 2000f70:	10ffffc4 	addi	r3,r2,-1
 2000f74:	e0bffc17 	ldw	r2,-16(fp)
 2000f78:	18800526 	beq	r3,r2,2000f90 <VPG_ColorBar+0x5c>
 2000f7c:	e0bfff17 	ldw	r2,-4(fp)
 2000f80:	10800217 	ldw	r2,8(r2)
 2000f84:	10ffffc4 	addi	r3,r2,-1
 2000f88:	e0bffd17 	ldw	r2,-12(fp)
 2000f8c:	1880041e 	bne	r3,r2,2000fa0 <VPG_ColorBar+0x6c>
                Value32 = WHITE_24;
 2000f90:	00804034 	movhi	r2,256
 2000f94:	10bfffc4 	addi	r2,r2,-1
 2000f98:	e0bffe15 	stw	r2,-8(fp)
 2000f9c:	00003906 	br	2001084 <VPG_ColorBar+0x150>
            }else if (y < pDisplay->height/4){
 2000fa0:	e0bfff17 	ldw	r2,-4(fp)
 2000fa4:	10800217 	ldw	r2,8(r2)
 2000fa8:	1000010e 	bge	r2,zero,2000fb0 <VPG_ColorBar+0x7c>
 2000fac:	108000c4 	addi	r2,r2,3
 2000fb0:	1005d0ba 	srai	r2,r2,2
 2000fb4:	1007883a 	mov	r3,r2
 2000fb8:	e0bffd17 	ldw	r2,-12(fp)
 2000fbc:	10c0040e 	bge	r2,r3,2000fd0 <VPG_ColorBar+0x9c>
                // red
                Value32 = x & 0xFF;
 2000fc0:	e0bffc17 	ldw	r2,-16(fp)
 2000fc4:	10803fcc 	andi	r2,r2,255
 2000fc8:	e0bffe15 	stw	r2,-8(fp)
 2000fcc:	00002d06 	br	2001084 <VPG_ColorBar+0x150>
            }else if (y < pDisplay->height/2){
 2000fd0:	e0bfff17 	ldw	r2,-4(fp)
 2000fd4:	10800217 	ldw	r2,8(r2)
 2000fd8:	1006d7fa 	srli	r3,r2,31
 2000fdc:	1885883a 	add	r2,r3,r2
 2000fe0:	1005d07a 	srai	r2,r2,1
 2000fe4:	1007883a 	mov	r3,r2
 2000fe8:	e0bffd17 	ldw	r2,-12(fp)
 2000fec:	10c0050e 	bge	r2,r3,2001004 <VPG_ColorBar+0xd0>
                Value32 = (x & 0xFF) << 8;
 2000ff0:	e0bffc17 	ldw	r2,-16(fp)
 2000ff4:	1004923a 	slli	r2,r2,8
 2000ff8:	10bfffcc 	andi	r2,r2,65535
 2000ffc:	e0bffe15 	stw	r2,-8(fp)
 2001000:	00002006 	br	2001084 <VPG_ColorBar+0x150>
            }else if (y < pDisplay->height*3/4){
 2001004:	e0bfff17 	ldw	r2,-4(fp)
 2001008:	10c00217 	ldw	r3,8(r2)
 200100c:	1805883a 	mov	r2,r3
 2001010:	1085883a 	add	r2,r2,r2
 2001014:	10c5883a 	add	r2,r2,r3
 2001018:	1000010e 	bge	r2,zero,2001020 <VPG_ColorBar+0xec>
 200101c:	108000c4 	addi	r2,r2,3
 2001020:	1005d0ba 	srai	r2,r2,2
 2001024:	1007883a 	mov	r3,r2
 2001028:	e0bffd17 	ldw	r2,-12(fp)
 200102c:	10c0050e 	bge	r2,r3,2001044 <VPG_ColorBar+0x110>
                Value32 = (x & 0xFF) << 16;
 2001030:	e0bffc17 	ldw	r2,-16(fp)
 2001034:	10803fcc 	andi	r2,r2,255
 2001038:	1004943a 	slli	r2,r2,16
 200103c:	e0bffe15 	stw	r2,-8(fp)
 2001040:	00001006 	br	2001084 <VPG_ColorBar+0x150>
            }else{
                Value32 = x & 0xFF;
 2001044:	e0bffc17 	ldw	r2,-16(fp)
 2001048:	10803fcc 	andi	r2,r2,255
 200104c:	e0bffe15 	stw	r2,-8(fp)
                Value32 |= (x & 0xFF) << 8;
 2001050:	e0bffc17 	ldw	r2,-16(fp)
 2001054:	1004923a 	slli	r2,r2,8
 2001058:	10bfffcc 	andi	r2,r2,65535
 200105c:	e0fffe17 	ldw	r3,-8(fp)
 2001060:	1884b03a 	or	r2,r3,r2
 2001064:	e0bffe15 	stw	r2,-8(fp)
                Value32 |= (x & 0xFF) << 16;
 2001068:	e0bffc17 	ldw	r2,-16(fp)
 200106c:	10803fcc 	andi	r2,r2,255
 2001070:	1004943a 	slli	r2,r2,16
 2001074:	1007883a 	mov	r3,r2
 2001078:	e0bffe17 	ldw	r2,-8(fp)
 200107c:	10c4b03a 	or	r2,r2,r3
 2001080:	e0bffe15 	stw	r2,-8(fp)
            }
            vid_set_pixel(x,y,Value32, pDisplay);
 2001084:	e13ffc17 	ldw	r4,-16(fp)
 2001088:	e17ffd17 	ldw	r5,-12(fp)
 200108c:	e1bffe17 	ldw	r6,-8(fp)
 2001090:	e1ffff17 	ldw	r7,-4(fp)
 2001094:	2002c640 	call	2002c64 <vid_set_pixel>
void VPG_ColorBar(alt_video_display *pDisplay){
    int x,y;
    alt_u32 Value32;

    for(y=0;y<pDisplay->height;y++){
        for(x=0;x<pDisplay->width;x++){
 2001098:	e0bffc17 	ldw	r2,-16(fp)
 200109c:	10800044 	addi	r2,r2,1
 20010a0:	e0bffc15 	stw	r2,-16(fp)
 20010a4:	e0bfff17 	ldw	r2,-4(fp)
 20010a8:	10800117 	ldw	r2,4(r2)
 20010ac:	e0fffc17 	ldw	r3,-16(fp)
 20010b0:	18bfa916 	blt	r3,r2,2000f58 <__alt_mem_pic_mem+0xfdffcf58>

void VPG_ColorBar(alt_video_display *pDisplay){
    int x,y;
    alt_u32 Value32;

    for(y=0;y<pDisplay->height;y++){
 20010b4:	e0bffd17 	ldw	r2,-12(fp)
 20010b8:	10800044 	addi	r2,r2,1
 20010bc:	e0bffd15 	stw	r2,-12(fp)
 20010c0:	e0bfff17 	ldw	r2,-4(fp)
 20010c4:	10800217 	ldw	r2,8(r2)
 20010c8:	e0fffd17 	ldw	r3,-12(fp)
 20010cc:	18bfa016 	blt	r3,r2,2000f50 <__alt_mem_pic_mem+0xfdffcf50>

        }

    }

}
 20010d0:	e037883a 	mov	sp,fp
 20010d4:	dfc00117 	ldw	ra,4(sp)
 20010d8:	df000017 	ldw	fp,0(sp)
 20010dc:	dec00204 	addi	sp,sp,8
 20010e0:	f800283a 	ret

020010e4 <GUI_ShowPAT>:


void GUI_ShowPAT(alt_video_display *pDisplay, int PatId){
 20010e4:	defffc04 	addi	sp,sp,-16
 20010e8:	dfc00315 	stw	ra,12(sp)
 20010ec:	df000215 	stw	fp,8(sp)
 20010f0:	df000204 	addi	fp,sp,8
 20010f4:	e13ffe15 	stw	r4,-8(fp)
 20010f8:	e17fff15 	stw	r5,-4(fp)

                switch(PatId){
 20010fc:	e0bfff17 	ldw	r2,-4(fp)
 2001100:	108003e8 	cmpgeui	r2,r2,15
 2001104:	1000511e 	bne	r2,zero,200124c <GUI_ShowPAT+0x168>
 2001108:	e0bfff17 	ldw	r2,-4(fp)
 200110c:	100690ba 	slli	r3,r2,2
 2001110:	00808034 	movhi	r2,512
 2001114:	10844904 	addi	r2,r2,4388
 2001118:	1885883a 	add	r2,r3,r2
 200111c:	10800017 	ldw	r2,0(r2)
 2001120:	1000683a 	jmp	r2
 2001124:	02001160 	cmpeqi	r8,zero,69
 2001128:	0200116c 	andhi	r8,zero,69
 200112c:	02001180 	call	200118 <__reset-0x1dffee8>
 2001130:	02001190 	cmplti	r8,zero,70
 2001134:	020011a0 	cmpeqi	r8,zero,70
 2001138:	020011b0 	cmpltui	r8,zero,70
 200113c:	020011bc 	xorhi	r8,zero,70
 2001140:	020011cc 	andi	r8,zero,71
 2001144:	020011dc 	xori	r8,zero,71
 2001148:	020011ec 	andhi	r8,zero,71
 200114c:	020011fc 	xorhi	r8,zero,71
 2001150:	0200120c 	andi	r8,zero,72
 2001154:	0200121c 	xori	r8,zero,72
 2001158:	0200122c 	andhi	r8,zero,72
 200115c:	0200123c 	xorhi	r8,zero,72
                    case 0: VPG_ColorBar(pDisplay); break;
 2001160:	e13ffe17 	ldw	r4,-8(fp)
 2001164:	2000f340 	call	2000f34 <VPG_ColorBar>
 2001168:	00003806 	br	200124c <GUI_ShowPAT+0x168>
                    case 1: VPG_ColorPanel(pDisplay, WHITE_24); break;
 200116c:	e13ffe17 	ldw	r4,-8(fp)
 2001170:	01404034 	movhi	r5,256
 2001174:	297fffc4 	addi	r5,r5,-1
 2001178:	2000bc00 	call	2000bc0 <VPG_ColorPanel>
 200117c:	00003306 	br	200124c <GUI_ShowPAT+0x168>
                    case 2: VPG_ColorPanel(pDisplay, RED_24); break;
 2001180:	e13ffe17 	ldw	r4,-8(fp)
 2001184:	01403ff4 	movhi	r5,255
 2001188:	2000bc00 	call	2000bc0 <VPG_ColorPanel>
 200118c:	00002f06 	br	200124c <GUI_ShowPAT+0x168>
                    case 3: VPG_ColorPanel(pDisplay, GREEN_24); break;
 2001190:	e13ffe17 	ldw	r4,-8(fp)
 2001194:	01600014 	movui	r5,32768
 2001198:	2000bc00 	call	2000bc0 <VPG_ColorPanel>
 200119c:	00002b06 	br	200124c <GUI_ShowPAT+0x168>
                    case 4: VPG_ColorPanel(pDisplay, BLUE_24); break;
 20011a0:	e13ffe17 	ldw	r4,-8(fp)
 20011a4:	01403fc4 	movi	r5,255
 20011a8:	2000bc00 	call	2000bc0 <VPG_ColorPanel>
 20011ac:	00002706 	br	200124c <GUI_ShowPAT+0x168>
                    case 5: VPG_XLine(pDisplay); break;
 20011b0:	e13ffe17 	ldw	r4,-8(fp)
 20011b4:	2000b9c0 	call	2000b9c <VPG_XLine>
 20011b8:	00002406 	br	200124c <GUI_ShowPAT+0x168>
                    case 6: VPG_VGrid(pDisplay, 2); break;
 20011bc:	e13ffe17 	ldw	r4,-8(fp)
 20011c0:	01400084 	movi	r5,2
 20011c4:	2000d6c0 	call	2000d6c <VPG_VGrid>
 20011c8:	00002006 	br	200124c <GUI_ShowPAT+0x168>
                    case 7: VPG_VGrid(pDisplay, 4); break;
 20011cc:	e13ffe17 	ldw	r4,-8(fp)
 20011d0:	01400104 	movi	r5,4
 20011d4:	2000d6c0 	call	2000d6c <VPG_VGrid>
 20011d8:	00001c06 	br	200124c <GUI_ShowPAT+0x168>
                    case 8: VPG_VGrid(pDisplay, 8); break;
 20011dc:	e13ffe17 	ldw	r4,-8(fp)
 20011e0:	01400204 	movi	r5,8
 20011e4:	2000d6c0 	call	2000d6c <VPG_VGrid>
 20011e8:	00001806 	br	200124c <GUI_ShowPAT+0x168>
                    case 9: VPG_HGrid(pDisplay, 2); break;
 20011ec:	e13ffe17 	ldw	r4,-8(fp)
 20011f0:	01400084 	movi	r5,2
 20011f4:	2000e500 	call	2000e50 <VPG_HGrid>
 20011f8:	00001406 	br	200124c <GUI_ShowPAT+0x168>
                    case 10: VPG_HGrid(pDisplay, 4); break;
 20011fc:	e13ffe17 	ldw	r4,-8(fp)
 2001200:	01400104 	movi	r5,4
 2001204:	2000e500 	call	2000e50 <VPG_HGrid>
 2001208:	00001006 	br	200124c <GUI_ShowPAT+0x168>
                    case 11: VPG_HGrid(pDisplay, 8); break;
 200120c:	e13ffe17 	ldw	r4,-8(fp)
 2001210:	01400204 	movi	r5,8
 2001214:	2000e500 	call	2000e50 <VPG_HGrid>
 2001218:	00000c06 	br	200124c <GUI_ShowPAT+0x168>
                    case 12: VPG_Grid(pDisplay, 2); break;
 200121c:	e13ffe17 	ldw	r4,-8(fp)
 2001220:	01400084 	movi	r5,2
 2001224:	2000c700 	call	2000c70 <VPG_Grid>
 2001228:	00000806 	br	200124c <GUI_ShowPAT+0x168>
                    case 13: VPG_Grid(pDisplay, 4); break;
 200122c:	e13ffe17 	ldw	r4,-8(fp)
 2001230:	01400104 	movi	r5,4
 2001234:	2000c700 	call	2000c70 <VPG_Grid>
 2001238:	00000406 	br	200124c <GUI_ShowPAT+0x168>
                    case 14: VPG_Grid(pDisplay, 8); break;
 200123c:	e13ffe17 	ldw	r4,-8(fp)
 2001240:	01400204 	movi	r5,8
 2001244:	2000c700 	call	2000c70 <VPG_Grid>
 2001248:	0001883a 	nop
                }

}
 200124c:	e037883a 	mov	sp,fp
 2001250:	dfc00117 	ldw	ra,4(sp)
 2001254:	df000017 	ldw	fp,0(sp)
 2001258:	dec00204 	addi	sp,sp,8
 200125c:	f800283a 	ret

02001260 <GUI_VPG>:

void GUI_VPG(alt_video_display *pDisplay, TOUCH_HANDLE *pTouch){
 2001260:	defff904 	addi	sp,sp,-28
 2001264:	dfc00615 	stw	ra,24(sp)
 2001268:	df000515 	stw	fp,20(sp)
 200126c:	df000504 	addi	fp,sp,20
 2001270:	e13ffe15 	stw	r4,-8(fp)
 2001274:	e17fff15 	stw	r5,-4(fp)
	int X, Y;
	int PatId = 0;
 2001278:	e03ffb15 	stw	zero,-20(fp)

    // clean screen
    vid_clean_screen(pDisplay, BLACK_24);
 200127c:	e13ffe17 	ldw	r4,-8(fp)
 2001280:	000b883a 	mov	r5,zero
 2001284:	20021e40 	call	20021e4 <vid_clean_screen>


    VPG_ColorBar(pDisplay);
 2001288:	e13ffe17 	ldw	r4,-8(fp)
 200128c:	2000f340 	call	2000f34 <VPG_ColorBar>

    GUI_ShowPAT(pDisplay, PatId);
 2001290:	e13ffe17 	ldw	r4,-8(fp)
 2001294:	e17ffb17 	ldw	r5,-20(fp)
 2001298:	20010e40 	call	20010e4 <GUI_ShowPAT>

    while(1){
        if (Touch_GetXY(pTouch, &X, &Y)){
 200129c:	e0fffc04 	addi	r3,fp,-16
 20012a0:	e0bffd04 	addi	r2,fp,-12
 20012a4:	e13fff17 	ldw	r4,-4(fp)
 20012a8:	180b883a 	mov	r5,r3
 20012ac:	100d883a 	mov	r6,r2
 20012b0:	200557c0 	call	200557c <Touch_GetXY>
 20012b4:	10001326 	beq	r2,zero,2001304 <GUI_VPG+0xa4>
            //printf(".");

            // change pattern
            PatId++;
 20012b8:	e0bffb17 	ldw	r2,-20(fp)
 20012bc:	10800044 	addi	r2,r2,1
 20012c0:	e0bffb15 	stw	r2,-20(fp)
            if (PatId > 14)
 20012c4:	e0bffb17 	ldw	r2,-20(fp)
 20012c8:	108003d0 	cmplti	r2,r2,15
 20012cc:	1000011e 	bne	r2,zero,20012d4 <GUI_VPG+0x74>
                PatId = 0;
 20012d0:	e03ffb15 	stw	zero,-20(fp)

            printf("PatId=%d\r\n", PatId);
 20012d4:	01008074 	movhi	r4,513
 20012d8:	212fb304 	addi	r4,r4,-16692
 20012dc:	e17ffb17 	ldw	r5,-20(fp)
 20012e0:	2008e440 	call	2008e44 <printf>
            GUI_ShowPAT(pDisplay, PatId);
 20012e4:	e13ffe17 	ldw	r4,-8(fp)
 20012e8:	e17ffb17 	ldw	r5,-20(fp)
 20012ec:	20010e40 	call	20010e4 <GUI_ShowPAT>
            usleep(300*1000); // debounce
 20012f0:	01000174 	movhi	r4,5
 20012f4:	2124f804 	addi	r4,r4,-27680
 20012f8:	200a9d40 	call	200a9d4 <usleep>
            Touch_EmptyFifo( pTouch);
 20012fc:	e13fff17 	ldw	r4,-4(fp)
 2001300:	20055440 	call	2005544 <Touch_EmptyFifo>
        }
    }
 2001304:	003fe506 	br	200129c <__alt_mem_pic_mem+0xfdffd29c>

02001308 <Delay_Ms>:
When  D/CX=0,  D [17:0] bits are commands.
*/


void Delay_Ms(alt_u16 count_ms)
{
 2001308:	defffd04 	addi	sp,sp,-12
 200130c:	dfc00215 	stw	ra,8(sp)
 2001310:	df000115 	stw	fp,4(sp)
 2001314:	df000104 	addi	fp,sp,4
 2001318:	2005883a 	mov	r2,r4
 200131c:	e0bfff0d 	sth	r2,-4(fp)
    while(count_ms--)
 2001320:	00000206 	br	200132c <Delay_Ms+0x24>
    {
        usleep(1000);
 2001324:	0100fa04 	movi	r4,1000
 2001328:	200a9d40 	call	200a9d4 <usleep>
*/


void Delay_Ms(alt_u16 count_ms)
{
    while(count_ms--)
 200132c:	e0bfff0b 	ldhu	r2,-4(fp)
 2001330:	10ffffc4 	addi	r3,r2,-1
 2001334:	e0ffff0d 	sth	r3,-4(fp)
 2001338:	10bfffcc 	andi	r2,r2,65535
 200133c:	103ff91e 	bne	r2,zero,2001324 <__alt_mem_pic_mem+0xfdffd324>
    {
        usleep(1000);
    }
}
 2001340:	e037883a 	mov	sp,fp
 2001344:	dfc00117 	ldw	ra,4(sp)
 2001348:	df000017 	ldw	fp,0(sp)
 200134c:	dec00204 	addi	sp,sp,8
 2001350:	f800283a 	ret

02001354 <LCD_SetCursor>:

//-------------------------------------------------------------

void LCD_SetCursor(alt_u16 Xpos, alt_u16 Ypos)
{
 2001354:	defffd04 	addi	sp,sp,-12
 2001358:	df000215 	stw	fp,8(sp)
 200135c:	df000204 	addi	fp,sp,8
 2001360:	2007883a 	mov	r3,r4
 2001364:	2805883a 	mov	r2,r5
 2001368:	e0fffe0d 	sth	r3,-8(fp)
 200136c:	e0bfff0d 	sth	r2,-4(fp)
	 LCD_WR_REG(0x002A);
 2001370:	00c00a84 	movi	r3,42
 2001374:	00810034 	movhi	r2,1024
 2001378:	109e2804 	addi	r2,r2,30880
 200137c:	10c00035 	stwio	r3,0(r2)
		 LCD_WR_DATA(Xpos>>8);
 2001380:	e0bffe0b 	ldhu	r2,-8(fp)
 2001384:	1004d23a 	srli	r2,r2,8
 2001388:	10ffffcc 	andi	r3,r2,65535
 200138c:	00810034 	movhi	r2,1024
 2001390:	109e2904 	addi	r2,r2,30884
 2001394:	10c00035 	stwio	r3,0(r2)
		 LCD_WR_DATA(Xpos&0XFF);
 2001398:	e0bffe0b 	ldhu	r2,-8(fp)
 200139c:	10c03fcc 	andi	r3,r2,255
 20013a0:	00810034 	movhi	r2,1024
 20013a4:	109e2904 	addi	r2,r2,30884
 20013a8:	10c00035 	stwio	r3,0(r2)
	 LCD_WR_REG(0x002B);
 20013ac:	00c00ac4 	movi	r3,43
 20013b0:	00810034 	movhi	r2,1024
 20013b4:	109e2804 	addi	r2,r2,30880
 20013b8:	10c00035 	stwio	r3,0(r2)
		 LCD_WR_DATA(Ypos>>8);
 20013bc:	e0bfff0b 	ldhu	r2,-4(fp)
 20013c0:	1004d23a 	srli	r2,r2,8
 20013c4:	10ffffcc 	andi	r3,r2,65535
 20013c8:	00810034 	movhi	r2,1024
 20013cc:	109e2904 	addi	r2,r2,30884
 20013d0:	10c00035 	stwio	r3,0(r2)
		 LCD_WR_DATA(Ypos&0XFF);
 20013d4:	e0bfff0b 	ldhu	r2,-4(fp)
 20013d8:	10c03fcc 	andi	r3,r2,255
 20013dc:	00810034 	movhi	r2,1024
 20013e0:	109e2904 	addi	r2,r2,30884
 20013e4:	10c00035 	stwio	r3,0(r2)
	 LCD_WR_REG(0x002C);
 20013e8:	00c00b04 	movi	r3,44
 20013ec:	00810034 	movhi	r2,1024
 20013f0:	109e2804 	addi	r2,r2,30880
 20013f4:	10c00035 	stwio	r3,0(r2)
}
 20013f8:	e037883a 	mov	sp,fp
 20013fc:	df000017 	ldw	fp,0(sp)
 2001400:	dec00104 	addi	sp,sp,4
 2001404:	f800283a 	ret

02001408 <LCD_Clear>:

//-------------------------------------------------------------

void LCD_Clear(alt_u16 Color)
{
 2001408:	defffc04 	addi	sp,sp,-16
 200140c:	dfc00315 	stw	ra,12(sp)
 2001410:	df000215 	stw	fp,8(sp)
 2001414:	df000204 	addi	fp,sp,8
 2001418:	2005883a 	mov	r2,r4
 200141c:	e0bfff0d 	sth	r2,-4(fp)
        alt_u32 index=0;
 2001420:	e03ffe15 	stw	zero,-8(fp)
        LCD_SetCursor(0x00,0x0000);
 2001424:	0009883a 	mov	r4,zero
 2001428:	000b883a 	mov	r5,zero
 200142c:	20013540 	call	2001354 <LCD_SetCursor>
        LCD_WR_REG(0x002C);
 2001430:	00c00b04 	movi	r3,44
 2001434:	00810034 	movhi	r2,1024
 2001438:	109e2804 	addi	r2,r2,30880
 200143c:	10c00035 	stwio	r3,0(r2)
        for(index=0;index<76800;index++)
 2001440:	e03ffe15 	stw	zero,-8(fp)
 2001444:	00000706 	br	2001464 <LCD_Clear+0x5c>
        {
        	LCD_WR_DATA(Color);
 2001448:	e0ffff0b 	ldhu	r3,-4(fp)
 200144c:	00810034 	movhi	r2,1024
 2001450:	109e2904 	addi	r2,r2,30884
 2001454:	10c00035 	stwio	r3,0(r2)
void LCD_Clear(alt_u16 Color)
{
        alt_u32 index=0;
        LCD_SetCursor(0x00,0x0000);
        LCD_WR_REG(0x002C);
        for(index=0;index<76800;index++)
 2001458:	e0bffe17 	ldw	r2,-8(fp)
 200145c:	10800044 	addi	r2,r2,1
 2001460:	e0bffe15 	stw	r2,-8(fp)
 2001464:	e0fffe17 	ldw	r3,-8(fp)
 2001468:	00800074 	movhi	r2,1
 200146c:	108affc4 	addi	r2,r2,11263
 2001470:	10fff52e 	bgeu	r2,r3,2001448 <__alt_mem_pic_mem+0xfdffd448>
        {
        	LCD_WR_DATA(Color);
        }
}
 2001474:	e037883a 	mov	sp,fp
 2001478:	dfc00117 	ldw	ra,4(sp)
 200147c:	df000017 	ldw	fp,0(sp)
 2001480:	dec00204 	addi	sp,sp,8
 2001484:	f800283a 	ret

02001488 <LCD_DrawPoint>:

//-------------------------------------------------------------

void LCD_DrawPoint(alt_u16 x,alt_u16 y,alt_u16 color )
{
 2001488:	defffb04 	addi	sp,sp,-20
 200148c:	dfc00415 	stw	ra,16(sp)
 2001490:	df000315 	stw	fp,12(sp)
 2001494:	df000304 	addi	fp,sp,12
 2001498:	2807883a 	mov	r3,r5
 200149c:	3005883a 	mov	r2,r6
 20014a0:	e13ffd0d 	sth	r4,-12(fp)
 20014a4:	e0fffe0d 	sth	r3,-8(fp)
 20014a8:	e0bfff0d 	sth	r2,-4(fp)
        LCD_SetCursor(x,y);
 20014ac:	e0fffd0b 	ldhu	r3,-12(fp)
 20014b0:	e0bffe0b 	ldhu	r2,-8(fp)
 20014b4:	1809883a 	mov	r4,r3
 20014b8:	100b883a 	mov	r5,r2
 20014bc:	20013540 	call	2001354 <LCD_SetCursor>
        LCD_WR_REG(0x002C);
 20014c0:	00c00b04 	movi	r3,44
 20014c4:	00810034 	movhi	r2,1024
 20014c8:	109e2804 	addi	r2,r2,30880
 20014cc:	10c00035 	stwio	r3,0(r2)
        LCD_WR_DATA(color);
 20014d0:	e0ffff0b 	ldhu	r3,-4(fp)
 20014d4:	00810034 	movhi	r2,1024
 20014d8:	109e2904 	addi	r2,r2,30884
 20014dc:	10c00035 	stwio	r3,0(r2)
}
 20014e0:	e037883a 	mov	sp,fp
 20014e4:	dfc00117 	ldw	ra,4(sp)
 20014e8:	df000017 	ldw	fp,0(sp)
 20014ec:	dec00204 	addi	sp,sp,8
 20014f0:	f800283a 	ret

020014f4 <LCD_Init>:

//-------------------------------------------------------------

void LCD_Init()
{
 20014f4:	defffe04 	addi	sp,sp,-8
 20014f8:	dfc00115 	stw	ra,4(sp)
 20014fc:	df000015 	stw	fp,0(sp)
 2001500:	d839883a 	mov	fp,sp
	Set_LCD_RST;
 2001504:	00c00044 	movi	r3,1
 2001508:	00810034 	movhi	r2,1024
 200150c:	109e1c04 	addi	r2,r2,30832
 2001510:	10c00035 	stwio	r3,0(r2)
	Delay_Ms(1);
 2001514:	01000044 	movi	r4,1
 2001518:	20013080 	call	2001308 <Delay_Ms>
	Clr_LCD_RST;
 200151c:	0007883a 	mov	r3,zero
 2001520:	00810034 	movhi	r2,1024
 2001524:	109e1c04 	addi	r2,r2,30832
 2001528:	10c00035 	stwio	r3,0(r2)
	Delay_Ms(10);       // Delay 10ms // This delay time is necessary
 200152c:	01000284 	movi	r4,10
 2001530:	20013080 	call	2001308 <Delay_Ms>
	Set_LCD_RST;
 2001534:	00c00044 	movi	r3,1
 2001538:	00810034 	movhi	r2,1024
 200153c:	109e1c04 	addi	r2,r2,30832
 2001540:	10c00035 	stwio	r3,0(r2)
	Delay_Ms(120);       // Delay 120 ms
 2001544:	01001e04 	movi	r4,120
 2001548:	20013080 	call	2001308 <Delay_Ms>
//	Clr_LCD_CS;

	LCD_WR_REG(0x0011); //Exit Sleep
 200154c:	00c00444 	movi	r3,17
 2001550:	00810034 	movhi	r2,1024
 2001554:	109e2804 	addi	r2,r2,30880
 2001558:	10c00035 	stwio	r3,0(r2)
	LCD_WR_REG(0x00CF);
 200155c:	00c033c4 	movi	r3,207
 2001560:	00810034 	movhi	r2,1024
 2001564:	109e2804 	addi	r2,r2,30880
 2001568:	10c00035 	stwio	r3,0(r2)
		LCD_WR_DATA(0x0000);
 200156c:	0007883a 	mov	r3,zero
 2001570:	00810034 	movhi	r2,1024
 2001574:	109e2904 	addi	r2,r2,30884
 2001578:	10c00035 	stwio	r3,0(r2)
		LCD_WR_DATA(0x0081);
 200157c:	00c02044 	movi	r3,129
 2001580:	00810034 	movhi	r2,1024
 2001584:	109e2904 	addi	r2,r2,30884
 2001588:	10c00035 	stwio	r3,0(r2)
		LCD_WR_DATA(0X00c0);
 200158c:	00c03004 	movi	r3,192
 2001590:	00810034 	movhi	r2,1024
 2001594:	109e2904 	addi	r2,r2,30884
 2001598:	10c00035 	stwio	r3,0(r2)

	LCD_WR_REG(0x00ED);
 200159c:	00c03b44 	movi	r3,237
 20015a0:	00810034 	movhi	r2,1024
 20015a4:	109e2804 	addi	r2,r2,30880
 20015a8:	10c00035 	stwio	r3,0(r2)
		LCD_WR_DATA(0x0064);
 20015ac:	00c01904 	movi	r3,100
 20015b0:	00810034 	movhi	r2,1024
 20015b4:	109e2904 	addi	r2,r2,30884
 20015b8:	10c00035 	stwio	r3,0(r2)
		LCD_WR_DATA(0x0003);
 20015bc:	00c000c4 	movi	r3,3
 20015c0:	00810034 	movhi	r2,1024
 20015c4:	109e2904 	addi	r2,r2,30884
 20015c8:	10c00035 	stwio	r3,0(r2)
		LCD_WR_DATA(0X0012);
 20015cc:	00c00484 	movi	r3,18
 20015d0:	00810034 	movhi	r2,1024
 20015d4:	109e2904 	addi	r2,r2,30884
 20015d8:	10c00035 	stwio	r3,0(r2)
		LCD_WR_DATA(0X0081);
 20015dc:	00c02044 	movi	r3,129
 20015e0:	00810034 	movhi	r2,1024
 20015e4:	109e2904 	addi	r2,r2,30884
 20015e8:	10c00035 	stwio	r3,0(r2)

	LCD_WR_REG(0x00E8);
 20015ec:	00c03a04 	movi	r3,232
 20015f0:	00810034 	movhi	r2,1024
 20015f4:	109e2804 	addi	r2,r2,30880
 20015f8:	10c00035 	stwio	r3,0(r2)
		LCD_WR_DATA(0x0085);
 20015fc:	00c02144 	movi	r3,133
 2001600:	00810034 	movhi	r2,1024
 2001604:	109e2904 	addi	r2,r2,30884
 2001608:	10c00035 	stwio	r3,0(r2)
		LCD_WR_DATA(0x0001);
 200160c:	00c00044 	movi	r3,1
 2001610:	00810034 	movhi	r2,1024
 2001614:	109e2904 	addi	r2,r2,30884
 2001618:	10c00035 	stwio	r3,0(r2)
		LCD_WR_DATA(0x00798);
 200161c:	00c1e604 	movi	r3,1944
 2001620:	00810034 	movhi	r2,1024
 2001624:	109e2904 	addi	r2,r2,30884
 2001628:	10c00035 	stwio	r3,0(r2)

	LCD_WR_REG(0x00CB);
 200162c:	00c032c4 	movi	r3,203
 2001630:	00810034 	movhi	r2,1024
 2001634:	109e2804 	addi	r2,r2,30880
 2001638:	10c00035 	stwio	r3,0(r2)
		LCD_WR_DATA(0x0039);
 200163c:	00c00e44 	movi	r3,57
 2001640:	00810034 	movhi	r2,1024
 2001644:	109e2904 	addi	r2,r2,30884
 2001648:	10c00035 	stwio	r3,0(r2)
		LCD_WR_DATA(0x002C);
 200164c:	00c00b04 	movi	r3,44
 2001650:	00810034 	movhi	r2,1024
 2001654:	109e2904 	addi	r2,r2,30884
 2001658:	10c00035 	stwio	r3,0(r2)
		LCD_WR_DATA(0x0000);
 200165c:	0007883a 	mov	r3,zero
 2001660:	00810034 	movhi	r2,1024
 2001664:	109e2904 	addi	r2,r2,30884
 2001668:	10c00035 	stwio	r3,0(r2)
		LCD_WR_DATA(0x0034);
 200166c:	00c00d04 	movi	r3,52
 2001670:	00810034 	movhi	r2,1024
 2001674:	109e2904 	addi	r2,r2,30884
 2001678:	10c00035 	stwio	r3,0(r2)
		LCD_WR_DATA(0x0002);
 200167c:	00c00084 	movi	r3,2
 2001680:	00810034 	movhi	r2,1024
 2001684:	109e2904 	addi	r2,r2,30884
 2001688:	10c00035 	stwio	r3,0(r2)

	LCD_WR_REG(0x00F7);
 200168c:	00c03dc4 	movi	r3,247
 2001690:	00810034 	movhi	r2,1024
 2001694:	109e2804 	addi	r2,r2,30880
 2001698:	10c00035 	stwio	r3,0(r2)
		LCD_WR_DATA(0x0020);
 200169c:	00c00804 	movi	r3,32
 20016a0:	00810034 	movhi	r2,1024
 20016a4:	109e2904 	addi	r2,r2,30884
 20016a8:	10c00035 	stwio	r3,0(r2)

	LCD_WR_REG(0x00EA);
 20016ac:	00c03a84 	movi	r3,234
 20016b0:	00810034 	movhi	r2,1024
 20016b4:	109e2804 	addi	r2,r2,30880
 20016b8:	10c00035 	stwio	r3,0(r2)
		LCD_WR_DATA(0x0000);
 20016bc:	0007883a 	mov	r3,zero
 20016c0:	00810034 	movhi	r2,1024
 20016c4:	109e2904 	addi	r2,r2,30884
 20016c8:	10c00035 	stwio	r3,0(r2)
		LCD_WR_DATA(0x0000);
 20016cc:	0007883a 	mov	r3,zero
 20016d0:	00810034 	movhi	r2,1024
 20016d4:	109e2904 	addi	r2,r2,30884
 20016d8:	10c00035 	stwio	r3,0(r2)

	LCD_WR_REG(0x00B1);
 20016dc:	00c02c44 	movi	r3,177
 20016e0:	00810034 	movhi	r2,1024
 20016e4:	109e2804 	addi	r2,r2,30880
 20016e8:	10c00035 	stwio	r3,0(r2)
		LCD_WR_DATA(0x0000);
 20016ec:	0007883a 	mov	r3,zero
 20016f0:	00810034 	movhi	r2,1024
 20016f4:	109e2904 	addi	r2,r2,30884
 20016f8:	10c00035 	stwio	r3,0(r2)
		LCD_WR_DATA(0x001b);
 20016fc:	00c006c4 	movi	r3,27
 2001700:	00810034 	movhi	r2,1024
 2001704:	109e2904 	addi	r2,r2,30884
 2001708:	10c00035 	stwio	r3,0(r2)

	LCD_WR_REG(0x00B6);
 200170c:	00c02d84 	movi	r3,182
 2001710:	00810034 	movhi	r2,1024
 2001714:	109e2804 	addi	r2,r2,30880
 2001718:	10c00035 	stwio	r3,0(r2)
		LCD_WR_DATA(0x000A);
 200171c:	00c00284 	movi	r3,10
 2001720:	00810034 	movhi	r2,1024
 2001724:	109e2904 	addi	r2,r2,30884
 2001728:	10c00035 	stwio	r3,0(r2)
		LCD_WR_DATA(0x00A2);
 200172c:	00c02884 	movi	r3,162
 2001730:	00810034 	movhi	r2,1024
 2001734:	109e2904 	addi	r2,r2,30884
 2001738:	10c00035 	stwio	r3,0(r2)

	LCD_WR_REG(0x00C0);    //Power control
 200173c:	00c03004 	movi	r3,192
 2001740:	00810034 	movhi	r2,1024
 2001744:	109e2804 	addi	r2,r2,30880
 2001748:	10c00035 	stwio	r3,0(r2)
		LCD_WR_DATA(0x0005);   //VRH[5:0]
 200174c:	00c00144 	movi	r3,5
 2001750:	00810034 	movhi	r2,1024
 2001754:	109e2904 	addi	r2,r2,30884
 2001758:	10c00035 	stwio	r3,0(r2)

	LCD_WR_REG(0x00C1);    //Power control
 200175c:	00c03044 	movi	r3,193
 2001760:	00810034 	movhi	r2,1024
 2001764:	109e2804 	addi	r2,r2,30880
 2001768:	10c00035 	stwio	r3,0(r2)
		LCD_WR_DATA(0x0011);   //SAP[2:0];BT[3:0]
 200176c:	00c00444 	movi	r3,17
 2001770:	00810034 	movhi	r2,1024
 2001774:	109e2904 	addi	r2,r2,30884
 2001778:	10c00035 	stwio	r3,0(r2)

	LCD_WR_REG(0x00C5);    //VCM control
 200177c:	00c03144 	movi	r3,197
 2001780:	00810034 	movhi	r2,1024
 2001784:	109e2804 	addi	r2,r2,30880
 2001788:	10c00035 	stwio	r3,0(r2)
		LCD_WR_DATA(0x0045);       //3F
 200178c:	00c01144 	movi	r3,69
 2001790:	00810034 	movhi	r2,1024
 2001794:	109e2904 	addi	r2,r2,30884
 2001798:	10c00035 	stwio	r3,0(r2)
		LCD_WR_DATA(0x0045);       //3C
 200179c:	00c01144 	movi	r3,69
 20017a0:	00810034 	movhi	r2,1024
 20017a4:	109e2904 	addi	r2,r2,30884
 20017a8:	10c00035 	stwio	r3,0(r2)

	 LCD_WR_REG(0x00C7);    //VCM control2
 20017ac:	00c031c4 	movi	r3,199
 20017b0:	00810034 	movhi	r2,1024
 20017b4:	109e2804 	addi	r2,r2,30880
 20017b8:	10c00035 	stwio	r3,0(r2)
		 LCD_WR_DATA(0X00a2);
 20017bc:	00c02884 	movi	r3,162
 20017c0:	00810034 	movhi	r2,1024
 20017c4:	109e2904 	addi	r2,r2,30884
 20017c8:	10c00035 	stwio	r3,0(r2)

	LCD_WR_REG(0x0036);    // Memory Access Control
 20017cc:	00c00d84 	movi	r3,54
 20017d0:	00810034 	movhi	r2,1024
 20017d4:	109e2804 	addi	r2,r2,30880
 20017d8:	10c00035 	stwio	r3,0(r2)
		LCD_WR_DATA(0x0008);//48
 20017dc:	00c00204 	movi	r3,8
 20017e0:	00810034 	movhi	r2,1024
 20017e4:	109e2904 	addi	r2,r2,30884
 20017e8:	10c00035 	stwio	r3,0(r2)

	LCD_WR_REG(0x00F2);    // 3Gamma Function Disable
 20017ec:	00c03c84 	movi	r3,242
 20017f0:	00810034 	movhi	r2,1024
 20017f4:	109e2804 	addi	r2,r2,30880
 20017f8:	10c00035 	stwio	r3,0(r2)
		LCD_WR_DATA(0x0000);
 20017fc:	0007883a 	mov	r3,zero
 2001800:	00810034 	movhi	r2,1024
 2001804:	109e2904 	addi	r2,r2,30884
 2001808:	10c00035 	stwio	r3,0(r2)

	LCD_WR_REG(0x0026);    //Gamma curve selected
 200180c:	00c00984 	movi	r3,38
 2001810:	00810034 	movhi	r2,1024
 2001814:	109e2804 	addi	r2,r2,30880
 2001818:	10c00035 	stwio	r3,0(r2)
		LCD_WR_DATA(0x0001);
 200181c:	00c00044 	movi	r3,1
 2001820:	00810034 	movhi	r2,1024
 2001824:	109e2904 	addi	r2,r2,30884
 2001828:	10c00035 	stwio	r3,0(r2)

	LCD_WR_REG(0x00E0);    //Set Gamma
 200182c:	00c03804 	movi	r3,224
 2001830:	00810034 	movhi	r2,1024
 2001834:	109e2804 	addi	r2,r2,30880
 2001838:	10c00035 	stwio	r3,0(r2)
		LCD_WR_DATA(0x000F);
 200183c:	00c003c4 	movi	r3,15
 2001840:	00810034 	movhi	r2,1024
 2001844:	109e2904 	addi	r2,r2,30884
 2001848:	10c00035 	stwio	r3,0(r2)
		LCD_WR_DATA(0x0026);
 200184c:	00c00984 	movi	r3,38
 2001850:	00810034 	movhi	r2,1024
 2001854:	109e2904 	addi	r2,r2,30884
 2001858:	10c00035 	stwio	r3,0(r2)
		LCD_WR_DATA(0x0024);
 200185c:	00c00904 	movi	r3,36
 2001860:	00810034 	movhi	r2,1024
 2001864:	109e2904 	addi	r2,r2,30884
 2001868:	10c00035 	stwio	r3,0(r2)
		LCD_WR_DATA(0x000b);
 200186c:	00c002c4 	movi	r3,11
 2001870:	00810034 	movhi	r2,1024
 2001874:	109e2904 	addi	r2,r2,30884
 2001878:	10c00035 	stwio	r3,0(r2)
		LCD_WR_DATA(0x000E);
 200187c:	00c00384 	movi	r3,14
 2001880:	00810034 	movhi	r2,1024
 2001884:	109e2904 	addi	r2,r2,30884
 2001888:	10c00035 	stwio	r3,0(r2)
		LCD_WR_DATA(0x0008);
 200188c:	00c00204 	movi	r3,8
 2001890:	00810034 	movhi	r2,1024
 2001894:	109e2904 	addi	r2,r2,30884
 2001898:	10c00035 	stwio	r3,0(r2)
		LCD_WR_DATA(0x004b);
 200189c:	00c012c4 	movi	r3,75
 20018a0:	00810034 	movhi	r2,1024
 20018a4:	109e2904 	addi	r2,r2,30884
 20018a8:	10c00035 	stwio	r3,0(r2)
		LCD_WR_DATA(0X00a8);
 20018ac:	00c02a04 	movi	r3,168
 20018b0:	00810034 	movhi	r2,1024
 20018b4:	109e2904 	addi	r2,r2,30884
 20018b8:	10c00035 	stwio	r3,0(r2)
		LCD_WR_DATA(0x003b);
 20018bc:	00c00ec4 	movi	r3,59
 20018c0:	00810034 	movhi	r2,1024
 20018c4:	109e2904 	addi	r2,r2,30884
 20018c8:	10c00035 	stwio	r3,0(r2)
		LCD_WR_DATA(0x000a);
 20018cc:	00c00284 	movi	r3,10
 20018d0:	00810034 	movhi	r2,1024
 20018d4:	109e2904 	addi	r2,r2,30884
 20018d8:	10c00035 	stwio	r3,0(r2)
		LCD_WR_DATA(0x0014);
 20018dc:	00c00504 	movi	r3,20
 20018e0:	00810034 	movhi	r2,1024
 20018e4:	109e2904 	addi	r2,r2,30884
 20018e8:	10c00035 	stwio	r3,0(r2)
		LCD_WR_DATA(0x0006);
 20018ec:	00c00184 	movi	r3,6
 20018f0:	00810034 	movhi	r2,1024
 20018f4:	109e2904 	addi	r2,r2,30884
 20018f8:	10c00035 	stwio	r3,0(r2)
		LCD_WR_DATA(0x0010);
 20018fc:	00c00404 	movi	r3,16
 2001900:	00810034 	movhi	r2,1024
 2001904:	109e2904 	addi	r2,r2,30884
 2001908:	10c00035 	stwio	r3,0(r2)
		LCD_WR_DATA(0x0009);
 200190c:	00c00244 	movi	r3,9
 2001910:	00810034 	movhi	r2,1024
 2001914:	109e2904 	addi	r2,r2,30884
 2001918:	10c00035 	stwio	r3,0(r2)
		LCD_WR_DATA(0x0000);
 200191c:	0007883a 	mov	r3,zero
 2001920:	00810034 	movhi	r2,1024
 2001924:	109e2904 	addi	r2,r2,30884
 2001928:	10c00035 	stwio	r3,0(r2)

	LCD_WR_REG(0X00E1);    //Set Gamma
 200192c:	00c03844 	movi	r3,225
 2001930:	00810034 	movhi	r2,1024
 2001934:	109e2804 	addi	r2,r2,30880
 2001938:	10c00035 	stwio	r3,0(r2)
		LCD_WR_DATA(0x0000);
 200193c:	0007883a 	mov	r3,zero
 2001940:	00810034 	movhi	r2,1024
 2001944:	109e2904 	addi	r2,r2,30884
 2001948:	10c00035 	stwio	r3,0(r2)
		LCD_WR_DATA(0x001c);
 200194c:	00c00704 	movi	r3,28
 2001950:	00810034 	movhi	r2,1024
 2001954:	109e2904 	addi	r2,r2,30884
 2001958:	10c00035 	stwio	r3,0(r2)
		LCD_WR_DATA(0x0020);
 200195c:	00c00804 	movi	r3,32
 2001960:	00810034 	movhi	r2,1024
 2001964:	109e2904 	addi	r2,r2,30884
 2001968:	10c00035 	stwio	r3,0(r2)
		LCD_WR_DATA(0x0004);
 200196c:	00c00104 	movi	r3,4
 2001970:	00810034 	movhi	r2,1024
 2001974:	109e2904 	addi	r2,r2,30884
 2001978:	10c00035 	stwio	r3,0(r2)
		LCD_WR_DATA(0x0010);
 200197c:	00c00404 	movi	r3,16
 2001980:	00810034 	movhi	r2,1024
 2001984:	109e2904 	addi	r2,r2,30884
 2001988:	10c00035 	stwio	r3,0(r2)
		LCD_WR_DATA(0x0008);
 200198c:	00c00204 	movi	r3,8
 2001990:	00810034 	movhi	r2,1024
 2001994:	109e2904 	addi	r2,r2,30884
 2001998:	10c00035 	stwio	r3,0(r2)
		LCD_WR_DATA(0x0034);
 200199c:	00c00d04 	movi	r3,52
 20019a0:	00810034 	movhi	r2,1024
 20019a4:	109e2904 	addi	r2,r2,30884
 20019a8:	10c00035 	stwio	r3,0(r2)
		LCD_WR_DATA(0x0047);
 20019ac:	00c011c4 	movi	r3,71
 20019b0:	00810034 	movhi	r2,1024
 20019b4:	109e2904 	addi	r2,r2,30884
 20019b8:	10c00035 	stwio	r3,0(r2)
		LCD_WR_DATA(0x0044);
 20019bc:	00c01104 	movi	r3,68
 20019c0:	00810034 	movhi	r2,1024
 20019c4:	109e2904 	addi	r2,r2,30884
 20019c8:	10c00035 	stwio	r3,0(r2)
		LCD_WR_DATA(0x0005);
 20019cc:	00c00144 	movi	r3,5
 20019d0:	00810034 	movhi	r2,1024
 20019d4:	109e2904 	addi	r2,r2,30884
 20019d8:	10c00035 	stwio	r3,0(r2)
		LCD_WR_DATA(0x000b);
 20019dc:	00c002c4 	movi	r3,11
 20019e0:	00810034 	movhi	r2,1024
 20019e4:	109e2904 	addi	r2,r2,30884
 20019e8:	10c00035 	stwio	r3,0(r2)
		LCD_WR_DATA(0x0009);
 20019ec:	00c00244 	movi	r3,9
 20019f0:	00810034 	movhi	r2,1024
 20019f4:	109e2904 	addi	r2,r2,30884
 20019f8:	10c00035 	stwio	r3,0(r2)
		LCD_WR_DATA(0x002f);
 20019fc:	00c00bc4 	movi	r3,47
 2001a00:	00810034 	movhi	r2,1024
 2001a04:	109e2904 	addi	r2,r2,30884
 2001a08:	10c00035 	stwio	r3,0(r2)
		LCD_WR_DATA(0x0036);
 2001a0c:	00c00d84 	movi	r3,54
 2001a10:	00810034 	movhi	r2,1024
 2001a14:	109e2904 	addi	r2,r2,30884
 2001a18:	10c00035 	stwio	r3,0(r2)
		LCD_WR_DATA(0x000f);
 2001a1c:	00c003c4 	movi	r3,15
 2001a20:	00810034 	movhi	r2,1024
 2001a24:	109e2904 	addi	r2,r2,30884
 2001a28:	10c00035 	stwio	r3,0(r2)

	LCD_WR_REG(0x002A);
 2001a2c:	00c00a84 	movi	r3,42
 2001a30:	00810034 	movhi	r2,1024
 2001a34:	109e2804 	addi	r2,r2,30880
 2001a38:	10c00035 	stwio	r3,0(r2)
		LCD_WR_DATA(0x0000);
 2001a3c:	0007883a 	mov	r3,zero
 2001a40:	00810034 	movhi	r2,1024
 2001a44:	109e2904 	addi	r2,r2,30884
 2001a48:	10c00035 	stwio	r3,0(r2)
		LCD_WR_DATA(0x0000);
 2001a4c:	0007883a 	mov	r3,zero
 2001a50:	00810034 	movhi	r2,1024
 2001a54:	109e2904 	addi	r2,r2,30884
 2001a58:	10c00035 	stwio	r3,0(r2)
		LCD_WR_DATA(0x0000);
 2001a5c:	0007883a 	mov	r3,zero
 2001a60:	00810034 	movhi	r2,1024
 2001a64:	109e2904 	addi	r2,r2,30884
 2001a68:	10c00035 	stwio	r3,0(r2)
		LCD_WR_DATA(0x00ef);
 2001a6c:	00c03bc4 	movi	r3,239
 2001a70:	00810034 	movhi	r2,1024
 2001a74:	109e2904 	addi	r2,r2,30884
 2001a78:	10c00035 	stwio	r3,0(r2)

	 LCD_WR_REG(0x002B);
 2001a7c:	00c00ac4 	movi	r3,43
 2001a80:	00810034 	movhi	r2,1024
 2001a84:	109e2804 	addi	r2,r2,30880
 2001a88:	10c00035 	stwio	r3,0(r2)
		LCD_WR_DATA(0x0000);
 2001a8c:	0007883a 	mov	r3,zero
 2001a90:	00810034 	movhi	r2,1024
 2001a94:	109e2904 	addi	r2,r2,30884
 2001a98:	10c00035 	stwio	r3,0(r2)
		LCD_WR_DATA(0x0000);
 2001a9c:	0007883a 	mov	r3,zero
 2001aa0:	00810034 	movhi	r2,1024
 2001aa4:	109e2904 	addi	r2,r2,30884
 2001aa8:	10c00035 	stwio	r3,0(r2)
		LCD_WR_DATA(0x0001);
 2001aac:	00c00044 	movi	r3,1
 2001ab0:	00810034 	movhi	r2,1024
 2001ab4:	109e2904 	addi	r2,r2,30884
 2001ab8:	10c00035 	stwio	r3,0(r2)
		LCD_WR_DATA(0x003f);
 2001abc:	00c00fc4 	movi	r3,63
 2001ac0:	00810034 	movhi	r2,1024
 2001ac4:	109e2904 	addi	r2,r2,30884
 2001ac8:	10c00035 	stwio	r3,0(r2)

	LCD_WR_REG(0x003A);
 2001acc:	00c00e84 	movi	r3,58
 2001ad0:	00810034 	movhi	r2,1024
 2001ad4:	109e2804 	addi	r2,r2,30880
 2001ad8:	10c00035 	stwio	r3,0(r2)
		LCD_WR_DATA(0x0055);
 2001adc:	00c01544 	movi	r3,85
 2001ae0:	00810034 	movhi	r2,1024
 2001ae4:	109e2904 	addi	r2,r2,30884
 2001ae8:	10c00035 	stwio	r3,0(r2)

	LCD_WR_REG(0x00f6);
 2001aec:	00c03d84 	movi	r3,246
 2001af0:	00810034 	movhi	r2,1024
 2001af4:	109e2804 	addi	r2,r2,30880
 2001af8:	10c00035 	stwio	r3,0(r2)
		LCD_WR_DATA(0x0001);
 2001afc:	00c00044 	movi	r3,1
 2001b00:	00810034 	movhi	r2,1024
 2001b04:	109e2904 	addi	r2,r2,30884
 2001b08:	10c00035 	stwio	r3,0(r2)
		LCD_WR_DATA(0x0030);
 2001b0c:	00c00c04 	movi	r3,48
 2001b10:	00810034 	movhi	r2,1024
 2001b14:	109e2904 	addi	r2,r2,30884
 2001b18:	10c00035 	stwio	r3,0(r2)
		LCD_WR_DATA(0x0000);
 2001b1c:	0007883a 	mov	r3,zero
 2001b20:	00810034 	movhi	r2,1024
 2001b24:	109e2904 	addi	r2,r2,30884
 2001b28:	10c00035 	stwio	r3,0(r2)

	LCD_WR_REG(0x0029); //display on
 2001b2c:	00c00a44 	movi	r3,41
 2001b30:	00810034 	movhi	r2,1024
 2001b34:	109e2804 	addi	r2,r2,30880
 2001b38:	10c00035 	stwio	r3,0(r2)


	LCD_WR_REG(0x002c);    // 0x2C
 2001b3c:	00c00b04 	movi	r3,44
 2001b40:	00810034 	movhi	r2,1024
 2001b44:	109e2804 	addi	r2,r2,30880
 2001b48:	10c00035 	stwio	r3,0(r2)
}
 2001b4c:	e037883a 	mov	sp,fp
 2001b50:	dfc00117 	ldw	ra,4(sp)
 2001b54:	df000017 	ldw	fp,0(sp)
 2001b58:	dec00204 	addi	sp,sp,8
 2001b5c:	f800283a 	ret

02001b60 <LCD_Pattern_Horizon>:


//-------------------------------------------------------------

void LCD_Pattern_Horizon(void)
{
 2001b60:	defffc04 	addi	sp,sp,-16
 2001b64:	dfc00315 	stw	ra,12(sp)
 2001b68:	df000215 	stw	fp,8(sp)
 2001b6c:	df000204 	addi	fp,sp,8
        alt_u32 index=0;
 2001b70:	e03ffe15 	stw	zero,-8(fp)
        alt_u16  data=0;
 2001b74:	e03fff0d 	sth	zero,-4(fp)
        LCD_SetCursor(0x00,0x0000);
 2001b78:	0009883a 	mov	r4,zero
 2001b7c:	000b883a 	mov	r5,zero
 2001b80:	20013540 	call	2001354 <LCD_SetCursor>
        data=0x0000;
 2001b84:	e03fff0d 	sth	zero,-4(fp)
        for(index=0;index<240*80;index++)
 2001b88:	e03ffe15 	stw	zero,-8(fp)
 2001b8c:	00000706 	br	2001bac <LCD_Pattern_Horizon+0x4c>
        {
        	LCD_WR_DATA(data);
 2001b90:	e0ffff0b 	ldhu	r3,-4(fp)
 2001b94:	00810034 	movhi	r2,1024
 2001b98:	109e2904 	addi	r2,r2,30884
 2001b9c:	10c00035 	stwio	r3,0(r2)
{
        alt_u32 index=0;
        alt_u16  data=0;
        LCD_SetCursor(0x00,0x0000);
        data=0x0000;
        for(index=0;index<240*80;index++)
 2001ba0:	e0bffe17 	ldw	r2,-8(fp)
 2001ba4:	10800044 	addi	r2,r2,1
 2001ba8:	e0bffe15 	stw	r2,-8(fp)
 2001bac:	e0bffe17 	ldw	r2,-8(fp)
 2001bb0:	1092c030 	cmpltui	r2,r2,19200
 2001bb4:	103ff61e 	bne	r2,zero,2001b90 <__alt_mem_pic_mem+0xfdffdb90>
        {
        	LCD_WR_DATA(data);
        }
        LCD_SetCursor(0x00,80);
 2001bb8:	0009883a 	mov	r4,zero
 2001bbc:	01401404 	movi	r5,80
 2001bc0:	20013540 	call	2001354 <LCD_SetCursor>
        data=RED;
 2001bc4:	00be0004 	movi	r2,-2048
 2001bc8:	e0bfff0d 	sth	r2,-4(fp)
		for(index=0;index<240*80;index++)
 2001bcc:	e03ffe15 	stw	zero,-8(fp)
 2001bd0:	00000706 	br	2001bf0 <LCD_Pattern_Horizon+0x90>
		{
			LCD_WR_DATA(data);
 2001bd4:	e0ffff0b 	ldhu	r3,-4(fp)
 2001bd8:	00810034 	movhi	r2,1024
 2001bdc:	109e2904 	addi	r2,r2,30884
 2001be0:	10c00035 	stwio	r3,0(r2)
        {
        	LCD_WR_DATA(data);
        }
        LCD_SetCursor(0x00,80);
        data=RED;
		for(index=0;index<240*80;index++)
 2001be4:	e0bffe17 	ldw	r2,-8(fp)
 2001be8:	10800044 	addi	r2,r2,1
 2001bec:	e0bffe15 	stw	r2,-8(fp)
 2001bf0:	e0bffe17 	ldw	r2,-8(fp)
 2001bf4:	1092c030 	cmpltui	r2,r2,19200
 2001bf8:	103ff61e 	bne	r2,zero,2001bd4 <__alt_mem_pic_mem+0xfdffdbd4>
		{
			LCD_WR_DATA(data);
		}
	    LCD_SetCursor(0x00,160);
 2001bfc:	0009883a 	mov	r4,zero
 2001c00:	01402804 	movi	r5,160
 2001c04:	20013540 	call	2001354 <LCD_SetCursor>
		data=GREEN;
 2001c08:	0081f804 	movi	r2,2016
 2001c0c:	e0bfff0d 	sth	r2,-4(fp)
		for(index=0;index<240*80;index++)
 2001c10:	e03ffe15 	stw	zero,-8(fp)
 2001c14:	00000706 	br	2001c34 <LCD_Pattern_Horizon+0xd4>
		{
			LCD_WR_DATA(data);
 2001c18:	e0ffff0b 	ldhu	r3,-4(fp)
 2001c1c:	00810034 	movhi	r2,1024
 2001c20:	109e2904 	addi	r2,r2,30884
 2001c24:	10c00035 	stwio	r3,0(r2)
		{
			LCD_WR_DATA(data);
		}
	    LCD_SetCursor(0x00,160);
		data=GREEN;
		for(index=0;index<240*80;index++)
 2001c28:	e0bffe17 	ldw	r2,-8(fp)
 2001c2c:	10800044 	addi	r2,r2,1
 2001c30:	e0bffe15 	stw	r2,-8(fp)
 2001c34:	e0bffe17 	ldw	r2,-8(fp)
 2001c38:	1092c030 	cmpltui	r2,r2,19200
 2001c3c:	103ff61e 	bne	r2,zero,2001c18 <__alt_mem_pic_mem+0xfdffdc18>
		{
			LCD_WR_DATA(data);
		}
		LCD_SetCursor(0x00,240);
 2001c40:	0009883a 	mov	r4,zero
 2001c44:	01403c04 	movi	r5,240
 2001c48:	20013540 	call	2001354 <LCD_SetCursor>
		data=BLUE;
 2001c4c:	008007c4 	movi	r2,31
 2001c50:	e0bfff0d 	sth	r2,-4(fp)
		for(index=0;index<240*80;index++)
 2001c54:	e03ffe15 	stw	zero,-8(fp)
 2001c58:	00000706 	br	2001c78 <LCD_Pattern_Horizon+0x118>
		{
			LCD_WR_DATA(data);
 2001c5c:	e0ffff0b 	ldhu	r3,-4(fp)
 2001c60:	00810034 	movhi	r2,1024
 2001c64:	109e2904 	addi	r2,r2,30884
 2001c68:	10c00035 	stwio	r3,0(r2)
		{
			LCD_WR_DATA(data);
		}
		LCD_SetCursor(0x00,240);
		data=BLUE;
		for(index=0;index<240*80;index++)
 2001c6c:	e0bffe17 	ldw	r2,-8(fp)
 2001c70:	10800044 	addi	r2,r2,1
 2001c74:	e0bffe15 	stw	r2,-8(fp)
 2001c78:	e0bffe17 	ldw	r2,-8(fp)
 2001c7c:	1092c030 	cmpltui	r2,r2,19200
 2001c80:	103ff61e 	bne	r2,zero,2001c5c <__alt_mem_pic_mem+0xfdffdc5c>
		{
			LCD_WR_DATA(data);
		}
}
 2001c84:	e037883a 	mov	sp,fp
 2001c88:	dfc00117 	ldw	ra,4(sp)
 2001c8c:	df000017 	ldw	fp,0(sp)
 2001c90:	dec00204 	addi	sp,sp,8
 2001c94:	f800283a 	ret

02001c98 <LCD_Pattern_Vertical>:

//-------------------------------------------------------------

void LCD_Pattern_Vertical(void)
{
 2001c98:	defff804 	addi	sp,sp,-32
 2001c9c:	dfc00715 	stw	ra,28(sp)
 2001ca0:	df000615 	stw	fp,24(sp)
 2001ca4:	df000604 	addi	fp,sp,24
        int i,j,m;
        alt_u16  data=0;
 2001ca8:	e03ffd0d 	sth	zero,-12(fp)
        alt_u16  color[4]={WHITE,BLUE,GREEN,RED};
 2001cac:	00bfffc4 	movi	r2,-1
 2001cb0:	e0bffd8d 	sth	r2,-10(fp)
 2001cb4:	008007c4 	movi	r2,31
 2001cb8:	e0bffe0d 	sth	r2,-8(fp)
 2001cbc:	0081f804 	movi	r2,2016
 2001cc0:	e0bffe8d 	sth	r2,-6(fp)
 2001cc4:	00be0004 	movi	r2,-2048
 2001cc8:	e0bfff0d 	sth	r2,-4(fp)
        LCD_SetCursor(0x00,0x0000);
 2001ccc:	0009883a 	mov	r4,zero
 2001cd0:	000b883a 	mov	r5,zero
 2001cd4:	20013540 	call	2001354 <LCD_SetCursor>
        for(m=0;m<320;m++)
 2001cd8:	e03ffc15 	stw	zero,-16(fp)
 2001cdc:	00001e06 	br	2001d58 <LCD_Pattern_Vertical+0xc0>
        {
			for(i=0;i<4;i++)
 2001ce0:	e03ffa15 	stw	zero,-24(fp)
 2001ce4:	00001606 	br	2001d40 <LCD_Pattern_Vertical+0xa8>
			{
				data=color[i];
 2001ce8:	e0bffa17 	ldw	r2,-24(fp)
 2001cec:	1085883a 	add	r2,r2,r2
 2001cf0:	e0fffa04 	addi	r3,fp,-24
 2001cf4:	1885883a 	add	r2,r3,r2
 2001cf8:	10800384 	addi	r2,r2,14
 2001cfc:	1080000b 	ldhu	r2,0(r2)
 2001d00:	e0bffd0d 	sth	r2,-12(fp)
				for(j=0;j<60;j++)
 2001d04:	e03ffb15 	stw	zero,-20(fp)
 2001d08:	00000706 	br	2001d28 <LCD_Pattern_Vertical+0x90>
				{
					LCD_WR_DATA(data);
 2001d0c:	e0fffd0b 	ldhu	r3,-12(fp)
 2001d10:	00810034 	movhi	r2,1024
 2001d14:	109e2904 	addi	r2,r2,30884
 2001d18:	10c00035 	stwio	r3,0(r2)
        for(m=0;m<320;m++)
        {
			for(i=0;i<4;i++)
			{
				data=color[i];
				for(j=0;j<60;j++)
 2001d1c:	e0bffb17 	ldw	r2,-20(fp)
 2001d20:	10800044 	addi	r2,r2,1
 2001d24:	e0bffb15 	stw	r2,-20(fp)
 2001d28:	e0bffb17 	ldw	r2,-20(fp)
 2001d2c:	10800f10 	cmplti	r2,r2,60
 2001d30:	103ff61e 	bne	r2,zero,2001d0c <__alt_mem_pic_mem+0xfdffdd0c>
        alt_u16  data=0;
        alt_u16  color[4]={WHITE,BLUE,GREEN,RED};
        LCD_SetCursor(0x00,0x0000);
        for(m=0;m<320;m++)
        {
			for(i=0;i<4;i++)
 2001d34:	e0bffa17 	ldw	r2,-24(fp)
 2001d38:	10800044 	addi	r2,r2,1
 2001d3c:	e0bffa15 	stw	r2,-24(fp)
 2001d40:	e0bffa17 	ldw	r2,-24(fp)
 2001d44:	10800110 	cmplti	r2,r2,4
 2001d48:	103fe71e 	bne	r2,zero,2001ce8 <__alt_mem_pic_mem+0xfdffdce8>
{
        int i,j,m;
        alt_u16  data=0;
        alt_u16  color[4]={WHITE,BLUE,GREEN,RED};
        LCD_SetCursor(0x00,0x0000);
        for(m=0;m<320;m++)
 2001d4c:	e0bffc17 	ldw	r2,-16(fp)
 2001d50:	10800044 	addi	r2,r2,1
 2001d54:	e0bffc15 	stw	r2,-16(fp)
 2001d58:	e0bffc17 	ldw	r2,-16(fp)
 2001d5c:	10805010 	cmplti	r2,r2,320
 2001d60:	103fdf1e 	bne	r2,zero,2001ce0 <__alt_mem_pic_mem+0xfdffdce0>
				{
					LCD_WR_DATA(data);
				}
			}
        }
}
 2001d64:	e037883a 	mov	sp,fp
 2001d68:	dfc00117 	ldw	ra,4(sp)
 2001d6c:	df000017 	ldw	fp,0(sp)
 2001d70:	dec00204 	addi	sp,sp,8
 2001d74:	f800283a 	ret

02001d78 <Set_BUFFER_FLAG>:

void Set_BUFFER_FLAG(){
 2001d78:	deffff04 	addi	sp,sp,-4
 2001d7c:	df000015 	stw	fp,0(sp)
 2001d80:	d839883a 	mov	fp,sp
	IOWR_ALTERA_AVALON_PIO_DATA(LT24_BUFFER_FLAG_BASE,0x01);
 2001d84:	00c00044 	movi	r3,1
 2001d88:	00810034 	movhi	r2,1024
 2001d8c:	109e1004 	addi	r2,r2,30784
 2001d90:	10c00035 	stwio	r3,0(r2)
	LCD_WR_REG(0x002c);
 2001d94:	00c00b04 	movi	r3,44
 2001d98:	00810034 	movhi	r2,1024
 2001d9c:	109e2804 	addi	r2,r2,30880
 2001da0:	10c00035 	stwio	r3,0(r2)
}
 2001da4:	e037883a 	mov	sp,fp
 2001da8:	df000017 	ldw	fp,0(sp)
 2001dac:	dec00104 	addi	sp,sp,4
 2001db0:	f800283a 	ret

02001db4 <Clr_BUFFER_FLAG>:

void Clr_BUFFER_FLAG(){
 2001db4:	deffff04 	addi	sp,sp,-4
 2001db8:	df000015 	stw	fp,0(sp)
 2001dbc:	d839883a 	mov	fp,sp
	IOWR_ALTERA_AVALON_PIO_DATA(LT24_BUFFER_FLAG_BASE,0x00);
 2001dc0:	0007883a 	mov	r3,zero
 2001dc4:	00810034 	movhi	r2,1024
 2001dc8:	109e1004 	addi	r2,r2,30784
 2001dcc:	10c00035 	stwio	r3,0(r2)
	LCD_WR_REG(0x002c);
 2001dd0:	00c00b04 	movi	r3,44
 2001dd4:	00810034 	movhi	r2,1024
 2001dd8:	109e2804 	addi	r2,r2,30880
 2001ddc:	10c00035 	stwio	r3,0(r2)
}
 2001de0:	e037883a 	mov	sp,fp
 2001de4:	df000017 	ldw	fp,0(sp)
 2001de8:	dec00104 	addi	sp,sp,4
 2001dec:	f800283a 	ret

02001df0 <IsPtInRect>:

//#define BOUND(x, mini, maxi) ((x<(mini)?(mini):( (x>(maxi))?(maxi):(x) )))

//#define COPY_POINT(pt_des, pt_src)  memcpy(&pt_des, &pt_src,sizeof(POINT))

bool IsPtInRect(POINT *pt, RECT *rc){
 2001df0:	defffc04 	addi	sp,sp,-16
 2001df4:	df000315 	stw	fp,12(sp)
 2001df8:	df000304 	addi	fp,sp,12
 2001dfc:	e13ffe15 	stw	r4,-8(fp)
 2001e00:	e17fff15 	stw	r5,-4(fp)
    bool bYes = FALSE;
 2001e04:	e03ffd15 	stw	zero,-12(fp)
    
    if (pt->x >= rc->left && pt->x <= rc->right && pt->y >= rc->top && pt->y <= rc->bottom)
 2001e08:	e0bffe17 	ldw	r2,-8(fp)
 2001e0c:	10c00017 	ldw	r3,0(r2)
 2001e10:	e0bfff17 	ldw	r2,-4(fp)
 2001e14:	10800017 	ldw	r2,0(r2)
 2001e18:	18801116 	blt	r3,r2,2001e60 <IsPtInRect+0x70>
 2001e1c:	e0bffe17 	ldw	r2,-8(fp)
 2001e20:	10800017 	ldw	r2,0(r2)
 2001e24:	e0ffff17 	ldw	r3,-4(fp)
 2001e28:	18c00117 	ldw	r3,4(r3)
 2001e2c:	18800c16 	blt	r3,r2,2001e60 <IsPtInRect+0x70>
 2001e30:	e0bffe17 	ldw	r2,-8(fp)
 2001e34:	10c00117 	ldw	r3,4(r2)
 2001e38:	e0bfff17 	ldw	r2,-4(fp)
 2001e3c:	10800217 	ldw	r2,8(r2)
 2001e40:	18800716 	blt	r3,r2,2001e60 <IsPtInRect+0x70>
 2001e44:	e0bffe17 	ldw	r2,-8(fp)
 2001e48:	10800117 	ldw	r2,4(r2)
 2001e4c:	e0ffff17 	ldw	r3,-4(fp)
 2001e50:	18c00317 	ldw	r3,12(r3)
 2001e54:	18800216 	blt	r3,r2,2001e60 <IsPtInRect+0x70>
        bYes = TRUE;
 2001e58:	00800044 	movi	r2,1
 2001e5c:	e0bffd15 	stw	r2,-12(fp)
    
    return bYes;
 2001e60:	e0bffd17 	ldw	r2,-12(fp)
}
 2001e64:	e037883a 	mov	sp,fp
 2001e68:	df000017 	ldw	fp,0(sp)
 2001e6c:	dec00104 	addi	sp,sp,4
 2001e70:	f800283a 	ret

02001e74 <PtSet>:

void PtSet(POINT *pt, int x, int y){
 2001e74:	defffc04 	addi	sp,sp,-16
 2001e78:	df000315 	stw	fp,12(sp)
 2001e7c:	df000304 	addi	fp,sp,12
 2001e80:	e13ffd15 	stw	r4,-12(fp)
 2001e84:	e17ffe15 	stw	r5,-8(fp)
 2001e88:	e1bfff15 	stw	r6,-4(fp)
    pt->x = x;
 2001e8c:	e0bffd17 	ldw	r2,-12(fp)
 2001e90:	e0fffe17 	ldw	r3,-8(fp)
 2001e94:	10c00015 	stw	r3,0(r2)
    pt->y = y;
 2001e98:	e0bffd17 	ldw	r2,-12(fp)
 2001e9c:	e0ffff17 	ldw	r3,-4(fp)
 2001ea0:	10c00115 	stw	r3,4(r2)
}
 2001ea4:	e037883a 	mov	sp,fp
 2001ea8:	df000017 	ldw	fp,0(sp)
 2001eac:	dec00104 	addi	sp,sp,4
 2001eb0:	f800283a 	ret

02001eb4 <RectSet>:

void RectSet(RECT *rc, int left, int right, int top, int bottom){
 2001eb4:	defffb04 	addi	sp,sp,-20
 2001eb8:	df000415 	stw	fp,16(sp)
 2001ebc:	df000404 	addi	fp,sp,16
 2001ec0:	e13ffc15 	stw	r4,-16(fp)
 2001ec4:	e17ffd15 	stw	r5,-12(fp)
 2001ec8:	e1bffe15 	stw	r6,-8(fp)
 2001ecc:	e1ffff15 	stw	r7,-4(fp)
    rc->left = left;
 2001ed0:	e0bffc17 	ldw	r2,-16(fp)
 2001ed4:	e0fffd17 	ldw	r3,-12(fp)
 2001ed8:	10c00015 	stw	r3,0(r2)
    rc->right = right;
 2001edc:	e0bffc17 	ldw	r2,-16(fp)
 2001ee0:	e0fffe17 	ldw	r3,-8(fp)
 2001ee4:	10c00115 	stw	r3,4(r2)
    rc->top = top;
 2001ee8:	e0bffc17 	ldw	r2,-16(fp)
 2001eec:	e0ffff17 	ldw	r3,-4(fp)
 2001ef0:	10c00215 	stw	r3,8(r2)
    rc->bottom = bottom;
 2001ef4:	e0bffc17 	ldw	r2,-16(fp)
 2001ef8:	e0c00117 	ldw	r3,4(fp)
 2001efc:	10c00315 	stw	r3,12(r2)
}
 2001f00:	e037883a 	mov	sp,fp
 2001f04:	df000017 	ldw	fp,0(sp)
 2001f08:	dec00104 	addi	sp,sp,4
 2001f0c:	f800283a 	ret

02001f10 <RectInflate>:

void RectInflate(RECT *rc, int x, int y){
 2001f10:	defffc04 	addi	sp,sp,-16
 2001f14:	df000315 	stw	fp,12(sp)
 2001f18:	df000304 	addi	fp,sp,12
 2001f1c:	e13ffd15 	stw	r4,-12(fp)
 2001f20:	e17ffe15 	stw	r5,-8(fp)
 2001f24:	e1bfff15 	stw	r6,-4(fp)
    rc->left -= x;
 2001f28:	e0bffd17 	ldw	r2,-12(fp)
 2001f2c:	10c00017 	ldw	r3,0(r2)
 2001f30:	e0bffe17 	ldw	r2,-8(fp)
 2001f34:	1887c83a 	sub	r3,r3,r2
 2001f38:	e0bffd17 	ldw	r2,-12(fp)
 2001f3c:	10c00015 	stw	r3,0(r2)
    rc->right += x;
 2001f40:	e0bffd17 	ldw	r2,-12(fp)
 2001f44:	10c00117 	ldw	r3,4(r2)
 2001f48:	e0bffe17 	ldw	r2,-8(fp)
 2001f4c:	1887883a 	add	r3,r3,r2
 2001f50:	e0bffd17 	ldw	r2,-12(fp)
 2001f54:	10c00115 	stw	r3,4(r2)
    rc->top -= y;
 2001f58:	e0bffd17 	ldw	r2,-12(fp)
 2001f5c:	10c00217 	ldw	r3,8(r2)
 2001f60:	e0bfff17 	ldw	r2,-4(fp)
 2001f64:	1887c83a 	sub	r3,r3,r2
 2001f68:	e0bffd17 	ldw	r2,-12(fp)
 2001f6c:	10c00215 	stw	r3,8(r2)
    rc->bottom += y;
 2001f70:	e0bffd17 	ldw	r2,-12(fp)
 2001f74:	10c00317 	ldw	r3,12(r2)
 2001f78:	e0bfff17 	ldw	r2,-4(fp)
 2001f7c:	1887883a 	add	r3,r3,r2
 2001f80:	e0bffd17 	ldw	r2,-12(fp)
 2001f84:	10c00315 	stw	r3,12(r2)
}
 2001f88:	e037883a 	mov	sp,fp
 2001f8c:	df000017 	ldw	fp,0(sp)
 2001f90:	dec00104 	addi	sp,sp,4
 2001f94:	f800283a 	ret

02001f98 <RectOffset>:

void RectOffset(RECT *rc, int x, int y){
 2001f98:	defffc04 	addi	sp,sp,-16
 2001f9c:	df000315 	stw	fp,12(sp)
 2001fa0:	df000304 	addi	fp,sp,12
 2001fa4:	e13ffd15 	stw	r4,-12(fp)
 2001fa8:	e17ffe15 	stw	r5,-8(fp)
 2001fac:	e1bfff15 	stw	r6,-4(fp)
    rc->left += x;
 2001fb0:	e0bffd17 	ldw	r2,-12(fp)
 2001fb4:	10c00017 	ldw	r3,0(r2)
 2001fb8:	e0bffe17 	ldw	r2,-8(fp)
 2001fbc:	1887883a 	add	r3,r3,r2
 2001fc0:	e0bffd17 	ldw	r2,-12(fp)
 2001fc4:	10c00015 	stw	r3,0(r2)
    rc->right += x;
 2001fc8:	e0bffd17 	ldw	r2,-12(fp)
 2001fcc:	10c00117 	ldw	r3,4(r2)
 2001fd0:	e0bffe17 	ldw	r2,-8(fp)
 2001fd4:	1887883a 	add	r3,r3,r2
 2001fd8:	e0bffd17 	ldw	r2,-12(fp)
 2001fdc:	10c00115 	stw	r3,4(r2)
    rc->top += y;
 2001fe0:	e0bffd17 	ldw	r2,-12(fp)
 2001fe4:	10c00217 	ldw	r3,8(r2)
 2001fe8:	e0bfff17 	ldw	r2,-4(fp)
 2001fec:	1887883a 	add	r3,r3,r2
 2001ff0:	e0bffd17 	ldw	r2,-12(fp)
 2001ff4:	10c00215 	stw	r3,8(r2)
    rc->bottom += y;
 2001ff8:	e0bffd17 	ldw	r2,-12(fp)
 2001ffc:	10c00317 	ldw	r3,12(r2)
 2002000:	e0bfff17 	ldw	r2,-4(fp)
 2002004:	1887883a 	add	r3,r3,r2
 2002008:	e0bffd17 	ldw	r2,-12(fp)
 200200c:	10c00315 	stw	r3,12(r2)
}
 2002010:	e037883a 	mov	sp,fp
 2002014:	df000017 	ldw	fp,0(sp)
 2002018:	dec00104 	addi	sp,sp,4
 200201c:	f800283a 	ret

02002020 <RectCopy>:

void RectCopy(RECT *rcDes, RECT *rcSrc){
 2002020:	defffd04 	addi	sp,sp,-12
 2002024:	df000215 	stw	fp,8(sp)
 2002028:	df000204 	addi	fp,sp,8
 200202c:	e13ffe15 	stw	r4,-8(fp)
 2002030:	e17fff15 	stw	r5,-4(fp)
    rcDes->left = rcSrc->left;
 2002034:	e0bfff17 	ldw	r2,-4(fp)
 2002038:	10c00017 	ldw	r3,0(r2)
 200203c:	e0bffe17 	ldw	r2,-8(fp)
 2002040:	10c00015 	stw	r3,0(r2)
    rcDes->right = rcSrc->right;
 2002044:	e0bfff17 	ldw	r2,-4(fp)
 2002048:	10c00117 	ldw	r3,4(r2)
 200204c:	e0bffe17 	ldw	r2,-8(fp)
 2002050:	10c00115 	stw	r3,4(r2)
    rcDes->top = rcSrc->top;
 2002054:	e0bfff17 	ldw	r2,-4(fp)
 2002058:	10c00217 	ldw	r3,8(r2)
 200205c:	e0bffe17 	ldw	r2,-8(fp)
 2002060:	10c00215 	stw	r3,8(r2)
    rcDes->bottom = rcSrc->bottom;
 2002064:	e0bfff17 	ldw	r2,-4(fp)
 2002068:	10c00317 	ldw	r3,12(r2)
 200206c:	e0bffe17 	ldw	r2,-8(fp)
 2002070:	10c00315 	stw	r3,12(r2)
}
 2002074:	e037883a 	mov	sp,fp
 2002078:	df000017 	ldw	fp,0(sp)
 200207c:	dec00104 	addi	sp,sp,4
 2002080:	f800283a 	ret

02002084 <RectWidth>:

int RectWidth(RECT *rc){
 2002084:	defffe04 	addi	sp,sp,-8
 2002088:	df000115 	stw	fp,4(sp)
 200208c:	df000104 	addi	fp,sp,4
 2002090:	e13fff15 	stw	r4,-4(fp)
    return (rc->right-rc->left);
 2002094:	e0bfff17 	ldw	r2,-4(fp)
 2002098:	10c00117 	ldw	r3,4(r2)
 200209c:	e0bfff17 	ldw	r2,-4(fp)
 20020a0:	10800017 	ldw	r2,0(r2)
 20020a4:	1885c83a 	sub	r2,r3,r2
}
 20020a8:	e037883a 	mov	sp,fp
 20020ac:	df000017 	ldw	fp,0(sp)
 20020b0:	dec00104 	addi	sp,sp,4
 20020b4:	f800283a 	ret

020020b8 <RectHeight>:

int RectHeight(RECT *rc){
 20020b8:	defffe04 	addi	sp,sp,-8
 20020bc:	df000115 	stw	fp,4(sp)
 20020c0:	df000104 	addi	fp,sp,4
 20020c4:	e13fff15 	stw	r4,-4(fp)
    return (rc->bottom-rc->top);
 20020c8:	e0bfff17 	ldw	r2,-4(fp)
 20020cc:	10c00317 	ldw	r3,12(r2)
 20020d0:	e0bfff17 	ldw	r2,-4(fp)
 20020d4:	10800217 	ldw	r2,8(r2)
 20020d8:	1885c83a 	sub	r2,r3,r2
}
 20020dc:	e037883a 	mov	sp,fp
 20020e0:	df000017 	ldw	fp,0(sp)
 20020e4:	dec00104 	addi	sp,sp,4
 20020e8:	f800283a 	ret

020020ec <PtDistance>:

int PtDistance(POINT *pt1, POINT *pt2){
 20020ec:	defff904 	addi	sp,sp,-28
 20020f0:	dfc00615 	stw	ra,24(sp)
 20020f4:	df000515 	stw	fp,20(sp)
 20020f8:	df000504 	addi	fp,sp,20
 20020fc:	e13ffe15 	stw	r4,-8(fp)
 2002100:	e17fff15 	stw	r5,-4(fp)
    int nDistance;
    int a, b;
    a = pt1->x - pt2->x;
 2002104:	e0bffe17 	ldw	r2,-8(fp)
 2002108:	10c00017 	ldw	r3,0(r2)
 200210c:	e0bfff17 	ldw	r2,-4(fp)
 2002110:	10800017 	ldw	r2,0(r2)
 2002114:	1885c83a 	sub	r2,r3,r2
 2002118:	e0bffb15 	stw	r2,-20(fp)
    b = pt1->y - pt2->y;
 200211c:	e0bffe17 	ldw	r2,-8(fp)
 2002120:	10c00117 	ldw	r3,4(r2)
 2002124:	e0bfff17 	ldw	r2,-4(fp)
 2002128:	10800117 	ldw	r2,4(r2)
 200212c:	1885c83a 	sub	r2,r3,r2
 2002130:	e0bffc15 	stw	r2,-16(fp)
    nDistance = a*a + b*b;
 2002134:	e0fffb17 	ldw	r3,-20(fp)
 2002138:	e0bffb17 	ldw	r2,-20(fp)
 200213c:	1887383a 	mul	r3,r3,r2
 2002140:	e13ffc17 	ldw	r4,-16(fp)
 2002144:	e0bffc17 	ldw	r2,-16(fp)
 2002148:	2085383a 	mul	r2,r4,r2
 200214c:	1885883a 	add	r2,r3,r2
 2002150:	e0bffd15 	stw	r2,-12(fp)
    nDistance = sqrt(nDistance);
 2002154:	e13ffd17 	ldw	r4,-12(fp)
 2002158:	20085d00 	call	20085d0 <__floatsidf>
 200215c:	100b883a 	mov	r5,r2
 2002160:	180d883a 	mov	r6,r3
 2002164:	2809883a 	mov	r4,r5
 2002168:	300b883a 	mov	r5,r6
 200216c:	2005da00 	call	2005da0 <sqrt>
 2002170:	100b883a 	mov	r5,r2
 2002174:	180d883a 	mov	r6,r3
 2002178:	2809883a 	mov	r4,r5
 200217c:	300b883a 	mov	r5,r6
 2002180:	20085480 	call	2008548 <__fixdfsi>
 2002184:	e0bffd15 	stw	r2,-12(fp)
    
    return nDistance;
 2002188:	e0bffd17 	ldw	r2,-12(fp)
}
 200218c:	e037883a 	mov	sp,fp
 2002190:	dfc00117 	ldw	ra,4(sp)
 2002194:	df000017 	ldw	fp,0(sp)
 2002198:	dec00204 	addi	sp,sp,8
 200219c:	f800283a 	ret

020021a0 <PtCopy>:

void PtCopy(POINT *ptDes, POINT *ptSrc){
 20021a0:	defffd04 	addi	sp,sp,-12
 20021a4:	df000215 	stw	fp,8(sp)
 20021a8:	df000204 	addi	fp,sp,8
 20021ac:	e13ffe15 	stw	r4,-8(fp)
 20021b0:	e17fff15 	stw	r5,-4(fp)
    ptDes->x = ptSrc->x;
 20021b4:	e0bfff17 	ldw	r2,-4(fp)
 20021b8:	10c00017 	ldw	r3,0(r2)
 20021bc:	e0bffe17 	ldw	r2,-8(fp)
 20021c0:	10c00015 	stw	r3,0(r2)
    ptDes->y = ptSrc->y;
 20021c4:	e0bfff17 	ldw	r2,-4(fp)
 20021c8:	10c00117 	ldw	r3,4(r2)
 20021cc:	e0bffe17 	ldw	r2,-8(fp)
 20021d0:	10c00115 	stw	r3,4(r2)
}
 20021d4:	e037883a 	mov	sp,fp
 20021d8:	df000017 	ldw	fp,0(sp)
 20021dc:	dec00104 	addi	sp,sp,4
 20021e0:	f800283a 	ret

020021e4 <vid_clean_screen>:
#include "ILI9341.h"
#endif


// richard add
void vid_clean_screen(alt_video_display* display, int color){
 20021e4:	defffa04 	addi	sp,sp,-24
 20021e8:	dfc00515 	stw	ra,20(sp)
 20021ec:	df000415 	stw	fp,16(sp)
 20021f0:	df000404 	addi	fp,sp,16
 20021f4:	e13ffe15 	stw	r4,-8(fp)
 20021f8:	e17fff15 	stw	r5,-4(fp)
    vid_paint_block(0 , 0,display->width, display->height, color, display);
 20021fc:	e0bffe17 	ldw	r2,-8(fp)
 2002200:	11800117 	ldw	r6,4(r2)
 2002204:	e0bffe17 	ldw	r2,-8(fp)
 2002208:	10c00217 	ldw	r3,8(r2)
 200220c:	e0bfff17 	ldw	r2,-4(fp)
 2002210:	d8800015 	stw	r2,0(sp)
 2002214:	e0bffe17 	ldw	r2,-8(fp)
 2002218:	d8800115 	stw	r2,4(sp)
 200221c:	0009883a 	mov	r4,zero
 2002220:	000b883a 	mov	r5,zero
 2002224:	180f883a 	mov	r7,r3
 2002228:	2002d400 	call	2002d40 <vid_paint_block>
}
 200222c:	e037883a 	mov	sp,fp
 2002230:	dfc00117 	ldw	ra,4(sp)
 2002234:	df000017 	ldw	fp,0(sp)
 2002238:	dec00204 	addi	sp,sp,8
 200223c:	f800283a 	ret

02002240 <vid_draw_line>:
*           vid_draw_horiz_line(), which is much faster than 
*           vid_draw_sloped_line.
*
******************************************************************/
__inline__ void vid_draw_line(int horiz_start, int vert_start, int horiz_end, int vert_end, int width, int color, alt_video_display* display)
{
 2002240:	defff704 	addi	sp,sp,-36
 2002244:	dfc00815 	stw	ra,32(sp)
 2002248:	df000715 	stw	fp,28(sp)
 200224c:	df000704 	addi	fp,sp,28
 2002250:	e13ffc15 	stw	r4,-16(fp)
 2002254:	e17ffd15 	stw	r5,-12(fp)
 2002258:	e1bffe15 	stw	r6,-8(fp)
 200225c:	e1ffff15 	stw	r7,-4(fp)
 
  if( vert_start == vert_end )
 2002260:	e0fffd17 	ldw	r3,-12(fp)
 2002264:	e0bfff17 	ldw	r2,-4(fp)
 2002268:	1880101e 	bne	r3,r2,20022ac <vid_draw_line+0x6c>
//                         (unsigned short)horiz_end,  
//                         (unsigned short)vert_start,
//                         color,
//                         display->buffer_ptrs[display->buffer_being_written]->buffer);

    vid_draw_horiz_line( (unsigned short)horiz_start, 
 200226c:	e0bffc17 	ldw	r2,-16(fp)
 2002270:	113fffcc 	andi	r4,r2,65535
 2002274:	2120001c 	xori	r4,r4,32768
 2002278:	21200004 	addi	r4,r4,-32768
 200227c:	e0bffe17 	ldw	r2,-8(fp)
 2002280:	117fffcc 	andi	r5,r2,65535
 2002284:	2960001c 	xori	r5,r5,32768
 2002288:	29600004 	addi	r5,r5,-32768
                         (unsigned short)horiz_end, 
                         (unsigned short)vert_start,
 200228c:	e0bffd17 	ldw	r2,-12(fp)
//                         (unsigned short)horiz_end,  
//                         (unsigned short)vert_start,
//                         color,
//                         display->buffer_ptrs[display->buffer_being_written]->buffer);

    vid_draw_horiz_line( (unsigned short)horiz_start, 
 2002290:	10ffffcc 	andi	r3,r2,65535
 2002294:	e0800417 	ldw	r2,16(fp)
 2002298:	d8800015 	stw	r2,0(sp)
 200229c:	180d883a 	mov	r6,r3
 20022a0:	e1c00317 	ldw	r7,12(fp)
 20022a4:	2002dd40 	call	2002dd4 <vid_draw_horiz_line>
 20022a8:	00001106 	br	20022f0 <vid_draw_line+0xb0>
                         color,
                         display );
  }
  else
  {
    vid_draw_sloped_line( (unsigned short)horiz_start, 
 20022ac:	e0bffc17 	ldw	r2,-16(fp)
 20022b0:	113fffcc 	andi	r4,r2,65535
                          (unsigned short)vert_start, 
 20022b4:	e0bffd17 	ldw	r2,-12(fp)
                         color,
                         display );
  }
  else
  {
    vid_draw_sloped_line( (unsigned short)horiz_start, 
 20022b8:	117fffcc 	andi	r5,r2,65535
                          (unsigned short)vert_start, 
                          (unsigned short)horiz_end, 
 20022bc:	e0bffe17 	ldw	r2,-8(fp)
                         color,
                         display );
  }
  else
  {
    vid_draw_sloped_line( (unsigned short)horiz_start, 
 20022c0:	11bfffcc 	andi	r6,r2,65535
                          (unsigned short)vert_start, 
                          (unsigned short)horiz_end, 
                          (unsigned short)vert_end, 
 20022c4:	e0bfff17 	ldw	r2,-4(fp)
                         color,
                         display );
  }
  else
  {
    vid_draw_sloped_line( (unsigned short)horiz_start, 
 20022c8:	10ffffcc 	andi	r3,r2,65535
                          (unsigned short)vert_start, 
                          (unsigned short)horiz_end, 
                          (unsigned short)vert_end, 
                          (unsigned short)width, 
 20022cc:	e0800217 	ldw	r2,8(fp)
                         color,
                         display );
  }
  else
  {
    vid_draw_sloped_line( (unsigned short)horiz_start, 
 20022d0:	10bfffcc 	andi	r2,r2,65535
 20022d4:	d8800015 	stw	r2,0(sp)
 20022d8:	e0800317 	ldw	r2,12(fp)
 20022dc:	d8800115 	stw	r2,4(sp)
 20022e0:	e0800417 	ldw	r2,16(fp)
 20022e4:	d8800215 	stw	r2,8(sp)
 20022e8:	180f883a 	mov	r7,r3
 20022ec:	2002fe80 	call	2002fe8 <vid_draw_sloped_line>
                          (unsigned short)vert_end, 
                          (unsigned short)width, 
                          color,
                          display );
  }
}
 20022f0:	e037883a 	mov	sp,fp
 20022f4:	dfc00117 	ldw	ra,4(sp)
 20022f8:	df000017 	ldw	fp,0(sp)
 20022fc:	dec00204 	addi	sp,sp,8
 2002300:	f800283a 	ret

02002304 <vid_scroll_string_quit>:



void vid_scroll_string_quit(vid_text_scroll_struct* scroll)
{
 2002304:	defffd04 	addi	sp,sp,-12
 2002308:	dfc00215 	stw	ra,8(sp)
 200230c:	df000115 	stw	fp,4(sp)
 2002310:	df000104 	addi	fp,sp,4
 2002314:	e13fff15 	stw	r4,-4(fp)
  free(scroll->string);
 2002318:	e0bfff17 	ldw	r2,-4(fp)
 200231c:	10800517 	ldw	r2,20(r2)
 2002320:	1009883a 	mov	r4,r2
 2002324:	20087280 	call	2008728 <free>
  free(scroll);
 2002328:	e13fff17 	ldw	r4,-4(fp)
 200232c:	20087280 	call	2008728 <free>
}
 2002330:	e037883a 	mov	sp,fp
 2002334:	dfc00117 	ldw	ra,4(sp)
 2002338:	df000017 	ldw	fp,0(sp)
 200233c:	dec00204 	addi	sp,sp,8
 2002340:	f800283a 	ret

02002344 <vid_scroll_string_init>:

vid_text_scroll_struct* vid_scroll_string_init(int hbegin, int vbegin, int hend, int f_color, int b_color, char* font, int ms_delay, char *string)
{
 2002344:	defff904 	addi	sp,sp,-28
 2002348:	dfc00615 	stw	ra,24(sp)
 200234c:	df000515 	stw	fp,20(sp)
 2002350:	df000504 	addi	fp,sp,20
 2002354:	e13ffc15 	stw	r4,-16(fp)
 2002358:	e17ffd15 	stw	r5,-12(fp)
 200235c:	e1bffe15 	stw	r6,-8(fp)
 2002360:	e1ffff15 	stw	r7,-4(fp)
  vid_text_scroll_struct* scroll;
  scroll = malloc(sizeof (vid_text_scroll_struct));
 2002364:	01000f04 	movi	r4,60
 2002368:	20087140 	call	2008714 <malloc>
 200236c:	e0bffb15 	stw	r2,-20(fp)
  
  scroll->hbegin = hbegin;
 2002370:	e0bffb17 	ldw	r2,-20(fp)
 2002374:	e0fffc17 	ldw	r3,-16(fp)
 2002378:	10c00015 	stw	r3,0(r2)
  scroll->vbegin = vbegin;
 200237c:	e0bffb17 	ldw	r2,-20(fp)
 2002380:	e0fffd17 	ldw	r3,-12(fp)
 2002384:	10c00115 	stw	r3,4(r2)
  scroll->hend = hend;
 2002388:	e0bffb17 	ldw	r2,-20(fp)
 200238c:	e0fffe17 	ldw	r3,-8(fp)
 2002390:	10c00215 	stw	r3,8(r2)
  scroll->f_color = f_color;
 2002394:	e0bffb17 	ldw	r2,-20(fp)
 2002398:	e0ffff17 	ldw	r3,-4(fp)
 200239c:	10c00315 	stw	r3,12(r2)
  scroll->b_color = b_color;
 20023a0:	e0bffb17 	ldw	r2,-20(fp)
 20023a4:	e0c00217 	ldw	r3,8(fp)
 20023a8:	10c00415 	stw	r3,16(r2)
  scroll->string = malloc(strlen(string)+2);
 20023ac:	e1000517 	ldw	r4,20(fp)
 20023b0:	200907c0 	call	200907c <strlen>
 20023b4:	10800084 	addi	r2,r2,2
 20023b8:	1009883a 	mov	r4,r2
 20023bc:	20087140 	call	2008714 <malloc>
 20023c0:	1007883a 	mov	r3,r2
 20023c4:	e0bffb17 	ldw	r2,-20(fp)
 20023c8:	10c00515 	stw	r3,20(r2)
  strcpy(scroll->string, string);
 20023cc:	e0bffb17 	ldw	r2,-20(fp)
 20023d0:	10800517 	ldw	r2,20(r2)
 20023d4:	1009883a 	mov	r4,r2
 20023d8:	e1400517 	ldw	r5,20(fp)
 20023dc:	20090500 	call	2009050 <strcpy>
  scroll->font = font;
 20023e0:	e0bffb17 	ldw	r2,-20(fp)
 20023e4:	e0c00317 	ldw	r3,12(fp)
 20023e8:	10c00615 	stw	r3,24(r2)
  scroll->ms_delay = ms_delay;
 20023ec:	e0bffb17 	ldw	r2,-20(fp)
 20023f0:	e0c00417 	ldw	r3,16(fp)
 20023f4:	10c00715 	stw	r3,28(r2)
 * alt_nticks() returns the elapsed number of system clock ticks since reset.
 */

static ALT_INLINE alt_u32 ALT_ALWAYS_INLINE alt_nticks (void)
{
  return _alt_nticks;
 20023f8:	008080f4 	movhi	r2,515
 20023fc:	10a8e504 	addi	r2,r2,-23660
 2002400:	10800017 	ldw	r2,0(r2)
  scroll->ticks_at_last_move = alt_nticks();
 2002404:	1007883a 	mov	r3,r2
 2002408:	e0bffb17 	ldw	r2,-20(fp)
 200240c:	10c00815 	stw	r3,32(r2)
  scroll->text_scroll_index = 0;
 2002410:	e0bffb17 	ldw	r2,-20(fp)
 2002414:	10000915 	stw	zero,36(r2)
  scroll->text_scroll_started = 0;
 2002418:	e0bffb17 	ldw	r2,-20(fp)
 200241c:	10000a05 	stb	zero,40(r2)
  scroll->window_width = scroll->hend - scroll->hbegin;
 2002420:	e0bffb17 	ldw	r2,-20(fp)
 2002424:	10c00217 	ldw	r3,8(r2)
 2002428:	e0bffb17 	ldw	r2,-20(fp)
 200242c:	10800017 	ldw	r2,0(r2)
 2002430:	1887c83a 	sub	r3,r3,r2
 2002434:	e0bffb17 	ldw	r2,-20(fp)
 2002438:	10c00b15 	stw	r3,44(r2)
  scroll->length_of_string = strlen(string);
 200243c:	e1000517 	ldw	r4,20(fp)
 2002440:	200907c0 	call	200907c <strlen>
 2002444:	1007883a 	mov	r3,r2
 2002448:	e0bffb17 	ldw	r2,-20(fp)
 200244c:	10c00c15 	stw	r3,48(r2)
  scroll->string_points = scroll->length_of_string * 8;
 2002450:	e0bffb17 	ldw	r2,-20(fp)
 2002454:	10800c17 	ldw	r2,48(r2)
 2002458:	100690fa 	slli	r3,r2,3
 200245c:	e0bffb17 	ldw	r2,-20(fp)
 2002460:	10c00e15 	stw	r3,56(r2)
  scroll->scroll_points = (scroll->window_width + scroll->string_points);
 2002464:	e0bffb17 	ldw	r2,-20(fp)
 2002468:	10c00b17 	ldw	r3,44(r2)
 200246c:	e0bffb17 	ldw	r2,-20(fp)
 2002470:	10800e17 	ldw	r2,56(r2)
 2002474:	1887883a 	add	r3,r3,r2
 2002478:	e0bffb17 	ldw	r2,-20(fp)
 200247c:	10c00d15 	stw	r3,52(r2)
 
  return(scroll);
 2002480:	e0bffb17 	ldw	r2,-20(fp)
  
}
 2002484:	e037883a 	mov	sp,fp
 2002488:	dfc00117 	ldw	ra,4(sp)
 200248c:	df000017 	ldw	fp,0(sp)
 2002490:	dec00204 	addi	sp,sp,8
 2002494:	f800283a 	ret

02002498 <vid_scroll_string>:


int vid_scroll_string(vid_text_scroll_struct* scroll, alt_video_display* display)
{
 2002498:	deffec04 	addi	sp,sp,-80
 200249c:	dfc01315 	stw	ra,76(sp)
 20024a0:	df001215 	stw	fp,72(sp)
 20024a4:	dc401115 	stw	r17,68(sp)
 20024a8:	dc001015 	stw	r16,64(sp)
 20024ac:	df001204 	addi	fp,sp,72
 20024b0:	e13ffc15 	stw	r4,-16(fp)
 20024b4:	e17ffd15 	stw	r5,-12(fp)

  int x_start, x_end, x_index, string_x_index, string_char_index, char_row, char_column;
  char character, column_mask;
  char* font_char_ptr;
  char pixels_to_move_by = 1;
 20024b8:	00800044 	movi	r2,1
 20024bc:	e0bff605 	stb	r2,-40(fp)
 20024c0:	008080f4 	movhi	r2,515
 20024c4:	10a8e504 	addi	r2,r2,-23660
 20024c8:	14000017 	ldw	r16,0(r2)

  // If it's time to move the scroll..
  if (alt_nticks() >= (scroll->ticks_at_last_move + ((alt_ticks_per_second() * (scroll->ms_delay)) / 1000))) {
 20024cc:	e0bffc17 	ldw	r2,-16(fp)
 20024d0:	10800817 	ldw	r2,32(r2)
 20024d4:	1023883a 	mov	r17,r2
 * Obtain the system clock rate in ticks/s. 
 */

static ALT_INLINE alt_u32 ALT_ALWAYS_INLINE alt_ticks_per_second (void)
{
  return _alt_tick_rate;
 20024d8:	008080f4 	movhi	r2,515
 20024dc:	10a8e404 	addi	r2,r2,-23664
 20024e0:	10800017 	ldw	r2,0(r2)
 20024e4:	e0fffc17 	ldw	r3,-16(fp)
 20024e8:	18c00717 	ldw	r3,28(r3)
 20024ec:	10c5383a 	mul	r2,r2,r3
 20024f0:	1009883a 	mov	r4,r2
 20024f4:	0140fa04 	movi	r5,1000
 20024f8:	20062fc0 	call	20062fc <__udivsi3>
 20024fc:	8885883a 	add	r2,r17,r2
 2002500:	8080b936 	bltu	r16,r2,20027e8 <vid_scroll_string+0x350>
 * alt_nticks() returns the elapsed number of system clock ticks since reset.
 */

static ALT_INLINE alt_u32 ALT_ALWAYS_INLINE alt_nticks (void)
{
  return _alt_nticks;
 2002504:	008080f4 	movhi	r2,515
 2002508:	10a8e504 	addi	r2,r2,-23660
 200250c:	10800017 	ldw	r2,0(r2)
    scroll->ticks_at_last_move = alt_nticks();
 2002510:	1007883a 	mov	r3,r2
 2002514:	e0bffc17 	ldw	r2,-16(fp)
 2002518:	10c00815 	stw	r3,32(r2)
    
    // Track where we are in the scroll.
    if(scroll->text_scroll_started == 0) {
 200251c:	e0bffc17 	ldw	r2,-16(fp)
 2002520:	10800a03 	ldbu	r2,40(r2)
 2002524:	10803fcc 	andi	r2,r2,255
 2002528:	1080201c 	xori	r2,r2,128
 200252c:	10bfe004 	addi	r2,r2,-128
 2002530:	1000061e 	bne	r2,zero,200254c <vid_scroll_string+0xb4>
      scroll->text_scroll_index = 0;
 2002534:	e0bffc17 	ldw	r2,-16(fp)
 2002538:	10000915 	stw	zero,36(r2)
      scroll->text_scroll_started = 1;
 200253c:	e0bffc17 	ldw	r2,-16(fp)
 2002540:	00c00044 	movi	r3,1
 2002544:	10c00a05 	stb	r3,40(r2)
 2002548:	00000e06 	br	2002584 <vid_scroll_string+0xec>
    } else if(scroll->text_scroll_index >= scroll->scroll_points)  {
 200254c:	e0bffc17 	ldw	r2,-16(fp)
 2002550:	10c00917 	ldw	r3,36(r2)
 2002554:	e0bffc17 	ldw	r2,-16(fp)
 2002558:	10800d17 	ldw	r2,52(r2)
 200255c:	18800316 	blt	r3,r2,200256c <vid_scroll_string+0xd4>
      scroll->text_scroll_started = 0;
 2002560:	e0bffc17 	ldw	r2,-16(fp)
 2002564:	10000a05 	stb	zero,40(r2)
 2002568:	00000606 	br	2002584 <vid_scroll_string+0xec>
    } else {
      scroll->text_scroll_index += pixels_to_move_by;
 200256c:	e0bffc17 	ldw	r2,-16(fp)
 2002570:	10c00917 	ldw	r3,36(r2)
 2002574:	e0bff607 	ldb	r2,-40(fp)
 2002578:	1887883a 	add	r3,r3,r2
 200257c:	e0bffc17 	ldw	r2,-16(fp)
 2002580:	10c00915 	stw	r3,36(r2)
    }
    
    //Find out where we start
    if (scroll->text_scroll_index < scroll->window_width) {
 2002584:	e0bffc17 	ldw	r2,-16(fp)
 2002588:	10c00917 	ldw	r3,36(r2)
 200258c:	e0bffc17 	ldw	r2,-16(fp)
 2002590:	10800b17 	ldw	r2,44(r2)
 2002594:	18800a0e 	bge	r3,r2,20025c0 <vid_scroll_string+0x128>
      x_start = scroll->hbegin + scroll->window_width - scroll->text_scroll_index;
 2002598:	e0bffc17 	ldw	r2,-16(fp)
 200259c:	10c00017 	ldw	r3,0(r2)
 20025a0:	e0bffc17 	ldw	r2,-16(fp)
 20025a4:	10800b17 	ldw	r2,44(r2)
 20025a8:	1887883a 	add	r3,r3,r2
 20025ac:	e0bffc17 	ldw	r2,-16(fp)
 20025b0:	10800917 	ldw	r2,36(r2)
 20025b4:	1885c83a 	sub	r2,r3,r2
 20025b8:	e0bff115 	stw	r2,-60(fp)
 20025bc:	00000306 	br	20025cc <vid_scroll_string+0x134>
    } else {
      x_start = scroll->hbegin;
 20025c0:	e0bffc17 	ldw	r2,-16(fp)
 20025c4:	10800017 	ldw	r2,0(r2)
 20025c8:	e0bff115 	stw	r2,-60(fp)
    }
    //Find out where we end
    if (scroll->string_points > scroll->text_scroll_index) {
 20025cc:	e0bffc17 	ldw	r2,-16(fp)
 20025d0:	10800e17 	ldw	r2,56(r2)
 20025d4:	e0fffc17 	ldw	r3,-16(fp)
 20025d8:	18c00917 	ldw	r3,36(r3)
 20025dc:	1880040e 	bge	r3,r2,20025f0 <vid_scroll_string+0x158>
      x_end = scroll->hend;
 20025e0:	e0bffc17 	ldw	r2,-16(fp)
 20025e4:	10800217 	ldw	r2,8(r2)
 20025e8:	e0bff215 	stw	r2,-56(fp)
 20025ec:	00000906 	br	2002614 <vid_scroll_string+0x17c>
    } else {
      x_end = (scroll->hend - scroll->text_scroll_index + scroll->string_points);
 20025f0:	e0bffc17 	ldw	r2,-16(fp)
 20025f4:	10c00217 	ldw	r3,8(r2)
 20025f8:	e0bffc17 	ldw	r2,-16(fp)
 20025fc:	10800917 	ldw	r2,36(r2)
 2002600:	1887c83a 	sub	r3,r3,r2
 2002604:	e0bffc17 	ldw	r2,-16(fp)
 2002608:	10800e17 	ldw	r2,56(r2)
 200260c:	1885883a 	add	r2,r3,r2
 2002610:	e0bff215 	stw	r2,-56(fp)
    }

    // Write the string segment a column (x) at a time
    for(x_index = x_start; x_index < x_end; x_index++) {
 2002614:	e0bff117 	ldw	r2,-60(fp)
 2002618:	e0bff315 	stw	r2,-52(fp)
 200261c:	00006006 	br	20027a0 <vid_scroll_string+0x308>
      // Find the x index we're at within the string
      // If first part of string hasnt yet reached left side of scroll window
      if (scroll->text_scroll_index < scroll->window_width) {
 2002620:	e0bffc17 	ldw	r2,-16(fp)
 2002624:	10c00917 	ldw	r3,36(r2)
 2002628:	e0bffc17 	ldw	r2,-16(fp)
 200262c:	10800b17 	ldw	r2,44(r2)
 2002630:	1880050e 	bge	r3,r2,2002648 <vid_scroll_string+0x1b0>
        string_x_index = (x_index - x_start);
 2002634:	e0fff317 	ldw	r3,-52(fp)
 2002638:	e0bff117 	ldw	r2,-60(fp)
 200263c:	1885c83a 	sub	r2,r3,r2
 2002640:	e0bff415 	stw	r2,-48(fp)
 2002644:	00000a06 	br	2002670 <vid_scroll_string+0x1d8>
      } else {
        string_x_index = scroll->text_scroll_index - scroll->window_width + x_index - x_start;
 2002648:	e0bffc17 	ldw	r2,-16(fp)
 200264c:	10c00917 	ldw	r3,36(r2)
 2002650:	e0bffc17 	ldw	r2,-16(fp)
 2002654:	10800b17 	ldw	r2,44(r2)
 2002658:	1887c83a 	sub	r3,r3,r2
 200265c:	e0bff317 	ldw	r2,-52(fp)
 2002660:	1887883a 	add	r3,r3,r2
 2002664:	e0bff117 	ldw	r2,-60(fp)
 2002668:	1885c83a 	sub	r2,r3,r2
 200266c:	e0bff415 	stw	r2,-48(fp)
      }
      //Find the character we're supposed to be writing
      string_char_index = (string_x_index / 8);
 2002670:	e0bff417 	ldw	r2,-48(fp)
 2002674:	1000010e 	bge	r2,zero,200267c <vid_scroll_string+0x1e4>
 2002678:	108001c4 	addi	r2,r2,7
 200267c:	1005d0fa 	srai	r2,r2,3
 2002680:	e0bff715 	stw	r2,-36(fp)
      character = scroll->string[string_char_index];
 2002684:	e0bffc17 	ldw	r2,-16(fp)
 2002688:	10c00517 	ldw	r3,20(r2)
 200268c:	e0bff717 	ldw	r2,-36(fp)
 2002690:	1885883a 	add	r2,r3,r2
 2002694:	10800003 	ldbu	r2,0(r2)
 2002698:	e0bff805 	stb	r2,-32(fp)
      char_column = (string_x_index % 8);
 200269c:	e0fff417 	ldw	r3,-48(fp)
 20026a0:	00a00034 	movhi	r2,32768
 20026a4:	108001c4 	addi	r2,r2,7
 20026a8:	1884703a 	and	r2,r3,r2
 20026ac:	1000040e 	bge	r2,zero,20026c0 <vid_scroll_string+0x228>
 20026b0:	10bfffc4 	addi	r2,r2,-1
 20026b4:	00fffe04 	movi	r3,-8
 20026b8:	10c4b03a 	or	r2,r2,r3
 20026bc:	10800044 	addi	r2,r2,1
 20026c0:	e0bff915 	stw	r2,-28(fp)
      column_mask = (((unsigned int)0x80) >> char_column);
 20026c4:	00c02004 	movi	r3,128
 20026c8:	e0bff917 	ldw	r2,-28(fp)
 20026cc:	1884d83a 	srl	r2,r3,r2
 20026d0:	e0bffa05 	stb	r2,-24(fp)
      font_char_ptr = (scroll->font + ((character - 0x20) * FONT_10PT_ROW));
 20026d4:	e0bffc17 	ldw	r2,-16(fp)
 20026d8:	10800617 	ldw	r2,24(r2)
 20026dc:	e0fff807 	ldb	r3,-32(fp)
 20026e0:	18fff804 	addi	r3,r3,-32
 20026e4:	18c002e4 	muli	r3,r3,11
 20026e8:	10c5883a 	add	r2,r2,r3
 20026ec:	e0bffb15 	stw	r2,-20(fp)
      //We have all the data now, so let's write a column
      for(char_row = 0; char_row < 11; char_row++) {
 20026f0:	e03ff515 	stw	zero,-44(fp)
 20026f4:	00002406 	br	2002788 <vid_scroll_string+0x2f0>
        // If the font table says this pixel is on, then set it to the foreground color
        if (*(font_char_ptr + char_row) & column_mask) {
 20026f8:	e0bff517 	ldw	r2,-44(fp)
 20026fc:	e0fffb17 	ldw	r3,-20(fp)
 2002700:	1885883a 	add	r2,r3,r2
 2002704:	10c00003 	ldbu	r3,0(r2)
 2002708:	e0bffa03 	ldbu	r2,-24(fp)
 200270c:	1884703a 	and	r2,r3,r2
 2002710:	10803fcc 	andi	r2,r2,255
 2002714:	1080201c 	xori	r2,r2,128
 2002718:	10bfe004 	addi	r2,r2,-128
 200271c:	10000c26 	beq	r2,zero,2002750 <vid_scroll_string+0x2b8>
          vid_set_pixel(x_index, scroll->vbegin + char_row, scroll->f_color, display); 
 2002720:	e0bffc17 	ldw	r2,-16(fp)
 2002724:	10c00117 	ldw	r3,4(r2)
 2002728:	e0bff517 	ldw	r2,-44(fp)
 200272c:	1887883a 	add	r3,r3,r2
 2002730:	e0bffc17 	ldw	r2,-16(fp)
 2002734:	10800317 	ldw	r2,12(r2)
 2002738:	e13ff317 	ldw	r4,-52(fp)
 200273c:	180b883a 	mov	r5,r3
 2002740:	100d883a 	mov	r6,r2
 2002744:	e1fffd17 	ldw	r7,-12(fp)
 2002748:	2002c640 	call	2002c64 <vid_set_pixel>
 200274c:	00000b06 	br	200277c <vid_scroll_string+0x2e4>
        // Otherwise, set it to the background color.
        } else {
          vid_set_pixel(x_index, scroll->vbegin + char_row, scroll->b_color, display); //background color
 2002750:	e0bffc17 	ldw	r2,-16(fp)
 2002754:	10c00117 	ldw	r3,4(r2)
 2002758:	e0bff517 	ldw	r2,-44(fp)
 200275c:	1887883a 	add	r3,r3,r2
 2002760:	e0bffc17 	ldw	r2,-16(fp)
 2002764:	10800417 	ldw	r2,16(r2)
 2002768:	e13ff317 	ldw	r4,-52(fp)
 200276c:	180b883a 	mov	r5,r3
 2002770:	100d883a 	mov	r6,r2
 2002774:	e1fffd17 	ldw	r7,-12(fp)
 2002778:	2002c640 	call	2002c64 <vid_set_pixel>
      character = scroll->string[string_char_index];
      char_column = (string_x_index % 8);
      column_mask = (((unsigned int)0x80) >> char_column);
      font_char_ptr = (scroll->font + ((character - 0x20) * FONT_10PT_ROW));
      //We have all the data now, so let's write a column
      for(char_row = 0; char_row < 11; char_row++) {
 200277c:	e0bff517 	ldw	r2,-44(fp)
 2002780:	10800044 	addi	r2,r2,1
 2002784:	e0bff515 	stw	r2,-44(fp)
 2002788:	e0bff517 	ldw	r2,-44(fp)
 200278c:	108002d0 	cmplti	r2,r2,11
 2002790:	103fd91e 	bne	r2,zero,20026f8 <__alt_mem_pic_mem+0xfdffe6f8>
    } else {
      x_end = (scroll->hend - scroll->text_scroll_index + scroll->string_points);
    }

    // Write the string segment a column (x) at a time
    for(x_index = x_start; x_index < x_end; x_index++) {
 2002794:	e0bff317 	ldw	r2,-52(fp)
 2002798:	10800044 	addi	r2,r2,1
 200279c:	e0bff315 	stw	r2,-52(fp)
 20027a0:	e0fff317 	ldw	r3,-52(fp)
 20027a4:	e0bff217 	ldw	r2,-56(fp)
 20027a8:	18bf9d16 	blt	r3,r2,2002620 <__alt_mem_pic_mem+0xfdffe620>
          vid_set_pixel(x_index, scroll->vbegin + char_row, scroll->b_color, display); //background color
        }
      }
    }
    // Erase the leftover column (x) of the last string we wrote.
    vid_draw_line(x_end, scroll->vbegin, x_end, scroll->vbegin + 10, 1, scroll->b_color, display);
 20027ac:	e0bffc17 	ldw	r2,-16(fp)
 20027b0:	11400117 	ldw	r5,4(r2)
 20027b4:	e0bffc17 	ldw	r2,-16(fp)
 20027b8:	10800117 	ldw	r2,4(r2)
 20027bc:	11c00284 	addi	r7,r2,10
 20027c0:	e0bffc17 	ldw	r2,-16(fp)
 20027c4:	10800417 	ldw	r2,16(r2)
 20027c8:	00c00044 	movi	r3,1
 20027cc:	d8c00015 	stw	r3,0(sp)
 20027d0:	d8800115 	stw	r2,4(sp)
 20027d4:	e0bffd17 	ldw	r2,-12(fp)
 20027d8:	d8800215 	stw	r2,8(sp)
 20027dc:	e13ff217 	ldw	r4,-56(fp)
 20027e0:	e1bff217 	ldw	r6,-56(fp)
 20027e4:	20022400 	call	2002240 <vid_draw_line>
    // Log what time we moved the scroll.
  }
  return(0);
 20027e8:	0005883a 	mov	r2,zero
}
 20027ec:	e6fffe04 	addi	sp,fp,-8
 20027f0:	dfc00317 	ldw	ra,12(sp)
 20027f4:	df000217 	ldw	fp,8(sp)
 20027f8:	dc400117 	ldw	r17,4(sp)
 20027fc:	dc000017 	ldw	r16,0(sp)
 2002800:	dec00404 	addi	sp,sp,16
 2002804:	f800283a 	ret

02002808 <vid_move_block>:
*           the backfill_color parameter.
*
******************************************************************/

int vid_move_block(int xbegin, int ybegin, int xend, int yend, int x_distance, int y_distance, int backfill_color, alt_video_display* display)
{
 2002808:	defff504 	addi	sp,sp,-44
 200280c:	dfc00a15 	stw	ra,40(sp)
 2002810:	df000915 	stw	fp,36(sp)
 2002814:	df000904 	addi	fp,sp,36
 2002818:	e13ffc15 	stw	r4,-16(fp)
 200281c:	e17ffd15 	stw	r5,-12(fp)
 2002820:	e1bffe15 	stw	r6,-8(fp)
 2002824:	e1ffff15 	stw	r7,-4(fp)
  int read_x, read_y, write_x, write_y;
  short temp_pixel;
  
  if(x_distance <= 0 && y_distance <= 0) {  
 2002828:	e0800217 	ldw	r2,8(fp)
 200282c:	00803716 	blt	zero,r2,200290c <vid_move_block+0x104>
 2002830:	e0800317 	ldw	r2,12(fp)
 2002834:	00803516 	blt	zero,r2,200290c <vid_move_block+0x104>
    //Move by rows because they are contiguous in memory (could help speed if in SDRAM)
    for (read_y = ybegin; read_y < yend; read_y++) {
 2002838:	e0bffd17 	ldw	r2,-12(fp)
 200283c:	e0bff815 	stw	r2,-32(fp)
 2002840:	00002f06 	br	2002900 <vid_move_block+0xf8>
      write_y = read_y + y_distance;
 2002844:	e0fff817 	ldw	r3,-32(fp)
 2002848:	e0800317 	ldw	r2,12(fp)
 200284c:	1885883a 	add	r2,r3,r2
 2002850:	e0bff915 	stw	r2,-28(fp)
      for(read_x = xbegin; read_x < xend; read_x++) {
 2002854:	e0bffc17 	ldw	r2,-16(fp)
 2002858:	e0bff715 	stw	r2,-36(fp)
 200285c:	00002206 	br	20028e8 <vid_move_block+0xe0>
        write_x = read_x + x_distance;
 2002860:	e0fff717 	ldw	r3,-36(fp)
 2002864:	e0800217 	ldw	r2,8(fp)
 2002868:	1885883a 	add	r2,r3,r2
 200286c:	e0bffa15 	stw	r2,-24(fp)
        temp_pixel = vid_get_pixel(read_x, read_y, display);
 2002870:	e13ff717 	ldw	r4,-36(fp)
 2002874:	e17ff817 	ldw	r5,-32(fp)
 2002878:	e1800517 	ldw	r6,20(fp)
 200287c:	2002d000 	call	2002d00 <vid_get_pixel>
 2002880:	e0bffb0d 	sth	r2,-20(fp)
        vid_set_pixel(write_x, write_y, temp_pixel, display);
 2002884:	e0bffb0f 	ldh	r2,-20(fp)
 2002888:	e13ffa17 	ldw	r4,-24(fp)
 200288c:	e17ff917 	ldw	r5,-28(fp)
 2002890:	100d883a 	mov	r6,r2
 2002894:	e1c00517 	ldw	r7,20(fp)
 2002898:	2002c640 	call	2002c64 <vid_set_pixel>
        if(read_x >= xend + x_distance || read_y >= yend + y_distance) 
 200289c:	e0fffe17 	ldw	r3,-8(fp)
 20028a0:	e0800217 	ldw	r2,8(fp)
 20028a4:	1885883a 	add	r2,r3,r2
 20028a8:	e0fff717 	ldw	r3,-36(fp)
 20028ac:	1880050e 	bge	r3,r2,20028c4 <vid_move_block+0xbc>
 20028b0:	e0ffff17 	ldw	r3,-4(fp)
 20028b4:	e0800317 	ldw	r2,12(fp)
 20028b8:	1885883a 	add	r2,r3,r2
 20028bc:	e0fff817 	ldw	r3,-32(fp)
 20028c0:	18800616 	blt	r3,r2,20028dc <vid_move_block+0xd4>
        {
	        vid_set_pixel(read_x, read_y, backfill_color, display);
 20028c4:	e0800417 	ldw	r2,16(fp)
 20028c8:	e13ff717 	ldw	r4,-36(fp)
 20028cc:	e17ff817 	ldw	r5,-32(fp)
 20028d0:	100d883a 	mov	r6,r2
 20028d4:	e1c00517 	ldw	r7,20(fp)
 20028d8:	2002c640 	call	2002c64 <vid_set_pixel>
  
  if(x_distance <= 0 && y_distance <= 0) {  
    //Move by rows because they are contiguous in memory (could help speed if in SDRAM)
    for (read_y = ybegin; read_y < yend; read_y++) {
      write_y = read_y + y_distance;
      for(read_x = xbegin; read_x < xend; read_x++) {
 20028dc:	e0bff717 	ldw	r2,-36(fp)
 20028e0:	10800044 	addi	r2,r2,1
 20028e4:	e0bff715 	stw	r2,-36(fp)
 20028e8:	e0fff717 	ldw	r3,-36(fp)
 20028ec:	e0bffe17 	ldw	r2,-8(fp)
 20028f0:	18bfdb16 	blt	r3,r2,2002860 <__alt_mem_pic_mem+0xfdffe860>
  int read_x, read_y, write_x, write_y;
  short temp_pixel;
  
  if(x_distance <= 0 && y_distance <= 0) {  
    //Move by rows because they are contiguous in memory (could help speed if in SDRAM)
    for (read_y = ybegin; read_y < yend; read_y++) {
 20028f4:	e0bff817 	ldw	r2,-32(fp)
 20028f8:	10800044 	addi	r2,r2,1
 20028fc:	e0bff815 	stw	r2,-32(fp)
 2002900:	e0fff817 	ldw	r3,-32(fp)
 2002904:	e0bfff17 	ldw	r2,-4(fp)
 2002908:	18bfce16 	blt	r3,r2,2002844 <__alt_mem_pic_mem+0xfdffe844>
	        vid_set_pixel(read_x, read_y, backfill_color, display);
        }
      }
    }
  }
  return (0);
 200290c:	0005883a 	mov	r2,zero
}
 2002910:	e037883a 	mov	sp,fp
 2002914:	dfc00117 	ldw	ra,4(sp)
 2002918:	df000017 	ldw	fp,0(sp)
 200291c:	dec00204 	addi	sp,sp,8
 2002920:	f800283a 	ret

02002924 <vid_print_string>:
*           using the specified font and color.
*           Calls vid_print_char
*
******************************************************************/
int vid_print_string(int horiz_offset, int vert_offset, int color, char *font, alt_video_display* display, char string[])
{
 2002924:	defff604 	addi	sp,sp,-40
 2002928:	dfc00915 	stw	ra,36(sp)
 200292c:	df000815 	stw	fp,32(sp)
 2002930:	df000804 	addi	fp,sp,32
 2002934:	e13ffc15 	stw	r4,-16(fp)
 2002938:	e17ffd15 	stw	r5,-12(fp)
 200293c:	e1bffe15 	stw	r6,-8(fp)
 2002940:	e1ffff15 	stw	r7,-4(fp)
  int i = 0;
 2002944:	e03ffa15 	stw	zero,-24(fp)
  int original_horiz_offset;

  original_horiz_offset = horiz_offset;
 2002948:	e0bffc17 	ldw	r2,-16(fp)
 200294c:	e0bffb15 	stw	r2,-20(fp)

  // Print until we hit the '\0' char.
  while (string[i]) {
 2002950:	00002806 	br	20029f4 <vid_print_string+0xd0>
    //Handle newline char here.
    if (string[i] == '\n') {
 2002954:	e0bffa17 	ldw	r2,-24(fp)
 2002958:	e0c00317 	ldw	r3,12(fp)
 200295c:	1885883a 	add	r2,r3,r2
 2002960:	10800003 	ldbu	r2,0(r2)
 2002964:	10803fcc 	andi	r2,r2,255
 2002968:	1080201c 	xori	r2,r2,128
 200296c:	10bfe004 	addi	r2,r2,-128
 2002970:	10800298 	cmpnei	r2,r2,10
 2002974:	1000091e 	bne	r2,zero,200299c <vid_print_string+0x78>
      horiz_offset = original_horiz_offset;
 2002978:	e0bffb17 	ldw	r2,-20(fp)
 200297c:	e0bffc15 	stw	r2,-16(fp)
      vert_offset += 12;
 2002980:	e0bffd17 	ldw	r2,-12(fp)
 2002984:	10800304 	addi	r2,r2,12
 2002988:	e0bffd15 	stw	r2,-12(fp)
      i++;
 200298c:	e0bffa17 	ldw	r2,-24(fp)
 2002990:	10800044 	addi	r2,r2,1
 2002994:	e0bffa15 	stw	r2,-24(fp)
      continue;
 2002998:	00001606 	br	20029f4 <vid_print_string+0xd0>
    }
    // Lay down that character and increment our offsets.
    vid_print_char (horiz_offset, vert_offset, color, string[i], font, display);
 200299c:	e0bffa17 	ldw	r2,-24(fp)
 20029a0:	e0c00317 	ldw	r3,12(fp)
 20029a4:	1885883a 	add	r2,r3,r2
 20029a8:	10800003 	ldbu	r2,0(r2)
 20029ac:	10c03fcc 	andi	r3,r2,255
 20029b0:	18c0201c 	xori	r3,r3,128
 20029b4:	18ffe004 	addi	r3,r3,-128
 20029b8:	e0bfff17 	ldw	r2,-4(fp)
 20029bc:	d8800015 	stw	r2,0(sp)
 20029c0:	e0800217 	ldw	r2,8(fp)
 20029c4:	d8800115 	stw	r2,4(sp)
 20029c8:	e13ffc17 	ldw	r4,-16(fp)
 20029cc:	e17ffd17 	ldw	r5,-12(fp)
 20029d0:	e1bffe17 	ldw	r6,-8(fp)
 20029d4:	180f883a 	mov	r7,r3
 20029d8:	2002b740 	call	2002b74 <vid_print_char>
    i++;
 20029dc:	e0bffa17 	ldw	r2,-24(fp)
 20029e0:	10800044 	addi	r2,r2,1
 20029e4:	e0bffa15 	stw	r2,-24(fp)
    horiz_offset += 8;
 20029e8:	e0bffc17 	ldw	r2,-16(fp)
 20029ec:	10800204 	addi	r2,r2,8
 20029f0:	e0bffc15 	stw	r2,-16(fp)
  int original_horiz_offset;

  original_horiz_offset = horiz_offset;

  // Print until we hit the '\0' char.
  while (string[i]) {
 20029f4:	e0bffa17 	ldw	r2,-24(fp)
 20029f8:	e0c00317 	ldw	r3,12(fp)
 20029fc:	1885883a 	add	r2,r3,r2
 2002a00:	10800003 	ldbu	r2,0(r2)
 2002a04:	10803fcc 	andi	r2,r2,255
 2002a08:	1080201c 	xori	r2,r2,128
 2002a0c:	10bfe004 	addi	r2,r2,-128
 2002a10:	103fd01e 	bne	r2,zero,2002954 <__alt_mem_pic_mem+0xfdffe954>
    // Lay down that character and increment our offsets.
    vid_print_char (horiz_offset, vert_offset, color, string[i], font, display);
    i++;
    horiz_offset += 8;
  }
  return (0);
 2002a14:	0005883a 	mov	r2,zero
}
 2002a18:	e037883a 	mov	sp,fp
 2002a1c:	dfc00117 	ldw	ra,4(sp)
 2002a20:	df000017 	ldw	fp,0(sp)
 2002a24:	dec00204 	addi	sp,sp,8
 2002a28:	f800283a 	ret

02002a2c <vid_draw_box>:
*  points.  The fill parameter tells the function whether or not
*  to fill in the box.  1 = fill, 0 = do not fill.
*
******************************************************************/
int vid_draw_box (int horiz_start, int vert_start, int horiz_end, int vert_end, int color, int fill, alt_video_display* display)
{
 2002a2c:	defff704 	addi	sp,sp,-36
 2002a30:	dfc00815 	stw	ra,32(sp)
 2002a34:	df000715 	stw	fp,28(sp)
 2002a38:	df000704 	addi	fp,sp,28
 2002a3c:	e13ffc15 	stw	r4,-16(fp)
 2002a40:	e17ffd15 	stw	r5,-12(fp)
 2002a44:	e1bffe15 	stw	r6,-8(fp)
 2002a48:	e1ffff15 	stw	r7,-4(fp)

  // If we want to fill in our box
  if (fill) {
 2002a4c:	e0800317 	ldw	r2,12(fp)
 2002a50:	10000a26 	beq	r2,zero,2002a7c <vid_draw_box+0x50>
     vid_paint_block (horiz_start, vert_start, horiz_end, vert_end, color, display);
 2002a54:	e0800217 	ldw	r2,8(fp)
 2002a58:	d8800015 	stw	r2,0(sp)
 2002a5c:	e0800417 	ldw	r2,16(fp)
 2002a60:	d8800115 	stw	r2,4(sp)
 2002a64:	e13ffc17 	ldw	r4,-16(fp)
 2002a68:	e17ffd17 	ldw	r5,-12(fp)
 2002a6c:	e1bffe17 	ldw	r6,-8(fp)
 2002a70:	e1ffff17 	ldw	r7,-4(fp)
 2002a74:	2002d400 	call	2002d40 <vid_paint_block>
 2002a78:	00003806 	br	2002b5c <vid_draw_box+0x130>
  // If we're not filling in the box, just draw four lines.
  } else {
    vid_draw_line(horiz_start, vert_start, horiz_start, vert_end-1, 1, color, display);
 2002a7c:	e0bfff17 	ldw	r2,-4(fp)
 2002a80:	10ffffc4 	addi	r3,r2,-1
 2002a84:	00800044 	movi	r2,1
 2002a88:	d8800015 	stw	r2,0(sp)
 2002a8c:	e0800217 	ldw	r2,8(fp)
 2002a90:	d8800115 	stw	r2,4(sp)
 2002a94:	e0800417 	ldw	r2,16(fp)
 2002a98:	d8800215 	stw	r2,8(sp)
 2002a9c:	e13ffc17 	ldw	r4,-16(fp)
 2002aa0:	e17ffd17 	ldw	r5,-12(fp)
 2002aa4:	e1bffc17 	ldw	r6,-16(fp)
 2002aa8:	180f883a 	mov	r7,r3
 2002aac:	20022400 	call	2002240 <vid_draw_line>
    vid_draw_line(horiz_end-1, vert_start, horiz_end-1, vert_end-1, 1, color, display);
 2002ab0:	e0bffe17 	ldw	r2,-8(fp)
 2002ab4:	113fffc4 	addi	r4,r2,-1
 2002ab8:	e0bffe17 	ldw	r2,-8(fp)
 2002abc:	11bfffc4 	addi	r6,r2,-1
 2002ac0:	e0bfff17 	ldw	r2,-4(fp)
 2002ac4:	10ffffc4 	addi	r3,r2,-1
 2002ac8:	00800044 	movi	r2,1
 2002acc:	d8800015 	stw	r2,0(sp)
 2002ad0:	e0800217 	ldw	r2,8(fp)
 2002ad4:	d8800115 	stw	r2,4(sp)
 2002ad8:	e0800417 	ldw	r2,16(fp)
 2002adc:	d8800215 	stw	r2,8(sp)
 2002ae0:	e17ffd17 	ldw	r5,-12(fp)
 2002ae4:	180f883a 	mov	r7,r3
 2002ae8:	20022400 	call	2002240 <vid_draw_line>
    vid_draw_line(horiz_start, vert_start, horiz_end-1, vert_start, 1, color, display);
 2002aec:	e0bffe17 	ldw	r2,-8(fp)
 2002af0:	10ffffc4 	addi	r3,r2,-1
 2002af4:	00800044 	movi	r2,1
 2002af8:	d8800015 	stw	r2,0(sp)
 2002afc:	e0800217 	ldw	r2,8(fp)
 2002b00:	d8800115 	stw	r2,4(sp)
 2002b04:	e0800417 	ldw	r2,16(fp)
 2002b08:	d8800215 	stw	r2,8(sp)
 2002b0c:	e13ffc17 	ldw	r4,-16(fp)
 2002b10:	e17ffd17 	ldw	r5,-12(fp)
 2002b14:	180d883a 	mov	r6,r3
 2002b18:	e1fffd17 	ldw	r7,-12(fp)
 2002b1c:	20022400 	call	2002240 <vid_draw_line>
    vid_draw_line(horiz_start, vert_end-1, horiz_end-1, vert_end-1, 1, color, display);
 2002b20:	e0bfff17 	ldw	r2,-4(fp)
 2002b24:	117fffc4 	addi	r5,r2,-1
 2002b28:	e0bffe17 	ldw	r2,-8(fp)
 2002b2c:	11bfffc4 	addi	r6,r2,-1
 2002b30:	e0bfff17 	ldw	r2,-4(fp)
 2002b34:	10ffffc4 	addi	r3,r2,-1
 2002b38:	00800044 	movi	r2,1
 2002b3c:	d8800015 	stw	r2,0(sp)
 2002b40:	e0800217 	ldw	r2,8(fp)
 2002b44:	d8800115 	stw	r2,4(sp)
 2002b48:	e0800417 	ldw	r2,16(fp)
 2002b4c:	d8800215 	stw	r2,8(sp)
 2002b50:	e13ffc17 	ldw	r4,-16(fp)
 2002b54:	180f883a 	mov	r7,r3
 2002b58:	20022400 	call	2002240 <vid_draw_line>
  }

  return (0);
 2002b5c:	0005883a 	mov	r2,zero
}
 2002b60:	e037883a 	mov	sp,fp
 2002b64:	dfc00117 	ldw	ra,4(sp)
 2002b68:	df000017 	ldw	fp,0(sp)
 2002b6c:	dec00204 	addi	sp,sp,8
 2002b70:	f800283a 	ret

02002b74 <vid_print_char>:
*           screen using the specified font and color.
*
******************************************************************/

int vid_print_char (int horiz_offset, int vert_offset, int color, char character, char *font, alt_video_display* display)
{
 2002b74:	defff704 	addi	sp,sp,-36
 2002b78:	dfc00815 	stw	ra,32(sp)
 2002b7c:	df000715 	stw	fp,28(sp)
 2002b80:	df000704 	addi	fp,sp,28
 2002b84:	e13ffc15 	stw	r4,-16(fp)
 2002b88:	e17ffd15 	stw	r5,-12(fp)
 2002b8c:	e1bffe15 	stw	r6,-8(fp)
 2002b90:	3805883a 	mov	r2,r7
 2002b94:	e0bfff05 	stb	r2,-4(fp)
  int i, j;
  
  char temp_char, char_row;

  // Convert the ASCII value to an array offset
  temp_char = (character - 0x20);
 2002b98:	e0bfff03 	ldbu	r2,-4(fp)
 2002b9c:	10bff804 	addi	r2,r2,-32
 2002ba0:	e0bffb05 	stb	r2,-20(fp)

  //Each character is 8 pixels wide and 11 tall.
  for(i = 0; i < 11; i++) {
 2002ba4:	e03ff915 	stw	zero,-28(fp)
 2002ba8:	00002506 	br	2002c40 <vid_print_char+0xcc>
      char_row = *(font + (temp_char * FONT_10PT_ROW) + i);
 2002bac:	e0bffb07 	ldb	r2,-20(fp)
 2002bb0:	108002e4 	muli	r2,r2,11
 2002bb4:	1007883a 	mov	r3,r2
 2002bb8:	e0bff917 	ldw	r2,-28(fp)
 2002bbc:	1885883a 	add	r2,r3,r2
 2002bc0:	e0c00217 	ldw	r3,8(fp)
 2002bc4:	1885883a 	add	r2,r3,r2
 2002bc8:	10800003 	ldbu	r2,0(r2)
 2002bcc:	e0bffb45 	stb	r2,-19(fp)
    for (j = 0; j < 8; j++) {
 2002bd0:	e03ffa15 	stw	zero,-24(fp)
 2002bd4:	00001406 	br	2002c28 <vid_print_char+0xb4>
      //If the font table says the pixel in this location is on for this character, then set it.
      if (char_row & (((unsigned char)0x80) >> j)) {
 2002bd8:	e0fffb47 	ldb	r3,-19(fp)
 2002bdc:	01002004 	movi	r4,128
 2002be0:	e0bffa17 	ldw	r2,-24(fp)
 2002be4:	2085d83a 	sra	r2,r4,r2
 2002be8:	1884703a 	and	r2,r3,r2
 2002bec:	10000b26 	beq	r2,zero,2002c1c <vid_print_char+0xa8>
        vid_set_pixel((horiz_offset + j), (vert_offset + i), color, display); // plot the pixel
 2002bf0:	e0fffc17 	ldw	r3,-16(fp)
 2002bf4:	e0bffa17 	ldw	r2,-24(fp)
 2002bf8:	1889883a 	add	r4,r3,r2
 2002bfc:	e0fffd17 	ldw	r3,-12(fp)
 2002c00:	e0bff917 	ldw	r2,-28(fp)
 2002c04:	1887883a 	add	r3,r3,r2
 2002c08:	e0bffe17 	ldw	r2,-8(fp)
 2002c0c:	180b883a 	mov	r5,r3
 2002c10:	100d883a 	mov	r6,r2
 2002c14:	e1c00317 	ldw	r7,12(fp)
 2002c18:	2002c640 	call	2002c64 <vid_set_pixel>
  temp_char = (character - 0x20);

  //Each character is 8 pixels wide and 11 tall.
  for(i = 0; i < 11; i++) {
      char_row = *(font + (temp_char * FONT_10PT_ROW) + i);
    for (j = 0; j < 8; j++) {
 2002c1c:	e0bffa17 	ldw	r2,-24(fp)
 2002c20:	10800044 	addi	r2,r2,1
 2002c24:	e0bffa15 	stw	r2,-24(fp)
 2002c28:	e0bffa17 	ldw	r2,-24(fp)
 2002c2c:	10800210 	cmplti	r2,r2,8
 2002c30:	103fe91e 	bne	r2,zero,2002bd8 <__alt_mem_pic_mem+0xfdffebd8>

  // Convert the ASCII value to an array offset
  temp_char = (character - 0x20);

  //Each character is 8 pixels wide and 11 tall.
  for(i = 0; i < 11; i++) {
 2002c34:	e0bff917 	ldw	r2,-28(fp)
 2002c38:	10800044 	addi	r2,r2,1
 2002c3c:	e0bff915 	stw	r2,-28(fp)
 2002c40:	e0bff917 	ldw	r2,-28(fp)
 2002c44:	108002d0 	cmplti	r2,r2,11
 2002c48:	103fd81e 	bne	r2,zero,2002bac <__alt_mem_pic_mem+0xfdffebac>
      if (char_row & (((unsigned char)0x80) >> j)) {
        vid_set_pixel((horiz_offset + j), (vert_offset + i), color, display); // plot the pixel
      }
    }
  }
  return(0);
 2002c4c:	0005883a 	mov	r2,zero
}
 2002c50:	e037883a 	mov	sp,fp
 2002c54:	dfc00117 	ldw	ra,4(sp)
 2002c58:	df000017 	ldw	fp,0(sp)
 2002c5c:	dec00204 	addi	sp,sp,8
 2002c60:	f800283a 	ret

02002c64 <vid_set_pixel>:
*           efficient when painting large areas of the screen.
*
******************************************************************/

void vid_set_pixel(int horiz, int vert, unsigned int color, alt_video_display* display)
{
 2002c64:	defff904 	addi	sp,sp,-28
 2002c68:	dfc00615 	stw	ra,24(sp)
 2002c6c:	df000515 	stw	fp,20(sp)
 2002c70:	df000504 	addi	fp,sp,20
 2002c74:	e13ffc15 	stw	r4,-16(fp)
 2002c78:	e17ffd15 	stw	r5,-12(fp)
 2002c7c:	e1bffe15 	stw	r6,-8(fp)
 2002c80:	e1ffff15 	stw	r7,-4(fp)
#ifdef LT24
	alt_u16 color16;


	// encode to RGB  5 6 5
	color16 = (color & 0xFF) >> 3; // blue
 2002c84:	e0bffe17 	ldw	r2,-8(fp)
 2002c88:	10803fcc 	andi	r2,r2,255
 2002c8c:	1004d0fa 	srli	r2,r2,3
 2002c90:	e0bffb0d 	sth	r2,-20(fp)
	color16 |= (color & 0xFC00) >> 5; // green
 2002c94:	e0bffe17 	ldw	r2,-8(fp)
 2002c98:	10bf000c 	andi	r2,r2,64512
 2002c9c:	1004d17a 	srli	r2,r2,5
 2002ca0:	1007883a 	mov	r3,r2
 2002ca4:	e0bffb0b 	ldhu	r2,-20(fp)
 2002ca8:	1884b03a 	or	r2,r3,r2
 2002cac:	e0bffb0d 	sth	r2,-20(fp)
	color16 |= (color & 0xF80000) >> 8; // blue
 2002cb0:	e0bffe17 	ldw	r2,-8(fp)
 2002cb4:	10803e2c 	andhi	r2,r2,248
 2002cb8:	1004d23a 	srli	r2,r2,8
 2002cbc:	1007883a 	mov	r3,r2
 2002cc0:	e0bffb0b 	ldhu	r2,-20(fp)
 2002cc4:	1884b03a 	or	r2,r3,r2
 2002cc8:	e0bffb0d 	sth	r2,-20(fp)
	LCD_DrawPoint(horiz, vert, color16);
 2002ccc:	e0bffc17 	ldw	r2,-16(fp)
 2002cd0:	113fffcc 	andi	r4,r2,65535
 2002cd4:	e0bffd17 	ldw	r2,-12(fp)
 2002cd8:	10ffffcc 	andi	r3,r2,65535
 2002cdc:	e0bffb0b 	ldhu	r2,-20(fp)
 2002ce0:	180b883a 	mov	r5,r3
 2002ce4:	100d883a 	mov	r6,r2
 2002ce8:	20014880 	call	2001488 <LCD_DrawPoint>
  	addr = ( ( (int)(VIPFR_GetDrawFrame(display)) )+ (vert * (display->width * 2)) + horiz * 2);
  	IOWR_16DIRECT( addr, 0, (int)(color));
	}
#endif

}
 2002cec:	e037883a 	mov	sp,fp
 2002cf0:	dfc00117 	ldw	ra,4(sp)
 2002cf4:	df000017 	ldw	fp,0(sp)
 2002cf8:	dec00204 	addi	sp,sp,8
 2002cfc:	f800283a 	ret

02002d00 <vid_get_pixel>:
*  Purpose: Reads the color of the pixel at the given coordinates
*
******************************************************************/

short vid_get_pixel(int horiz, int vert, alt_video_display* display)
{
 2002d00:	defffb04 	addi	sp,sp,-20
 2002d04:	dfc00415 	stw	ra,16(sp)
 2002d08:	df000315 	stw	fp,12(sp)
 2002d0c:	df000304 	addi	fp,sp,12
 2002d10:	e13ffd15 	stw	r4,-12(fp)
 2002d14:	e17ffe15 	stw	r5,-8(fp)
 2002d18:	e1bfff15 	stw	r6,-4(fp)
#ifdef LT24
	printf("vid_get_pixel is not implemented\r\n");
 2002d1c:	010080b4 	movhi	r4,514
 2002d20:	2116fb04 	addi	r4,r4,23532
 2002d24:	2008f100 	call	2008f10 <puts>
	return(0);
 2002d28:	0005883a 	mov	r2,zero
  int addr;
  
  addr = ( ( (int)(VIPFR_GetDrawFrame(display)) )+ (vert * (display->width * 2)) + horiz * 2);
  return(IORD_16DIRECT(addr, 0));
#endif
}
 2002d2c:	e037883a 	mov	sp,fp
 2002d30:	dfc00117 	ldw	ra,4(sp)
 2002d34:	df000017 	ldw	fp,0(sp)
 2002d38:	dec00204 	addi	sp,sp,8
 2002d3c:	f800283a 	ret

02002d40 <vid_paint_block>:
*           The color parameter must contain two pixel's worth
*           (32 bits).
*
******************************************************************/
void vid_paint_block (int Hstart,int Vstart, int Hend, int Vend, int color, alt_video_display* display)
{
 2002d40:	defff804 	addi	sp,sp,-32
 2002d44:	dfc00715 	stw	ra,28(sp)
 2002d48:	df000615 	stw	fp,24(sp)
 2002d4c:	df000604 	addi	fp,sp,24
 2002d50:	e13ffc15 	stw	r4,-16(fp)
 2002d54:	e17ffd15 	stw	r5,-12(fp)
 2002d58:	e1bffe15 	stw	r6,-8(fp)
 2002d5c:	e1ffff15 	stw	r7,-4(fp)
#ifdef LT24
	int x,y;
	for(y=Vstart;y<Vend;y++){
 2002d60:	e0bffd17 	ldw	r2,-12(fp)
 2002d64:	e0bffb15 	stw	r2,-20(fp)
 2002d68:	00001206 	br	2002db4 <vid_paint_block+0x74>
		for(x=Hstart;x<Hend;x++){
 2002d6c:	e0bffc17 	ldw	r2,-16(fp)
 2002d70:	e0bffa15 	stw	r2,-24(fp)
 2002d74:	00000906 	br	2002d9c <vid_paint_block+0x5c>
			vid_set_pixel(x, y, color, display);
 2002d78:	e0800217 	ldw	r2,8(fp)
 2002d7c:	e13ffa17 	ldw	r4,-24(fp)
 2002d80:	e17ffb17 	ldw	r5,-20(fp)
 2002d84:	100d883a 	mov	r6,r2
 2002d88:	e1c00317 	ldw	r7,12(fp)
 2002d8c:	2002c640 	call	2002c64 <vid_set_pixel>
void vid_paint_block (int Hstart,int Vstart, int Hend, int Vend, int color, alt_video_display* display)
{
#ifdef LT24
	int x,y;
	for(y=Vstart;y<Vend;y++){
		for(x=Hstart;x<Hend;x++){
 2002d90:	e0bffa17 	ldw	r2,-24(fp)
 2002d94:	10800044 	addi	r2,r2,1
 2002d98:	e0bffa15 	stw	r2,-24(fp)
 2002d9c:	e0fffa17 	ldw	r3,-24(fp)
 2002da0:	e0bffe17 	ldw	r2,-8(fp)
 2002da4:	18bff416 	blt	r3,r2,2002d78 <__alt_mem_pic_mem+0xfdffed78>
******************************************************************/
void vid_paint_block (int Hstart,int Vstart, int Hend, int Vend, int color, alt_video_display* display)
{
#ifdef LT24
	int x,y;
	for(y=Vstart;y<Vend;y++){
 2002da8:	e0bffb17 	ldw	r2,-20(fp)
 2002dac:	10800044 	addi	r2,r2,1
 2002db0:	e0bffb15 	stw	r2,-20(fp)
 2002db4:	e0fffb17 	ldw	r3,-20(fp)
 2002db8:	e0bfff17 	ldw	r2,-4(fp)
 2002dbc:	18bfeb16 	blt	r3,r2,2002d6c <__alt_mem_pic_mem+0xfdffed6c>
    memcpy( (void*)addr, line, bytes_per_line );
    addr += (display->width * bytes_per_pixel);
  }
  free (line);
#endif
}
 2002dc0:	e037883a 	mov	sp,fp
 2002dc4:	dfc00117 	ldw	ra,4(sp)
 2002dc8:	df000017 	ldw	fp,0(sp)
 2002dcc:	dec00204 	addi	sp,sp,8
 2002dd0:	f800283a 	ret

02002dd4 <vid_draw_horiz_line>:
*  Purpose: Draws a horizontal line on the screen quickly.
*           Good for filling stuff.
*
******************************************************************/
void vid_draw_horiz_line (short Hstart, short Hend, int V, int color, alt_video_display* display)
{
 2002dd4:	defff904 	addi	sp,sp,-28
 2002dd8:	dfc00615 	stw	ra,24(sp)
 2002ddc:	df000515 	stw	fp,20(sp)
 2002de0:	df000504 	addi	fp,sp,20
 2002de4:	2007883a 	mov	r3,r4
 2002de8:	2805883a 	mov	r2,r5
 2002dec:	e1bffe15 	stw	r6,-8(fp)
 2002df0:	e1ffff15 	stw	r7,-4(fp)
 2002df4:	e0fffc0d 	sth	r3,-16(fp)
 2002df8:	e0bffd0d 	sth	r2,-12(fp)
#ifdef LT24
	int x;
	for(x=Hstart;x<Hend;x++){
 2002dfc:	e0bffc0f 	ldh	r2,-16(fp)
 2002e00:	e0bffb15 	stw	r2,-20(fp)
 2002e04:	00000906 	br	2002e2c <vid_draw_horiz_line+0x58>
		vid_set_pixel(x, V, color, display);
 2002e08:	e0bfff17 	ldw	r2,-4(fp)
 2002e0c:	e13ffb17 	ldw	r4,-20(fp)
 2002e10:	e17ffe17 	ldw	r5,-8(fp)
 2002e14:	100d883a 	mov	r6,r2
 2002e18:	e1c00217 	ldw	r7,8(fp)
 2002e1c:	2002c640 	call	2002c64 <vid_set_pixel>
******************************************************************/
void vid_draw_horiz_line (short Hstart, short Hend, int V, int color, alt_video_display* display)
{
#ifdef LT24
	int x;
	for(x=Hstart;x<Hend;x++){
 2002e20:	e0bffb17 	ldw	r2,-20(fp)
 2002e24:	10800044 	addi	r2,r2,1
 2002e28:	e0bffb15 	stw	r2,-20(fp)
 2002e2c:	e0bffd0f 	ldh	r2,-12(fp)
 2002e30:	e0fffb17 	ldw	r3,-20(fp)
 2002e34:	18bff416 	blt	r3,r2,2002e08 <__alt_mem_pic_mem+0xfdffee08>
    memcpy( (void*)addr, fast_buffer, bytes_per_line );
  }
  free(fast_buffer);
#endif

}
 2002e38:	e037883a 	mov	sp,fp
 2002e3c:	dfc00117 	ldw	ra,4(sp)
 2002e40:	df000017 	ldw	fp,0(sp)
 2002e44:	dec00204 	addi	sp,sp,8
 2002e48:	f800283a 	ret

02002e4c <vid_merge_colors>:
*  Purpose: Takes 5-bit color values for each red, green, and blue
*           and merges them into one 16-bit color value.
*
******************************************************************/
int vid_merge_colors(int red, int green, int blue)
{
 2002e4c:	defffc04 	addi	sp,sp,-16
 2002e50:	df000315 	stw	fp,12(sp)
 2002e54:	df000304 	addi	fp,sp,12
 2002e58:	e13ffd15 	stw	r4,-12(fp)
 2002e5c:	e17ffe15 	stw	r5,-8(fp)
 2002e60:	e1bfff15 	stw	r6,-4(fp)
  // Green actually has 6-bits, but we'll make it's LSB 1 to be consistent.
  return ((blue) | (((green << 1) | 0x1) << 5) | (red << 11));
 2002e64:	e0bffe17 	ldw	r2,-8(fp)
 2002e68:	1085883a 	add	r2,r2,r2
 2002e6c:	10800054 	ori	r2,r2,1
 2002e70:	1006917a 	slli	r3,r2,5
 2002e74:	e0bfff17 	ldw	r2,-4(fp)
 2002e78:	1886b03a 	or	r3,r3,r2
 2002e7c:	e0bffd17 	ldw	r2,-12(fp)
 2002e80:	100492fa 	slli	r2,r2,11
 2002e84:	1884b03a 	or	r2,r3,r2
}
 2002e88:	e037883a 	mov	sp,fp
 2002e8c:	df000017 	ldw	fp,0(sp)
 2002e90:	dec00104 	addi	sp,sp,4
 2002e94:	f800283a 	ret

02002e98 <vid_color_convert24_16>:
*           sample and converts it to 16-bits, displayable by the 
*           VGA controller in 16-bit mode
*
******************************************************************/
unsigned short vid_color_convert24_16(char* color24)
{
 2002e98:	defffc04 	addi	sp,sp,-16
 2002e9c:	df000315 	stw	fp,12(sp)
 2002ea0:	df000304 	addi	fp,sp,12
 2002ea4:	e13fff15 	stw	r4,-4(fp)
	unsigned char red, green, blue;
	unsigned short output;
	
	red = *(color24 + 0) & 0xF8;
 2002ea8:	e0bfff17 	ldw	r2,-4(fp)
 2002eac:	10800003 	ldbu	r2,0(r2)
 2002eb0:	1007883a 	mov	r3,r2
 2002eb4:	00bffe04 	movi	r2,-8
 2002eb8:	1884703a 	and	r2,r3,r2
 2002ebc:	e0bffd05 	stb	r2,-12(fp)
	green = *(color24 + 1) & 0xFC; // green is actualy 6 bits
 2002ec0:	e0bfff17 	ldw	r2,-4(fp)
 2002ec4:	10800044 	addi	r2,r2,1
 2002ec8:	10800003 	ldbu	r2,0(r2)
 2002ecc:	1007883a 	mov	r3,r2
 2002ed0:	00bfff04 	movi	r2,-4
 2002ed4:	1884703a 	and	r2,r3,r2
 2002ed8:	e0bffd45 	stb	r2,-11(fp)
	blue = *(color24 + 2) & 0xF8;
 2002edc:	e0bfff17 	ldw	r2,-4(fp)
 2002ee0:	10800084 	addi	r2,r2,2
 2002ee4:	10800003 	ldbu	r2,0(r2)
 2002ee8:	1007883a 	mov	r3,r2
 2002eec:	00bffe04 	movi	r2,-8
 2002ef0:	1884703a 	and	r2,r3,r2
 2002ef4:	e0bffd85 	stb	r2,-10(fp)

	output = ((blue >> 3) | (green << 3) | (red << 8));  
 2002ef8:	e0bffd83 	ldbu	r2,-10(fp)
 2002efc:	1004d0fa 	srli	r2,r2,3
 2002f00:	10803fcc 	andi	r2,r2,255
 2002f04:	e0fffd43 	ldbu	r3,-11(fp)
 2002f08:	180690fa 	slli	r3,r3,3
 2002f0c:	10c4b03a 	or	r2,r2,r3
 2002f10:	1007883a 	mov	r3,r2
 2002f14:	e0bffd03 	ldbu	r2,-12(fp)
 2002f18:	1004923a 	slli	r2,r2,8
 2002f1c:	1884b03a 	or	r2,r3,r2
 2002f20:	e0bffe0d 	sth	r2,-8(fp)
	return output;
 2002f24:	e0bffe0b 	ldhu	r2,-8(fp)
}
 2002f28:	e037883a 	mov	sp,fp
 2002f2c:	df000017 	ldw	fp,0(sp)
 2002f30:	dec00104 	addi	sp,sp,4
 2002f34:	f800283a 	ret

02002f38 <vid_color_convert16_24>:
*           sample and converts it to 16-bits, displayable by the 
*           VGA controller in 16-bit mode
*
******************************************************************/
int vid_color_convert16_24(unsigned short color16, char* color24)
{
 2002f38:	defffd04 	addi	sp,sp,-12
 2002f3c:	df000215 	stw	fp,8(sp)
 2002f40:	df000204 	addi	fp,sp,8
 2002f44:	2005883a 	mov	r2,r4
 2002f48:	e17fff15 	stw	r5,-4(fp)
 2002f4c:	e0bffe0d 	sth	r2,-8(fp)
	*(color24 + 0) = color16 >> 11;
 2002f50:	e0bffe0b 	ldhu	r2,-8(fp)
 2002f54:	1004d2fa 	srli	r2,r2,11
 2002f58:	1007883a 	mov	r3,r2
 2002f5c:	e0bfff17 	ldw	r2,-4(fp)
 2002f60:	10c00005 	stb	r3,0(r2)
	*(color24 + 1) = ((color16 & 0x3E) >> 5);
 2002f64:	e0bfff17 	ldw	r2,-4(fp)
 2002f68:	10800044 	addi	r2,r2,1
 2002f6c:	e0fffe0b 	ldhu	r3,-8(fp)
 2002f70:	18c00f8c 	andi	r3,r3,62
 2002f74:	1807d17a 	srai	r3,r3,5
 2002f78:	10c00005 	stb	r3,0(r2)
	*(color24 + 2) = (color16 & 0x1F);
 2002f7c:	e0bfff17 	ldw	r2,-4(fp)
 2002f80:	10800084 	addi	r2,r2,2
 2002f84:	e0fffe0b 	ldhu	r3,-8(fp)
 2002f88:	18c007cc 	andi	r3,r3,31
 2002f8c:	10c00005 	stb	r3,0(r2)
	
	return (0);
 2002f90:	0005883a 	mov	r2,zero
}
 2002f94:	e037883a 	mov	sp,fp
 2002f98:	df000017 	ldw	fp,0(sp)
 2002f9c:	dec00104 	addi	sp,sp,4
 2002fa0:	f800283a 	ret

02002fa4 <vid_copy_line_to_frame_buffer>:
*           the specified coordinates.  Converts color depth if
*           necessary.
*
******************************************************************/
int vid_copy_line_to_frame_buffer( int x, int y, char* buffer, int num_pixels, int source_color_depth, alt_video_display* display )
{
 2002fa4:	defffa04 	addi	sp,sp,-24
 2002fa8:	dfc00515 	stw	ra,20(sp)
 2002fac:	df000415 	stw	fp,16(sp)
 2002fb0:	df000404 	addi	fp,sp,16
 2002fb4:	e13ffc15 	stw	r4,-16(fp)
 2002fb8:	e17ffd15 	stw	r5,-12(fp)
 2002fbc:	e1bffe15 	stw	r6,-8(fp)
 2002fc0:	e1ffff15 	stw	r7,-4(fp)
#ifdef LT24
	printf("vid_copy_line_to_frame_buffer is not implemented!\r\n");
 2002fc4:	010080b4 	movhi	r4,514
 2002fc8:	21170404 	addi	r4,r4,23568
 2002fcc:	2008f100 	call	2008f10 <puts>
	return(0);
 2002fd0:	0005883a 	mov	r2,zero
      memcpy( (void*)dest_addr, (void*)buffer, bytes_in_line );
    }
  }
  return(0);
#endif
}
 2002fd4:	e037883a 	mov	sp,fp
 2002fd8:	dfc00117 	ldw	ra,4(sp)
 2002fdc:	df000017 	ldw	fp,0(sp)
 2002fe0:	dec00204 	addi	sp,sp,8
 2002fe4:	f800283a 	ret

02002fe8 <vid_draw_sloped_line>:
                           unsigned short horiz_end, 
                           unsigned short vert_end, 
                           unsigned short width, 
                           int color, 
                           alt_video_display* display)
{
 2002fe8:	deffef04 	addi	sp,sp,-68
 2002fec:	dfc01015 	stw	ra,64(sp)
 2002ff0:	df000f15 	stw	fp,60(sp)
 2002ff4:	df000f04 	addi	fp,sp,60
 2002ff8:	2011883a 	mov	r8,r4
 2002ffc:	3009883a 	mov	r4,r6
 2003000:	3807883a 	mov	r3,r7
 2003004:	e0800217 	ldw	r2,8(fp)
 2003008:	e23ffb0d 	sth	r8,-20(fp)
 200300c:	e17ffc0d 	sth	r5,-16(fp)
 2003010:	e13ffd0d 	sth	r4,-12(fp)
 2003014:	e0fffe0d 	sth	r3,-8(fp)
 2003018:	e0bfff0d 	sth	r2,-4(fp)
  // Find the vertical and horizontal distance between the two points
  int horiz_delta = abs(horiz_end-horiz_start);
 200301c:	e0fffd0b 	ldhu	r3,-12(fp)
 2003020:	e0bffb0b 	ldhu	r2,-20(fp)
 2003024:	1885c83a 	sub	r2,r3,r2
 2003028:	1000010e 	bge	r2,zero,2003030 <vid_draw_sloped_line+0x48>
 200302c:	0085c83a 	sub	r2,zero,r2
 2003030:	e0bff115 	stw	r2,-60(fp)
  int vert_delta = abs(vert_end-vert_start);
 2003034:	e0fffe0b 	ldhu	r3,-8(fp)
 2003038:	e0bffc0b 	ldhu	r2,-16(fp)
 200303c:	1885c83a 	sub	r2,r3,r2
 2003040:	1000010e 	bge	r2,zero,2003048 <vid_draw_sloped_line+0x60>
 2003044:	0085c83a 	sub	r2,zero,r2
 2003048:	e0bff215 	stw	r2,-56(fp)

  // Find out what direction we are going
  int horiz_incr, vert_incr;
  if (horiz_start > horiz_end) { horiz_incr=-1; } else { horiz_incr=1; }
 200304c:	e0bffb0b 	ldhu	r2,-20(fp)
 2003050:	e0fffd0b 	ldhu	r3,-12(fp)
 2003054:	1880032e 	bgeu	r3,r2,2003064 <vid_draw_sloped_line+0x7c>
 2003058:	00bfffc4 	movi	r2,-1
 200305c:	e0bff315 	stw	r2,-52(fp)
 2003060:	00000206 	br	200306c <vid_draw_sloped_line+0x84>
 2003064:	00800044 	movi	r2,1
 2003068:	e0bff315 	stw	r2,-52(fp)
  if (vert_start > vert_end) { vert_incr=-1; } else { vert_incr=1; }
 200306c:	e0bffc0b 	ldhu	r2,-16(fp)
 2003070:	e0fffe0b 	ldhu	r3,-8(fp)
 2003074:	1880032e 	bgeu	r3,r2,2003084 <vid_draw_sloped_line+0x9c>
 2003078:	00bfffc4 	movi	r2,-1
 200307c:	e0bff415 	stw	r2,-48(fp)
 2003080:	00000206 	br	200308c <vid_draw_sloped_line+0xa4>
 2003084:	00800044 	movi	r2,1
 2003088:	e0bff415 	stw	r2,-48(fp)

  // Find out which axis is always incremented when drawing the line
  // If it's the horizontal axis
  if (horiz_delta >= vert_delta) {
 200308c:	e0fff117 	ldw	r3,-60(fp)
 2003090:	e0bff217 	ldw	r2,-56(fp)
 2003094:	18803516 	blt	r3,r2,200316c <vid_draw_sloped_line+0x184>
    int dPr   = vert_delta<<1;
 2003098:	e0bff217 	ldw	r2,-56(fp)
 200309c:	1085883a 	add	r2,r2,r2
 20030a0:	e0bff715 	stw	r2,-36(fp)
    int dPru  = dPr - (horiz_delta<<1);
 20030a4:	e0bff117 	ldw	r2,-60(fp)
 20030a8:	1085883a 	add	r2,r2,r2
 20030ac:	1007883a 	mov	r3,r2
 20030b0:	e0bff717 	ldw	r2,-36(fp)
 20030b4:	10c5c83a 	sub	r2,r2,r3
 20030b8:	e0bff815 	stw	r2,-32(fp)
    int P     = dPr - horiz_delta;
 20030bc:	e0fff717 	ldw	r3,-36(fp)
 20030c0:	e0bff117 	ldw	r2,-60(fp)
 20030c4:	1885c83a 	sub	r2,r3,r2
 20030c8:	e0bff515 	stw	r2,-44(fp)

    // Process the line, one horizontal point at at time
    for (; horiz_delta >= 0; horiz_delta--) {
 20030cc:	00002406 	br	2003160 <vid_draw_sloped_line+0x178>
      // plot the pixel
      vid_set_pixel(horiz_start, vert_start, color, display);
 20030d0:	e13ffb0b 	ldhu	r4,-20(fp)
 20030d4:	e0fffc0b 	ldhu	r3,-16(fp)
 20030d8:	e0800317 	ldw	r2,12(fp)
 20030dc:	180b883a 	mov	r5,r3
 20030e0:	100d883a 	mov	r6,r2
 20030e4:	e1c00417 	ldw	r7,16(fp)
 20030e8:	2002c640 	call	2002c64 <vid_set_pixel>
      // If we're moving both up and right
      if (P > 0) {
 20030ec:	e0bff517 	ldw	r2,-44(fp)
 20030f0:	00800f0e 	bge	zero,r2,2003130 <vid_draw_sloped_line+0x148>
        horiz_start+=horiz_incr;
 20030f4:	e0bff317 	ldw	r2,-52(fp)
 20030f8:	1007883a 	mov	r3,r2
 20030fc:	e0bffb0b 	ldhu	r2,-20(fp)
 2003100:	1885883a 	add	r2,r3,r2
 2003104:	e0bffb0d 	sth	r2,-20(fp)
        vert_start+=vert_incr;
 2003108:	e0bff417 	ldw	r2,-48(fp)
 200310c:	1007883a 	mov	r3,r2
 2003110:	e0bffc0b 	ldhu	r2,-16(fp)
 2003114:	1885883a 	add	r2,r3,r2
 2003118:	e0bffc0d 	sth	r2,-16(fp)
        P+=dPru;
 200311c:	e0fff517 	ldw	r3,-44(fp)
 2003120:	e0bff817 	ldw	r2,-32(fp)
 2003124:	1885883a 	add	r2,r3,r2
 2003128:	e0bff515 	stw	r2,-44(fp)
 200312c:	00000906 	br	2003154 <vid_draw_sloped_line+0x16c>
      } else {
        horiz_start+=horiz_incr;
 2003130:	e0bff317 	ldw	r2,-52(fp)
 2003134:	1007883a 	mov	r3,r2
 2003138:	e0bffb0b 	ldhu	r2,-20(fp)
 200313c:	1885883a 	add	r2,r3,r2
 2003140:	e0bffb0d 	sth	r2,-20(fp)
        P+=dPr;
 2003144:	e0fff517 	ldw	r3,-44(fp)
 2003148:	e0bff717 	ldw	r2,-36(fp)
 200314c:	1885883a 	add	r2,r3,r2
 2003150:	e0bff515 	stw	r2,-44(fp)
    int dPr   = vert_delta<<1;
    int dPru  = dPr - (horiz_delta<<1);
    int P     = dPr - horiz_delta;

    // Process the line, one horizontal point at at time
    for (; horiz_delta >= 0; horiz_delta--) {
 2003154:	e0bff117 	ldw	r2,-60(fp)
 2003158:	10bfffc4 	addi	r2,r2,-1
 200315c:	e0bff115 	stw	r2,-60(fp)
 2003160:	e0bff117 	ldw	r2,-60(fp)
 2003164:	103fda0e 	bge	r2,zero,20030d0 <__alt_mem_pic_mem+0xfdfff0d0>
 2003168:	00003406 	br	200323c <vid_draw_sloped_line+0x254>
        P+=dPr;
      }
    }
  // If it's the vertical axis
  } else {
    int dPr   = horiz_delta<<1;
 200316c:	e0bff117 	ldw	r2,-60(fp)
 2003170:	1085883a 	add	r2,r2,r2
 2003174:	e0bff915 	stw	r2,-28(fp)
    int dPru  = dPr - (vert_delta<<1);
 2003178:	e0bff217 	ldw	r2,-56(fp)
 200317c:	1085883a 	add	r2,r2,r2
 2003180:	1007883a 	mov	r3,r2
 2003184:	e0bff917 	ldw	r2,-28(fp)
 2003188:	10c5c83a 	sub	r2,r2,r3
 200318c:	e0bffa15 	stw	r2,-24(fp)
    int P     = dPr - vert_delta;
 2003190:	e0fff917 	ldw	r3,-28(fp)
 2003194:	e0bff217 	ldw	r2,-56(fp)
 2003198:	1885c83a 	sub	r2,r3,r2
 200319c:	e0bff615 	stw	r2,-40(fp)

    // Process the line, one vertical point at at time
    for (; vert_delta>=0; vert_delta--) {
 20031a0:	00002406 	br	2003234 <vid_draw_sloped_line+0x24c>
      // plot the pixel
      vid_set_pixel(horiz_start, vert_start, color, display);
 20031a4:	e13ffb0b 	ldhu	r4,-20(fp)
 20031a8:	e0fffc0b 	ldhu	r3,-16(fp)
 20031ac:	e0800317 	ldw	r2,12(fp)
 20031b0:	180b883a 	mov	r5,r3
 20031b4:	100d883a 	mov	r6,r2
 20031b8:	e1c00417 	ldw	r7,16(fp)
 20031bc:	2002c640 	call	2002c64 <vid_set_pixel>
      // If we're moving both up and right
      if (P > 0) {
 20031c0:	e0bff617 	ldw	r2,-40(fp)
 20031c4:	00800f0e 	bge	zero,r2,2003204 <vid_draw_sloped_line+0x21c>
        horiz_start+=horiz_incr;
 20031c8:	e0bff317 	ldw	r2,-52(fp)
 20031cc:	1007883a 	mov	r3,r2
 20031d0:	e0bffb0b 	ldhu	r2,-20(fp)
 20031d4:	1885883a 	add	r2,r3,r2
 20031d8:	e0bffb0d 	sth	r2,-20(fp)
        vert_start+=vert_incr;
 20031dc:	e0bff417 	ldw	r2,-48(fp)
 20031e0:	1007883a 	mov	r3,r2
 20031e4:	e0bffc0b 	ldhu	r2,-16(fp)
 20031e8:	1885883a 	add	r2,r3,r2
 20031ec:	e0bffc0d 	sth	r2,-16(fp)
        P+=dPru;
 20031f0:	e0fff617 	ldw	r3,-40(fp)
 20031f4:	e0bffa17 	ldw	r2,-24(fp)
 20031f8:	1885883a 	add	r2,r3,r2
 20031fc:	e0bff615 	stw	r2,-40(fp)
 2003200:	00000906 	br	2003228 <vid_draw_sloped_line+0x240>
      } else {
        vert_start+=vert_incr;
 2003204:	e0bff417 	ldw	r2,-48(fp)
 2003208:	1007883a 	mov	r3,r2
 200320c:	e0bffc0b 	ldhu	r2,-16(fp)
 2003210:	1885883a 	add	r2,r3,r2
 2003214:	e0bffc0d 	sth	r2,-16(fp)
        P+=dPr;
 2003218:	e0fff617 	ldw	r3,-40(fp)
 200321c:	e0bff917 	ldw	r2,-28(fp)
 2003220:	1885883a 	add	r2,r3,r2
 2003224:	e0bff615 	stw	r2,-40(fp)
    int dPr   = horiz_delta<<1;
    int dPru  = dPr - (vert_delta<<1);
    int P     = dPr - vert_delta;

    // Process the line, one vertical point at at time
    for (; vert_delta>=0; vert_delta--) {
 2003228:	e0bff217 	ldw	r2,-56(fp)
 200322c:	10bfffc4 	addi	r2,r2,-1
 2003230:	e0bff215 	stw	r2,-56(fp)
 2003234:	e0bff217 	ldw	r2,-56(fp)
 2003238:	103fda0e 	bge	r2,zero,20031a4 <__alt_mem_pic_mem+0xfdfff1a4>
        vert_start+=vert_incr;
        P+=dPr;
      }
    }
  }
}
 200323c:	e037883a 	mov	sp,fp
 2003240:	dfc00117 	ldw	ra,4(sp)
 2003244:	df000017 	ldw	fp,0(sp)
 2003248:	dec00204 	addi	sp,sp,8
 200324c:	f800283a 	ret

02003250 <vid_draw_circle>:
*  tells the function whether or not to fill in the box.  1 = fill,
*  0 = do not fill.
*
******************************************************************/
int vid_draw_circle(int Hcenter, int Vcenter, int radius, int color, char fill, alt_video_display* display)
{
 2003250:	defff104 	addi	sp,sp,-60
 2003254:	dfc00e15 	stw	ra,56(sp)
 2003258:	df000d15 	stw	fp,52(sp)
 200325c:	df000d04 	addi	fp,sp,52
 2003260:	e13ffb15 	stw	r4,-20(fp)
 2003264:	e17ffc15 	stw	r5,-16(fp)
 2003268:	e1bffd15 	stw	r6,-12(fp)
 200326c:	e1fffe15 	stw	r7,-8(fp)
 2003270:	e0800217 	ldw	r2,8(fp)
 2003274:	e0bfff05 	stb	r2,-4(fp)
  int x = 0;
 2003278:	e03ff815 	stw	zero,-32(fp)
  int y = radius;
 200327c:	e0bffd17 	ldw	r2,-12(fp)
 2003280:	e0bff915 	stw	r2,-28(fp)
  int p = (5 - radius*4)/4;
 2003284:	e0bffd17 	ldw	r2,-12(fp)
 2003288:	10bfff24 	muli	r2,r2,-4
 200328c:	10800144 	addi	r2,r2,5
 2003290:	1000010e 	bge	r2,zero,2003298 <vid_draw_circle+0x48>
 2003294:	108000c4 	addi	r2,r2,3
 2003298:	1005d0ba 	srai	r2,r2,2
 200329c:	e0bffa15 	stw	r2,-24(fp)

  // Start the circle with the top, bottom, left, and right pixels.
  vid_round_corner_points(Hcenter, Vcenter, x, y, 0, 0, color, fill, display);
 20032a0:	e0bfff07 	ldb	r2,-4(fp)
 20032a4:	d8000015 	stw	zero,0(sp)
 20032a8:	d8000115 	stw	zero,4(sp)
 20032ac:	e0fffe17 	ldw	r3,-8(fp)
 20032b0:	d8c00215 	stw	r3,8(sp)
 20032b4:	d8800315 	stw	r2,12(sp)
 20032b8:	e0800317 	ldw	r2,12(fp)
 20032bc:	d8800415 	stw	r2,16(sp)
 20032c0:	e13ffb17 	ldw	r4,-20(fp)
 20032c4:	e17ffc17 	ldw	r5,-16(fp)
 20032c8:	e1bff817 	ldw	r6,-32(fp)
 20032cc:	e1fff917 	ldw	r7,-28(fp)
 20032d0:	20037280 	call	2003728 <vid_round_corner_points>

  // Now start moving out from those points until the lines meet
  while (x < y) {
 20032d4:	00002406 	br	2003368 <vid_draw_circle+0x118>
    x++;
 20032d8:	e0bff817 	ldw	r2,-32(fp)
 20032dc:	10800044 	addi	r2,r2,1
 20032e0:	e0bff815 	stw	r2,-32(fp)
    if (p < 0) {
 20032e4:	e0bffa17 	ldw	r2,-24(fp)
 20032e8:	1000070e 	bge	r2,zero,2003308 <vid_draw_circle+0xb8>
      p += 2*x+1;
 20032ec:	e0bff817 	ldw	r2,-32(fp)
 20032f0:	1085883a 	add	r2,r2,r2
 20032f4:	10800044 	addi	r2,r2,1
 20032f8:	e0fffa17 	ldw	r3,-24(fp)
 20032fc:	1885883a 	add	r2,r3,r2
 2003300:	e0bffa15 	stw	r2,-24(fp)
 2003304:	00000b06 	br	2003334 <vid_draw_circle+0xe4>
    } else {
      y--;
 2003308:	e0bff917 	ldw	r2,-28(fp)
 200330c:	10bfffc4 	addi	r2,r2,-1
 2003310:	e0bff915 	stw	r2,-28(fp)
      p += 2*(x-y)+1;
 2003314:	e0fff817 	ldw	r3,-32(fp)
 2003318:	e0bff917 	ldw	r2,-28(fp)
 200331c:	1885c83a 	sub	r2,r3,r2
 2003320:	1085883a 	add	r2,r2,r2
 2003324:	10800044 	addi	r2,r2,1
 2003328:	e0fffa17 	ldw	r3,-24(fp)
 200332c:	1885883a 	add	r2,r3,r2
 2003330:	e0bffa15 	stw	r2,-24(fp)
    }
    vid_round_corner_points(Hcenter, Vcenter, x, y, 0, 0, color, fill, display);
 2003334:	e0bfff07 	ldb	r2,-4(fp)
 2003338:	d8000015 	stw	zero,0(sp)
 200333c:	d8000115 	stw	zero,4(sp)
 2003340:	e0fffe17 	ldw	r3,-8(fp)
 2003344:	d8c00215 	stw	r3,8(sp)
 2003348:	d8800315 	stw	r2,12(sp)
 200334c:	e0800317 	ldw	r2,12(fp)
 2003350:	d8800415 	stw	r2,16(sp)
 2003354:	e13ffb17 	ldw	r4,-20(fp)
 2003358:	e17ffc17 	ldw	r5,-16(fp)
 200335c:	e1bff817 	ldw	r6,-32(fp)
 2003360:	e1fff917 	ldw	r7,-28(fp)
 2003364:	20037280 	call	2003728 <vid_round_corner_points>

  // Start the circle with the top, bottom, left, and right pixels.
  vid_round_corner_points(Hcenter, Vcenter, x, y, 0, 0, color, fill, display);

  // Now start moving out from those points until the lines meet
  while (x < y) {
 2003368:	e0fff817 	ldw	r3,-32(fp)
 200336c:	e0bff917 	ldw	r2,-28(fp)
 2003370:	18bfd916 	blt	r3,r2,20032d8 <__alt_mem_pic_mem+0xfdfff2d8>
      y--;
      p += 2*(x-y)+1;
    }
    vid_round_corner_points(Hcenter, Vcenter, x, y, 0, 0, color, fill, display);
  }
  return (0);
 2003374:	0005883a 	mov	r2,zero
}
 2003378:	e037883a 	mov	sp,fp
 200337c:	dfc00117 	ldw	ra,4(sp)
 2003380:	df000017 	ldw	fp,0(sp)
 2003384:	dec00204 	addi	sp,sp,8
 2003388:	f800283a 	ret

0200338c <vid_draw_round_corner_box>:
*  to fill in the box.  1 = fill, 0 = do not fill.
*
******************************************************************/
int vid_draw_round_corner_box ( int horiz_start, int vert_start, int horiz_end, int vert_end, 
                                int radius, int color, int fill, alt_video_display* display)
{
 200338c:	deffec04 	addi	sp,sp,-80
 2003390:	dfc01315 	stw	ra,76(sp)
 2003394:	df001215 	stw	fp,72(sp)
 2003398:	df001204 	addi	fp,sp,72
 200339c:	e13ffc15 	stw	r4,-16(fp)
 20033a0:	e17ffd15 	stw	r5,-12(fp)
 20033a4:	e1bffe15 	stw	r6,-8(fp)
 20033a8:	e1ffff15 	stw	r7,-4(fp)
  int diameter;
  int temp;
  unsigned int width, height, straight_width, straight_height;

  // Make sure the start point us up and left of the end point
  if( horiz_start > horiz_end )
 20033ac:	e0bffc17 	ldw	r2,-16(fp)
 20033b0:	e0fffe17 	ldw	r3,-8(fp)
 20033b4:	1880060e 	bge	r3,r2,20033d0 <vid_draw_round_corner_box+0x44>
  {
    temp = horiz_end;
 20033b8:	e0bffe17 	ldw	r2,-8(fp)
 20033bc:	e0bff615 	stw	r2,-40(fp)
    horiz_end = horiz_start;
 20033c0:	e0bffc17 	ldw	r2,-16(fp)
 20033c4:	e0bffe15 	stw	r2,-8(fp)
    horiz_start = temp;
 20033c8:	e0bff617 	ldw	r2,-40(fp)
 20033cc:	e0bffc15 	stw	r2,-16(fp)
  }
  
  if( vert_start > vert_end )
 20033d0:	e0bffd17 	ldw	r2,-12(fp)
 20033d4:	e0ffff17 	ldw	r3,-4(fp)
 20033d8:	1880060e 	bge	r3,r2,20033f4 <vid_draw_round_corner_box+0x68>
  {
    temp = vert_end;
 20033dc:	e0bfff17 	ldw	r2,-4(fp)
 20033e0:	e0bff615 	stw	r2,-40(fp)
    vert_end = vert_start;
 20033e4:	e0bffd17 	ldw	r2,-12(fp)
 20033e8:	e0bfff15 	stw	r2,-4(fp)
    vert_start = temp;
 20033ec:	e0bff617 	ldw	r2,-40(fp)
 20033f0:	e0bffd15 	stw	r2,-12(fp)
  }
  
  // These are the overall dimensions of the box
  width = horiz_end - horiz_start;
 20033f4:	e0fffe17 	ldw	r3,-8(fp)
 20033f8:	e0bffc17 	ldw	r2,-16(fp)
 20033fc:	1885c83a 	sub	r2,r3,r2
 2003400:	e0bff715 	stw	r2,-36(fp)
  height = vert_end - vert_start;
 2003404:	e0ffff17 	ldw	r3,-4(fp)
 2003408:	e0bffd17 	ldw	r2,-12(fp)
 200340c:	1885c83a 	sub	r2,r3,r2
 2003410:	e0bff815 	stw	r2,-32(fp)

  // Make sure our radius isnt more than the shortest dimension 
  // of the box, or it'll screw us all up
  if( radius > ( width / 2 ))
 2003414:	e0800217 	ldw	r2,8(fp)
 2003418:	e0fff717 	ldw	r3,-36(fp)
 200341c:	1806d07a 	srli	r3,r3,1
 2003420:	1880032e 	bgeu	r3,r2,2003430 <vid_draw_round_corner_box+0xa4>
    radius = width / 2;
 2003424:	e0bff717 	ldw	r2,-36(fp)
 2003428:	1004d07a 	srli	r2,r2,1
 200342c:	e0800215 	stw	r2,8(fp)

  if( radius > ( height / 2 ))
 2003430:	e0800217 	ldw	r2,8(fp)
 2003434:	e0fff817 	ldw	r3,-32(fp)
 2003438:	1806d07a 	srli	r3,r3,1
 200343c:	1880032e 	bgeu	r3,r2,200344c <vid_draw_round_corner_box+0xc0>
    radius = height / 2;
 2003440:	e0bff817 	ldw	r2,-32(fp)
 2003444:	1004d07a 	srli	r2,r2,1
 2003448:	e0800215 	stw	r2,8(fp)
  
  // We use the diameter for some calculations, so we'll pre calculate it here.
  diameter = ( radius * 2 );
 200344c:	e0800217 	ldw	r2,8(fp)
 2003450:	1085883a 	add	r2,r2,r2
 2003454:	e0bff915 	stw	r2,-28(fp)

  // These are the lengths of the straight portions of the box edges.
  straight_width = width - diameter;
 2003458:	e0bff917 	ldw	r2,-28(fp)
 200345c:	e0fff717 	ldw	r3,-36(fp)
 2003460:	1885c83a 	sub	r2,r3,r2
 2003464:	e0bffa15 	stw	r2,-24(fp)
  straight_height = height - diameter;
 2003468:	e0bff917 	ldw	r2,-28(fp)
 200346c:	e0fff817 	ldw	r3,-32(fp)
 2003470:	1885c83a 	sub	r2,r3,r2
 2003474:	e0bffb15 	stw	r2,-20(fp)

  x = 0;
 2003478:	e03ff315 	stw	zero,-52(fp)
  y = radius;
 200347c:	e0800217 	ldw	r2,8(fp)
 2003480:	e0bff415 	stw	r2,-48(fp)
  p = (5 - radius*4)/4;
 2003484:	e0800217 	ldw	r2,8(fp)
 2003488:	10bfff24 	muli	r2,r2,-4
 200348c:	10800144 	addi	r2,r2,5
 2003490:	1000010e 	bge	r2,zero,2003498 <vid_draw_round_corner_box+0x10c>
 2003494:	108000c4 	addi	r2,r2,3
 2003498:	1005d0ba 	srai	r2,r2,2
 200349c:	e0bff515 	stw	r2,-44(fp)
   
  // Start the corners with the top, bottom, left, and right pixels.
  vid_round_corner_points( horiz_start + radius, vert_start + radius, x, y, 
 20034a0:	e0fffc17 	ldw	r3,-16(fp)
 20034a4:	e0800217 	ldw	r2,8(fp)
 20034a8:	1891883a 	add	r8,r3,r2
 20034ac:	e0fffd17 	ldw	r3,-12(fp)
 20034b0:	e0800217 	ldw	r2,8(fp)
 20034b4:	188b883a 	add	r5,r3,r2
 20034b8:	e1bff317 	ldw	r6,-52(fp)
 20034bc:	e1fff417 	ldw	r7,-48(fp)
 20034c0:	e13ffa17 	ldw	r4,-24(fp)
 20034c4:	e0fffb17 	ldw	r3,-20(fp)
 20034c8:	e0800417 	ldw	r2,16(fp)
 20034cc:	10803fcc 	andi	r2,r2,255
 20034d0:	1080201c 	xori	r2,r2,128
 20034d4:	10bfe004 	addi	r2,r2,-128
 20034d8:	d9000015 	stw	r4,0(sp)
 20034dc:	d8c00115 	stw	r3,4(sp)
 20034e0:	e0c00317 	ldw	r3,12(fp)
 20034e4:	d8c00215 	stw	r3,8(sp)
 20034e8:	d8800315 	stw	r2,12(sp)
 20034ec:	e0800517 	ldw	r2,20(fp)
 20034f0:	d8800415 	stw	r2,16(sp)
 20034f4:	4009883a 	mov	r4,r8
 20034f8:	20037280 	call	2003728 <vid_round_corner_points>
                           straight_width, straight_height, color, fill, display );
  
  // Now start moving out from those points until the lines meet
  while (x < y) {
 20034fc:	00003006 	br	20035c0 <vid_draw_round_corner_box+0x234>
    x++;
 2003500:	e0bff317 	ldw	r2,-52(fp)
 2003504:	10800044 	addi	r2,r2,1
 2003508:	e0bff315 	stw	r2,-52(fp)
    if (p < 0) {
 200350c:	e0bff517 	ldw	r2,-44(fp)
 2003510:	1000080e 	bge	r2,zero,2003534 <vid_draw_round_corner_box+0x1a8>
      p += 2*x+1;
 2003514:	e0bff317 	ldw	r2,-52(fp)
 2003518:	1085883a 	add	r2,r2,r2
 200351c:	1007883a 	mov	r3,r2
 2003520:	e0bff517 	ldw	r2,-44(fp)
 2003524:	1885883a 	add	r2,r3,r2
 2003528:	10800044 	addi	r2,r2,1
 200352c:	e0bff515 	stw	r2,-44(fp)
 2003530:	00000c06 	br	2003564 <vid_draw_round_corner_box+0x1d8>
    } else {
      y--;
 2003534:	e0bff417 	ldw	r2,-48(fp)
 2003538:	10bfffc4 	addi	r2,r2,-1
 200353c:	e0bff415 	stw	r2,-48(fp)
      p += 2*(x-y)+1;
 2003540:	e0fff317 	ldw	r3,-52(fp)
 2003544:	e0bff417 	ldw	r2,-48(fp)
 2003548:	1885c83a 	sub	r2,r3,r2
 200354c:	1085883a 	add	r2,r2,r2
 2003550:	1007883a 	mov	r3,r2
 2003554:	e0bff517 	ldw	r2,-44(fp)
 2003558:	1885883a 	add	r2,r3,r2
 200355c:	10800044 	addi	r2,r2,1
 2003560:	e0bff515 	stw	r2,-44(fp)
    }
    vid_round_corner_points( horiz_start + radius, vert_start + radius, x, y, 
 2003564:	e0fffc17 	ldw	r3,-16(fp)
 2003568:	e0800217 	ldw	r2,8(fp)
 200356c:	1891883a 	add	r8,r3,r2
 2003570:	e0fffd17 	ldw	r3,-12(fp)
 2003574:	e0800217 	ldw	r2,8(fp)
 2003578:	188b883a 	add	r5,r3,r2
 200357c:	e1bff317 	ldw	r6,-52(fp)
 2003580:	e1fff417 	ldw	r7,-48(fp)
 2003584:	e13ffa17 	ldw	r4,-24(fp)
 2003588:	e0fffb17 	ldw	r3,-20(fp)
 200358c:	e0800417 	ldw	r2,16(fp)
 2003590:	10803fcc 	andi	r2,r2,255
 2003594:	1080201c 	xori	r2,r2,128
 2003598:	10bfe004 	addi	r2,r2,-128
 200359c:	d9000015 	stw	r4,0(sp)
 20035a0:	d8c00115 	stw	r3,4(sp)
 20035a4:	e0c00317 	ldw	r3,12(fp)
 20035a8:	d8c00215 	stw	r3,8(sp)
 20035ac:	d8800315 	stw	r2,12(sp)
 20035b0:	e0800517 	ldw	r2,20(fp)
 20035b4:	d8800415 	stw	r2,16(sp)
 20035b8:	4009883a 	mov	r4,r8
 20035bc:	20037280 	call	2003728 <vid_round_corner_points>
  // Start the corners with the top, bottom, left, and right pixels.
  vid_round_corner_points( horiz_start + radius, vert_start + radius, x, y, 
                           straight_width, straight_height, color, fill, display );
  
  // Now start moving out from those points until the lines meet
  while (x < y) {
 20035c0:	e0fff317 	ldw	r3,-52(fp)
 20035c4:	e0bff417 	ldw	r2,-48(fp)
 20035c8:	18bfcd36 	bltu	r3,r2,2003500 <__alt_mem_pic_mem+0xfdfff500>
    vid_round_corner_points( horiz_start + radius, vert_start + radius, x, y, 
                             straight_width, straight_height, color, fill, display);
  }

  // If we want to fill in our box
  if (fill) {
 20035cc:	e0800417 	ldw	r2,16(fp)
 20035d0:	10000f26 	beq	r2,zero,2003610 <vid_draw_round_corner_box+0x284>
     vid_paint_block (horiz_start, vert_start + radius, horiz_end, vert_end - radius, color, display);
 20035d4:	e0fffd17 	ldw	r3,-12(fp)
 20035d8:	e0800217 	ldw	r2,8(fp)
 20035dc:	188b883a 	add	r5,r3,r2
 20035e0:	e0ffff17 	ldw	r3,-4(fp)
 20035e4:	e0800217 	ldw	r2,8(fp)
 20035e8:	1887c83a 	sub	r3,r3,r2
 20035ec:	e0800317 	ldw	r2,12(fp)
 20035f0:	d8800015 	stw	r2,0(sp)
 20035f4:	e0800517 	ldw	r2,20(fp)
 20035f8:	d8800115 	stw	r2,4(sp)
 20035fc:	e13ffc17 	ldw	r4,-16(fp)
 2003600:	e1bffe17 	ldw	r6,-8(fp)
 2003604:	180f883a 	mov	r7,r3
 2003608:	2002d400 	call	2002d40 <vid_paint_block>
 200360c:	00004006 	br	2003710 <vid_draw_round_corner_box+0x384>
  // If we're not filling in the box, just draw four lines.
  } else {
    vid_draw_line(horiz_start, vert_start + radius, horiz_start, vert_end - radius , 1, color, display); //left
 2003610:	e0fffd17 	ldw	r3,-12(fp)
 2003614:	e0800217 	ldw	r2,8(fp)
 2003618:	188b883a 	add	r5,r3,r2
 200361c:	e0ffff17 	ldw	r3,-4(fp)
 2003620:	e0800217 	ldw	r2,8(fp)
 2003624:	1887c83a 	sub	r3,r3,r2
 2003628:	00800044 	movi	r2,1
 200362c:	d8800015 	stw	r2,0(sp)
 2003630:	e0800317 	ldw	r2,12(fp)
 2003634:	d8800115 	stw	r2,4(sp)
 2003638:	e0800517 	ldw	r2,20(fp)
 200363c:	d8800215 	stw	r2,8(sp)
 2003640:	e13ffc17 	ldw	r4,-16(fp)
 2003644:	e1bffc17 	ldw	r6,-16(fp)
 2003648:	180f883a 	mov	r7,r3
 200364c:	20022400 	call	2002240 <vid_draw_line>
    vid_draw_line(horiz_end, vert_start + radius, horiz_end, vert_end - radius , 1, color, display); //right
 2003650:	e0fffd17 	ldw	r3,-12(fp)
 2003654:	e0800217 	ldw	r2,8(fp)
 2003658:	188b883a 	add	r5,r3,r2
 200365c:	e0ffff17 	ldw	r3,-4(fp)
 2003660:	e0800217 	ldw	r2,8(fp)
 2003664:	1887c83a 	sub	r3,r3,r2
 2003668:	00800044 	movi	r2,1
 200366c:	d8800015 	stw	r2,0(sp)
 2003670:	e0800317 	ldw	r2,12(fp)
 2003674:	d8800115 	stw	r2,4(sp)
 2003678:	e0800517 	ldw	r2,20(fp)
 200367c:	d8800215 	stw	r2,8(sp)
 2003680:	e13ffe17 	ldw	r4,-8(fp)
 2003684:	e1bffe17 	ldw	r6,-8(fp)
 2003688:	180f883a 	mov	r7,r3
 200368c:	20022400 	call	2002240 <vid_draw_line>
    vid_draw_line(horiz_start + radius, vert_start, horiz_end - radius , vert_start, 1, color, display); //top
 2003690:	e0fffc17 	ldw	r3,-16(fp)
 2003694:	e0800217 	ldw	r2,8(fp)
 2003698:	1889883a 	add	r4,r3,r2
 200369c:	e0fffe17 	ldw	r3,-8(fp)
 20036a0:	e0800217 	ldw	r2,8(fp)
 20036a4:	1887c83a 	sub	r3,r3,r2
 20036a8:	00800044 	movi	r2,1
 20036ac:	d8800015 	stw	r2,0(sp)
 20036b0:	e0800317 	ldw	r2,12(fp)
 20036b4:	d8800115 	stw	r2,4(sp)
 20036b8:	e0800517 	ldw	r2,20(fp)
 20036bc:	d8800215 	stw	r2,8(sp)
 20036c0:	e17ffd17 	ldw	r5,-12(fp)
 20036c4:	180d883a 	mov	r6,r3
 20036c8:	e1fffd17 	ldw	r7,-12(fp)
 20036cc:	20022400 	call	2002240 <vid_draw_line>
    vid_draw_line(horiz_start + radius, vert_end, horiz_end - radius , vert_end, 1, color, display); //bottom
 20036d0:	e0fffc17 	ldw	r3,-16(fp)
 20036d4:	e0800217 	ldw	r2,8(fp)
 20036d8:	1889883a 	add	r4,r3,r2
 20036dc:	e0fffe17 	ldw	r3,-8(fp)
 20036e0:	e0800217 	ldw	r2,8(fp)
 20036e4:	1887c83a 	sub	r3,r3,r2
 20036e8:	00800044 	movi	r2,1
 20036ec:	d8800015 	stw	r2,0(sp)
 20036f0:	e0800317 	ldw	r2,12(fp)
 20036f4:	d8800115 	stw	r2,4(sp)
 20036f8:	e0800517 	ldw	r2,20(fp)
 20036fc:	d8800215 	stw	r2,8(sp)
 2003700:	e17fff17 	ldw	r5,-4(fp)
 2003704:	180d883a 	mov	r6,r3
 2003708:	e1ffff17 	ldw	r7,-4(fp)
 200370c:	20022400 	call	2002240 <vid_draw_line>
  }

  return (0);
 2003710:	0005883a 	mov	r2,zero
}
 2003714:	e037883a 	mov	sp,fp
 2003718:	dfc00117 	ldw	ra,4(sp)
 200371c:	df000017 	ldw	fp,0(sp)
 2003720:	dec00204 	addi	sp,sp,8
 2003724:	f800283a 	ret

02003728 <vid_round_corner_points>:
******************************************************************/

void vid_round_corner_points( int cx, int cy, int x, int y, 
                              int straight_width, int straight_height, int color, 
                              char fill, alt_video_display* display)
{
 2003728:	defff604 	addi	sp,sp,-40
 200372c:	dfc00915 	stw	ra,36(sp)
 2003730:	df000815 	stw	fp,32(sp)
 2003734:	df000804 	addi	fp,sp,32
 2003738:	e13ffb15 	stw	r4,-20(fp)
 200373c:	e17ffc15 	stw	r5,-16(fp)
 2003740:	e1bffd15 	stw	r6,-12(fp)
 2003744:	e1fffe15 	stw	r7,-8(fp)
 2003748:	e0800517 	ldw	r2,20(fp)
 200374c:	e0bfff05 	stb	r2,-4(fp)

    // If we're directly above, below, left and right of center (0 degrees), plot those 4 pixels
    if (x == 0) {
 2003750:	e0bffd17 	ldw	r2,-12(fp)
 2003754:	1000841e 	bne	r2,zero,2003968 <vid_round_corner_points+0x240>
        // bottom
        vid_set_pixel(cx, cy + y + straight_height, color, display);
 2003758:	e0fffc17 	ldw	r3,-16(fp)
 200375c:	e0bffe17 	ldw	r2,-8(fp)
 2003760:	1887883a 	add	r3,r3,r2
 2003764:	e0800317 	ldw	r2,12(fp)
 2003768:	1887883a 	add	r3,r3,r2
 200376c:	e0800417 	ldw	r2,16(fp)
 2003770:	e13ffb17 	ldw	r4,-20(fp)
 2003774:	180b883a 	mov	r5,r3
 2003778:	100d883a 	mov	r6,r2
 200377c:	e1c00617 	ldw	r7,24(fp)
 2003780:	2002c640 	call	2002c64 <vid_set_pixel>
        vid_set_pixel(cx + straight_width, cy + y + straight_height, color, display);
 2003784:	e0fffb17 	ldw	r3,-20(fp)
 2003788:	e0800217 	ldw	r2,8(fp)
 200378c:	1889883a 	add	r4,r3,r2
 2003790:	e0fffc17 	ldw	r3,-16(fp)
 2003794:	e0bffe17 	ldw	r2,-8(fp)
 2003798:	1887883a 	add	r3,r3,r2
 200379c:	e0800317 	ldw	r2,12(fp)
 20037a0:	1887883a 	add	r3,r3,r2
 20037a4:	e0800417 	ldw	r2,16(fp)
 20037a8:	180b883a 	mov	r5,r3
 20037ac:	100d883a 	mov	r6,r2
 20037b0:	e1c00617 	ldw	r7,24(fp)
 20037b4:	2002c640 	call	2002c64 <vid_set_pixel>
        // top
        vid_set_pixel(cx, cy - y, color, display);
 20037b8:	e0fffc17 	ldw	r3,-16(fp)
 20037bc:	e0bffe17 	ldw	r2,-8(fp)
 20037c0:	1887c83a 	sub	r3,r3,r2
 20037c4:	e0800417 	ldw	r2,16(fp)
 20037c8:	e13ffb17 	ldw	r4,-20(fp)
 20037cc:	180b883a 	mov	r5,r3
 20037d0:	100d883a 	mov	r6,r2
 20037d4:	e1c00617 	ldw	r7,24(fp)
 20037d8:	2002c640 	call	2002c64 <vid_set_pixel>
        vid_set_pixel(cx + straight_width, cy - y, color, display);
 20037dc:	e0fffb17 	ldw	r3,-20(fp)
 20037e0:	e0800217 	ldw	r2,8(fp)
 20037e4:	1889883a 	add	r4,r3,r2
 20037e8:	e0fffc17 	ldw	r3,-16(fp)
 20037ec:	e0bffe17 	ldw	r2,-8(fp)
 20037f0:	1887c83a 	sub	r3,r3,r2
 20037f4:	e0800417 	ldw	r2,16(fp)
 20037f8:	180b883a 	mov	r5,r3
 20037fc:	100d883a 	mov	r6,r2
 2003800:	e1c00617 	ldw	r7,24(fp)
 2003804:	2002c640 	call	2002c64 <vid_set_pixel>

        if(fill) {
 2003808:	e0bfff07 	ldb	r2,-4(fp)
 200380c:	10002926 	beq	r2,zero,20038b4 <vid_round_corner_points+0x18c>
          vid_draw_line(cx - y, cy, cx + y + straight_width, cy, 1, color, display);
 2003810:	e0fffb17 	ldw	r3,-20(fp)
 2003814:	e0bffe17 	ldw	r2,-8(fp)
 2003818:	1889c83a 	sub	r4,r3,r2
 200381c:	e0fffb17 	ldw	r3,-20(fp)
 2003820:	e0bffe17 	ldw	r2,-8(fp)
 2003824:	1887883a 	add	r3,r3,r2
 2003828:	e0800217 	ldw	r2,8(fp)
 200382c:	1887883a 	add	r3,r3,r2
 2003830:	00800044 	movi	r2,1
 2003834:	d8800015 	stw	r2,0(sp)
 2003838:	e0800417 	ldw	r2,16(fp)
 200383c:	d8800115 	stw	r2,4(sp)
 2003840:	e0800617 	ldw	r2,24(fp)
 2003844:	d8800215 	stw	r2,8(sp)
 2003848:	e17ffc17 	ldw	r5,-16(fp)
 200384c:	180d883a 	mov	r6,r3
 2003850:	e1fffc17 	ldw	r7,-16(fp)
 2003854:	20022400 	call	2002240 <vid_draw_line>
          vid_draw_line(cx - y, cy + straight_height, cx + y + straight_width, cy + straight_height, 1, color, display);
 2003858:	e0fffb17 	ldw	r3,-20(fp)
 200385c:	e0bffe17 	ldw	r2,-8(fp)
 2003860:	1889c83a 	sub	r4,r3,r2
 2003864:	e0fffc17 	ldw	r3,-16(fp)
 2003868:	e0800317 	ldw	r2,12(fp)
 200386c:	188b883a 	add	r5,r3,r2
 2003870:	e0fffb17 	ldw	r3,-20(fp)
 2003874:	e0bffe17 	ldw	r2,-8(fp)
 2003878:	1887883a 	add	r3,r3,r2
 200387c:	e0800217 	ldw	r2,8(fp)
 2003880:	188d883a 	add	r6,r3,r2
 2003884:	e0fffc17 	ldw	r3,-16(fp)
 2003888:	e0800317 	ldw	r2,12(fp)
 200388c:	1887883a 	add	r3,r3,r2
 2003890:	00800044 	movi	r2,1
 2003894:	d8800015 	stw	r2,0(sp)
 2003898:	e0800417 	ldw	r2,16(fp)
 200389c:	d8800115 	stw	r2,4(sp)
 20038a0:	e0800617 	ldw	r2,24(fp)
 20038a4:	d8800215 	stw	r2,8(sp)
 20038a8:	180f883a 	mov	r7,r3
 20038ac:	20022400 	call	2002240 <vid_draw_line>
 20038b0:	00016606 	br	2003e4c <vid_round_corner_points+0x724>
        } else {
          //right
          vid_set_pixel(cx + y + straight_width, cy, color, display);
 20038b4:	e0fffb17 	ldw	r3,-20(fp)
 20038b8:	e0bffe17 	ldw	r2,-8(fp)
 20038bc:	1887883a 	add	r3,r3,r2
 20038c0:	e0800217 	ldw	r2,8(fp)
 20038c4:	1887883a 	add	r3,r3,r2
 20038c8:	e0800417 	ldw	r2,16(fp)
 20038cc:	1809883a 	mov	r4,r3
 20038d0:	e17ffc17 	ldw	r5,-16(fp)
 20038d4:	100d883a 	mov	r6,r2
 20038d8:	e1c00617 	ldw	r7,24(fp)
 20038dc:	2002c640 	call	2002c64 <vid_set_pixel>
          vid_set_pixel(cx + y + straight_width, cy + straight_height, color, display);
 20038e0:	e0fffb17 	ldw	r3,-20(fp)
 20038e4:	e0bffe17 	ldw	r2,-8(fp)
 20038e8:	1887883a 	add	r3,r3,r2
 20038ec:	e0800217 	ldw	r2,8(fp)
 20038f0:	1889883a 	add	r4,r3,r2
 20038f4:	e0fffc17 	ldw	r3,-16(fp)
 20038f8:	e0800317 	ldw	r2,12(fp)
 20038fc:	1887883a 	add	r3,r3,r2
 2003900:	e0800417 	ldw	r2,16(fp)
 2003904:	180b883a 	mov	r5,r3
 2003908:	100d883a 	mov	r6,r2
 200390c:	e1c00617 	ldw	r7,24(fp)
 2003910:	2002c640 	call	2002c64 <vid_set_pixel>
          //left
          vid_set_pixel(cx - y, cy, color, display);
 2003914:	e0fffb17 	ldw	r3,-20(fp)
 2003918:	e0bffe17 	ldw	r2,-8(fp)
 200391c:	1887c83a 	sub	r3,r3,r2
 2003920:	e0800417 	ldw	r2,16(fp)
 2003924:	1809883a 	mov	r4,r3
 2003928:	e17ffc17 	ldw	r5,-16(fp)
 200392c:	100d883a 	mov	r6,r2
 2003930:	e1c00617 	ldw	r7,24(fp)
 2003934:	2002c640 	call	2002c64 <vid_set_pixel>
          vid_set_pixel(cx - y, cy + straight_height, color, display);
 2003938:	e0fffb17 	ldw	r3,-20(fp)
 200393c:	e0bffe17 	ldw	r2,-8(fp)
 2003940:	1889c83a 	sub	r4,r3,r2
 2003944:	e0fffc17 	ldw	r3,-16(fp)
 2003948:	e0800317 	ldw	r2,12(fp)
 200394c:	1887883a 	add	r3,r3,r2
 2003950:	e0800417 	ldw	r2,16(fp)
 2003954:	180b883a 	mov	r5,r3
 2003958:	100d883a 	mov	r6,r2
 200395c:	e1c00617 	ldw	r7,24(fp)
 2003960:	2002c640 	call	2002c64 <vid_set_pixel>
 2003964:	00013906 	br	2003e4c <vid_round_corner_points+0x724>
        }

    } else
    // If we've reached the 45 degree points (x=y), plot those 4 pixels
    if (x == y) {
 2003968:	e0fffd17 	ldw	r3,-12(fp)
 200396c:	e0bffe17 	ldw	r2,-8(fp)
 2003970:	1880681e 	bne	r3,r2,2003b14 <vid_round_corner_points+0x3ec>
      if(fill) {
 2003974:	e0bfff07 	ldb	r2,-4(fp)
 2003978:	10003126 	beq	r2,zero,2003a40 <vid_round_corner_points+0x318>
        vid_draw_line(cx - x, cy + y + straight_height, cx + x + straight_width, cy + y + straight_height, 1, color, display); // lower
 200397c:	e0fffb17 	ldw	r3,-20(fp)
 2003980:	e0bffd17 	ldw	r2,-12(fp)
 2003984:	1889c83a 	sub	r4,r3,r2
 2003988:	e0fffc17 	ldw	r3,-16(fp)
 200398c:	e0bffe17 	ldw	r2,-8(fp)
 2003990:	1887883a 	add	r3,r3,r2
 2003994:	e0800317 	ldw	r2,12(fp)
 2003998:	188b883a 	add	r5,r3,r2
 200399c:	e0fffb17 	ldw	r3,-20(fp)
 20039a0:	e0bffd17 	ldw	r2,-12(fp)
 20039a4:	1887883a 	add	r3,r3,r2
 20039a8:	e0800217 	ldw	r2,8(fp)
 20039ac:	188d883a 	add	r6,r3,r2
 20039b0:	e0fffc17 	ldw	r3,-16(fp)
 20039b4:	e0bffe17 	ldw	r2,-8(fp)
 20039b8:	1887883a 	add	r3,r3,r2
 20039bc:	e0800317 	ldw	r2,12(fp)
 20039c0:	1887883a 	add	r3,r3,r2
 20039c4:	00800044 	movi	r2,1
 20039c8:	d8800015 	stw	r2,0(sp)
 20039cc:	e0800417 	ldw	r2,16(fp)
 20039d0:	d8800115 	stw	r2,4(sp)
 20039d4:	e0800617 	ldw	r2,24(fp)
 20039d8:	d8800215 	stw	r2,8(sp)
 20039dc:	180f883a 	mov	r7,r3
 20039e0:	20022400 	call	2002240 <vid_draw_line>
        vid_draw_line(cx - x, cy - y, cx + x + straight_width, cy - y, 1, color, display); // upper
 20039e4:	e0fffb17 	ldw	r3,-20(fp)
 20039e8:	e0bffd17 	ldw	r2,-12(fp)
 20039ec:	1889c83a 	sub	r4,r3,r2
 20039f0:	e0fffc17 	ldw	r3,-16(fp)
 20039f4:	e0bffe17 	ldw	r2,-8(fp)
 20039f8:	188bc83a 	sub	r5,r3,r2
 20039fc:	e0fffb17 	ldw	r3,-20(fp)
 2003a00:	e0bffd17 	ldw	r2,-12(fp)
 2003a04:	1887883a 	add	r3,r3,r2
 2003a08:	e0800217 	ldw	r2,8(fp)
 2003a0c:	188d883a 	add	r6,r3,r2
 2003a10:	e0fffc17 	ldw	r3,-16(fp)
 2003a14:	e0bffe17 	ldw	r2,-8(fp)
 2003a18:	1887c83a 	sub	r3,r3,r2
 2003a1c:	00800044 	movi	r2,1
 2003a20:	d8800015 	stw	r2,0(sp)
 2003a24:	e0800417 	ldw	r2,16(fp)
 2003a28:	d8800115 	stw	r2,4(sp)
 2003a2c:	e0800617 	ldw	r2,24(fp)
 2003a30:	d8800215 	stw	r2,8(sp)
 2003a34:	180f883a 	mov	r7,r3
 2003a38:	20022400 	call	2002240 <vid_draw_line>
 2003a3c:	00010306 	br	2003e4c <vid_round_corner_points+0x724>
        
      } else {
        vid_set_pixel(cx + x + straight_width, cy + y + straight_height, color, display); // bottom right
 2003a40:	e0fffb17 	ldw	r3,-20(fp)
 2003a44:	e0bffd17 	ldw	r2,-12(fp)
 2003a48:	1887883a 	add	r3,r3,r2
 2003a4c:	e0800217 	ldw	r2,8(fp)
 2003a50:	1889883a 	add	r4,r3,r2
 2003a54:	e0fffc17 	ldw	r3,-16(fp)
 2003a58:	e0bffe17 	ldw	r2,-8(fp)
 2003a5c:	1887883a 	add	r3,r3,r2
 2003a60:	e0800317 	ldw	r2,12(fp)
 2003a64:	1887883a 	add	r3,r3,r2
 2003a68:	e0800417 	ldw	r2,16(fp)
 2003a6c:	180b883a 	mov	r5,r3
 2003a70:	100d883a 	mov	r6,r2
 2003a74:	e1c00617 	ldw	r7,24(fp)
 2003a78:	2002c640 	call	2002c64 <vid_set_pixel>
        vid_set_pixel(cx - x, cy + y + straight_height, color, display); // bottom left
 2003a7c:	e0fffb17 	ldw	r3,-20(fp)
 2003a80:	e0bffd17 	ldw	r2,-12(fp)
 2003a84:	1889c83a 	sub	r4,r3,r2
 2003a88:	e0fffc17 	ldw	r3,-16(fp)
 2003a8c:	e0bffe17 	ldw	r2,-8(fp)
 2003a90:	1887883a 	add	r3,r3,r2
 2003a94:	e0800317 	ldw	r2,12(fp)
 2003a98:	1887883a 	add	r3,r3,r2
 2003a9c:	e0800417 	ldw	r2,16(fp)
 2003aa0:	180b883a 	mov	r5,r3
 2003aa4:	100d883a 	mov	r6,r2
 2003aa8:	e1c00617 	ldw	r7,24(fp)
 2003aac:	2002c640 	call	2002c64 <vid_set_pixel>
        vid_set_pixel(cx + x + straight_width, cy - y, color, display); // top right
 2003ab0:	e0fffb17 	ldw	r3,-20(fp)
 2003ab4:	e0bffd17 	ldw	r2,-12(fp)
 2003ab8:	1887883a 	add	r3,r3,r2
 2003abc:	e0800217 	ldw	r2,8(fp)
 2003ac0:	1889883a 	add	r4,r3,r2
 2003ac4:	e0fffc17 	ldw	r3,-16(fp)
 2003ac8:	e0bffe17 	ldw	r2,-8(fp)
 2003acc:	1887c83a 	sub	r3,r3,r2
 2003ad0:	e0800417 	ldw	r2,16(fp)
 2003ad4:	180b883a 	mov	r5,r3
 2003ad8:	100d883a 	mov	r6,r2
 2003adc:	e1c00617 	ldw	r7,24(fp)
 2003ae0:	2002c640 	call	2002c64 <vid_set_pixel>
        vid_set_pixel(cx - x, cy - y, color, display); // top left
 2003ae4:	e0fffb17 	ldw	r3,-20(fp)
 2003ae8:	e0bffd17 	ldw	r2,-12(fp)
 2003aec:	1889c83a 	sub	r4,r3,r2
 2003af0:	e0fffc17 	ldw	r3,-16(fp)
 2003af4:	e0bffe17 	ldw	r2,-8(fp)
 2003af8:	1887c83a 	sub	r3,r3,r2
 2003afc:	e0800417 	ldw	r2,16(fp)
 2003b00:	180b883a 	mov	r5,r3
 2003b04:	100d883a 	mov	r6,r2
 2003b08:	e1c00617 	ldw	r7,24(fp)
 2003b0c:	2002c640 	call	2002c64 <vid_set_pixel>
 2003b10:	0000ce06 	br	2003e4c <vid_round_corner_points+0x724>
      }
    } else
    // If we're between 0 and 45 degrees plot 8 pixels.
    if (x < y) {
 2003b14:	e0fffd17 	ldw	r3,-12(fp)
 2003b18:	e0bffe17 	ldw	r2,-8(fp)
 2003b1c:	1880cb0e 	bge	r3,r2,2003e4c <vid_round_corner_points+0x724>
        if(fill) {
 2003b20:	e0bfff07 	ldb	r2,-4(fp)
 2003b24:	10006126 	beq	r2,zero,2003cac <vid_round_corner_points+0x584>
          vid_draw_line(cx - x, cy + y + straight_height, cx + x + straight_width, cy + y + straight_height, 1, color, display);
 2003b28:	e0fffb17 	ldw	r3,-20(fp)
 2003b2c:	e0bffd17 	ldw	r2,-12(fp)
 2003b30:	1889c83a 	sub	r4,r3,r2
 2003b34:	e0fffc17 	ldw	r3,-16(fp)
 2003b38:	e0bffe17 	ldw	r2,-8(fp)
 2003b3c:	1887883a 	add	r3,r3,r2
 2003b40:	e0800317 	ldw	r2,12(fp)
 2003b44:	188b883a 	add	r5,r3,r2
 2003b48:	e0fffb17 	ldw	r3,-20(fp)
 2003b4c:	e0bffd17 	ldw	r2,-12(fp)
 2003b50:	1887883a 	add	r3,r3,r2
 2003b54:	e0800217 	ldw	r2,8(fp)
 2003b58:	188d883a 	add	r6,r3,r2
 2003b5c:	e0fffc17 	ldw	r3,-16(fp)
 2003b60:	e0bffe17 	ldw	r2,-8(fp)
 2003b64:	1887883a 	add	r3,r3,r2
 2003b68:	e0800317 	ldw	r2,12(fp)
 2003b6c:	1887883a 	add	r3,r3,r2
 2003b70:	00800044 	movi	r2,1
 2003b74:	d8800015 	stw	r2,0(sp)
 2003b78:	e0800417 	ldw	r2,16(fp)
 2003b7c:	d8800115 	stw	r2,4(sp)
 2003b80:	e0800617 	ldw	r2,24(fp)
 2003b84:	d8800215 	stw	r2,8(sp)
 2003b88:	180f883a 	mov	r7,r3
 2003b8c:	20022400 	call	2002240 <vid_draw_line>
          vid_draw_line(cx - y, cy + x + straight_height, cx + y + straight_width, cy + x + straight_height, 1, color, display);
 2003b90:	e0fffb17 	ldw	r3,-20(fp)
 2003b94:	e0bffe17 	ldw	r2,-8(fp)
 2003b98:	1889c83a 	sub	r4,r3,r2
 2003b9c:	e0fffc17 	ldw	r3,-16(fp)
 2003ba0:	e0bffd17 	ldw	r2,-12(fp)
 2003ba4:	1887883a 	add	r3,r3,r2
 2003ba8:	e0800317 	ldw	r2,12(fp)
 2003bac:	188b883a 	add	r5,r3,r2
 2003bb0:	e0fffb17 	ldw	r3,-20(fp)
 2003bb4:	e0bffe17 	ldw	r2,-8(fp)
 2003bb8:	1887883a 	add	r3,r3,r2
 2003bbc:	e0800217 	ldw	r2,8(fp)
 2003bc0:	188d883a 	add	r6,r3,r2
 2003bc4:	e0fffc17 	ldw	r3,-16(fp)
 2003bc8:	e0bffd17 	ldw	r2,-12(fp)
 2003bcc:	1887883a 	add	r3,r3,r2
 2003bd0:	e0800317 	ldw	r2,12(fp)
 2003bd4:	1887883a 	add	r3,r3,r2
 2003bd8:	00800044 	movi	r2,1
 2003bdc:	d8800015 	stw	r2,0(sp)
 2003be0:	e0800417 	ldw	r2,16(fp)
 2003be4:	d8800115 	stw	r2,4(sp)
 2003be8:	e0800617 	ldw	r2,24(fp)
 2003bec:	d8800215 	stw	r2,8(sp)
 2003bf0:	180f883a 	mov	r7,r3
 2003bf4:	20022400 	call	2002240 <vid_draw_line>
          vid_draw_line(cx - y, cy - x, cx + y + straight_width, cy - x, 1, color, display);
 2003bf8:	e0fffb17 	ldw	r3,-20(fp)
 2003bfc:	e0bffe17 	ldw	r2,-8(fp)
 2003c00:	1889c83a 	sub	r4,r3,r2
 2003c04:	e0fffc17 	ldw	r3,-16(fp)
 2003c08:	e0bffd17 	ldw	r2,-12(fp)
 2003c0c:	188bc83a 	sub	r5,r3,r2
 2003c10:	e0fffb17 	ldw	r3,-20(fp)
 2003c14:	e0bffe17 	ldw	r2,-8(fp)
 2003c18:	1887883a 	add	r3,r3,r2
 2003c1c:	e0800217 	ldw	r2,8(fp)
 2003c20:	188d883a 	add	r6,r3,r2
 2003c24:	e0fffc17 	ldw	r3,-16(fp)
 2003c28:	e0bffd17 	ldw	r2,-12(fp)
 2003c2c:	1887c83a 	sub	r3,r3,r2
 2003c30:	00800044 	movi	r2,1
 2003c34:	d8800015 	stw	r2,0(sp)
 2003c38:	e0800417 	ldw	r2,16(fp)
 2003c3c:	d8800115 	stw	r2,4(sp)
 2003c40:	e0800617 	ldw	r2,24(fp)
 2003c44:	d8800215 	stw	r2,8(sp)
 2003c48:	180f883a 	mov	r7,r3
 2003c4c:	20022400 	call	2002240 <vid_draw_line>
          vid_draw_line(cx - x, cy - y, cx + x + straight_width, cy - y, 1, color, display);
 2003c50:	e0fffb17 	ldw	r3,-20(fp)
 2003c54:	e0bffd17 	ldw	r2,-12(fp)
 2003c58:	1889c83a 	sub	r4,r3,r2
 2003c5c:	e0fffc17 	ldw	r3,-16(fp)
 2003c60:	e0bffe17 	ldw	r2,-8(fp)
 2003c64:	188bc83a 	sub	r5,r3,r2
 2003c68:	e0fffb17 	ldw	r3,-20(fp)
 2003c6c:	e0bffd17 	ldw	r2,-12(fp)
 2003c70:	1887883a 	add	r3,r3,r2
 2003c74:	e0800217 	ldw	r2,8(fp)
 2003c78:	188d883a 	add	r6,r3,r2
 2003c7c:	e0fffc17 	ldw	r3,-16(fp)
 2003c80:	e0bffe17 	ldw	r2,-8(fp)
 2003c84:	1887c83a 	sub	r3,r3,r2
 2003c88:	00800044 	movi	r2,1
 2003c8c:	d8800015 	stw	r2,0(sp)
 2003c90:	e0800417 	ldw	r2,16(fp)
 2003c94:	d8800115 	stw	r2,4(sp)
 2003c98:	e0800617 	ldw	r2,24(fp)
 2003c9c:	d8800215 	stw	r2,8(sp)
 2003ca0:	180f883a 	mov	r7,r3
 2003ca4:	20022400 	call	2002240 <vid_draw_line>
 2003ca8:	00006806 	br	2003e4c <vid_round_corner_points+0x724>
        } else {
          vid_set_pixel(cx + x + straight_width, cy + y + straight_height, color, display);
 2003cac:	e0fffb17 	ldw	r3,-20(fp)
 2003cb0:	e0bffd17 	ldw	r2,-12(fp)
 2003cb4:	1887883a 	add	r3,r3,r2
 2003cb8:	e0800217 	ldw	r2,8(fp)
 2003cbc:	1889883a 	add	r4,r3,r2
 2003cc0:	e0fffc17 	ldw	r3,-16(fp)
 2003cc4:	e0bffe17 	ldw	r2,-8(fp)
 2003cc8:	1887883a 	add	r3,r3,r2
 2003ccc:	e0800317 	ldw	r2,12(fp)
 2003cd0:	1887883a 	add	r3,r3,r2
 2003cd4:	e0800417 	ldw	r2,16(fp)
 2003cd8:	180b883a 	mov	r5,r3
 2003cdc:	100d883a 	mov	r6,r2
 2003ce0:	e1c00617 	ldw	r7,24(fp)
 2003ce4:	2002c640 	call	2002c64 <vid_set_pixel>
          vid_set_pixel(cx - x, cy + y + straight_height, color, display);
 2003ce8:	e0fffb17 	ldw	r3,-20(fp)
 2003cec:	e0bffd17 	ldw	r2,-12(fp)
 2003cf0:	1889c83a 	sub	r4,r3,r2
 2003cf4:	e0fffc17 	ldw	r3,-16(fp)
 2003cf8:	e0bffe17 	ldw	r2,-8(fp)
 2003cfc:	1887883a 	add	r3,r3,r2
 2003d00:	e0800317 	ldw	r2,12(fp)
 2003d04:	1887883a 	add	r3,r3,r2
 2003d08:	e0800417 	ldw	r2,16(fp)
 2003d0c:	180b883a 	mov	r5,r3
 2003d10:	100d883a 	mov	r6,r2
 2003d14:	e1c00617 	ldw	r7,24(fp)
 2003d18:	2002c640 	call	2002c64 <vid_set_pixel>
          vid_set_pixel(cx + x + straight_width, cy - y, color, display);
 2003d1c:	e0fffb17 	ldw	r3,-20(fp)
 2003d20:	e0bffd17 	ldw	r2,-12(fp)
 2003d24:	1887883a 	add	r3,r3,r2
 2003d28:	e0800217 	ldw	r2,8(fp)
 2003d2c:	1889883a 	add	r4,r3,r2
 2003d30:	e0fffc17 	ldw	r3,-16(fp)
 2003d34:	e0bffe17 	ldw	r2,-8(fp)
 2003d38:	1887c83a 	sub	r3,r3,r2
 2003d3c:	e0800417 	ldw	r2,16(fp)
 2003d40:	180b883a 	mov	r5,r3
 2003d44:	100d883a 	mov	r6,r2
 2003d48:	e1c00617 	ldw	r7,24(fp)
 2003d4c:	2002c640 	call	2002c64 <vid_set_pixel>
          vid_set_pixel(cx - x, cy - y, color, display);
 2003d50:	e0fffb17 	ldw	r3,-20(fp)
 2003d54:	e0bffd17 	ldw	r2,-12(fp)
 2003d58:	1889c83a 	sub	r4,r3,r2
 2003d5c:	e0fffc17 	ldw	r3,-16(fp)
 2003d60:	e0bffe17 	ldw	r2,-8(fp)
 2003d64:	1887c83a 	sub	r3,r3,r2
 2003d68:	e0800417 	ldw	r2,16(fp)
 2003d6c:	180b883a 	mov	r5,r3
 2003d70:	100d883a 	mov	r6,r2
 2003d74:	e1c00617 	ldw	r7,24(fp)
 2003d78:	2002c640 	call	2002c64 <vid_set_pixel>
          vid_set_pixel(cx + y + straight_width, cy + x + straight_height, color, display);
 2003d7c:	e0fffb17 	ldw	r3,-20(fp)
 2003d80:	e0bffe17 	ldw	r2,-8(fp)
 2003d84:	1887883a 	add	r3,r3,r2
 2003d88:	e0800217 	ldw	r2,8(fp)
 2003d8c:	1889883a 	add	r4,r3,r2
 2003d90:	e0fffc17 	ldw	r3,-16(fp)
 2003d94:	e0bffd17 	ldw	r2,-12(fp)
 2003d98:	1887883a 	add	r3,r3,r2
 2003d9c:	e0800317 	ldw	r2,12(fp)
 2003da0:	1887883a 	add	r3,r3,r2
 2003da4:	e0800417 	ldw	r2,16(fp)
 2003da8:	180b883a 	mov	r5,r3
 2003dac:	100d883a 	mov	r6,r2
 2003db0:	e1c00617 	ldw	r7,24(fp)
 2003db4:	2002c640 	call	2002c64 <vid_set_pixel>
          vid_set_pixel(cx - y, cy + x + straight_height, color, display);
 2003db8:	e0fffb17 	ldw	r3,-20(fp)
 2003dbc:	e0bffe17 	ldw	r2,-8(fp)
 2003dc0:	1889c83a 	sub	r4,r3,r2
 2003dc4:	e0fffc17 	ldw	r3,-16(fp)
 2003dc8:	e0bffd17 	ldw	r2,-12(fp)
 2003dcc:	1887883a 	add	r3,r3,r2
 2003dd0:	e0800317 	ldw	r2,12(fp)
 2003dd4:	1887883a 	add	r3,r3,r2
 2003dd8:	e0800417 	ldw	r2,16(fp)
 2003ddc:	180b883a 	mov	r5,r3
 2003de0:	100d883a 	mov	r6,r2
 2003de4:	e1c00617 	ldw	r7,24(fp)
 2003de8:	2002c640 	call	2002c64 <vid_set_pixel>
          vid_set_pixel(cx + y + straight_width, cy - x, color, display);
 2003dec:	e0fffb17 	ldw	r3,-20(fp)
 2003df0:	e0bffe17 	ldw	r2,-8(fp)
 2003df4:	1887883a 	add	r3,r3,r2
 2003df8:	e0800217 	ldw	r2,8(fp)
 2003dfc:	1889883a 	add	r4,r3,r2
 2003e00:	e0fffc17 	ldw	r3,-16(fp)
 2003e04:	e0bffd17 	ldw	r2,-12(fp)
 2003e08:	1887c83a 	sub	r3,r3,r2
 2003e0c:	e0800417 	ldw	r2,16(fp)
 2003e10:	180b883a 	mov	r5,r3
 2003e14:	100d883a 	mov	r6,r2
 2003e18:	e1c00617 	ldw	r7,24(fp)
 2003e1c:	2002c640 	call	2002c64 <vid_set_pixel>
          vid_set_pixel(cx - y, cy - x, color, display);
 2003e20:	e0fffb17 	ldw	r3,-20(fp)
 2003e24:	e0bffe17 	ldw	r2,-8(fp)
 2003e28:	1889c83a 	sub	r4,r3,r2
 2003e2c:	e0fffc17 	ldw	r3,-16(fp)
 2003e30:	e0bffd17 	ldw	r2,-12(fp)
 2003e34:	1887c83a 	sub	r3,r3,r2
 2003e38:	e0800417 	ldw	r2,16(fp)
 2003e3c:	180b883a 	mov	r5,r3
 2003e40:	100d883a 	mov	r6,r2
 2003e44:	e1c00617 	ldw	r7,24(fp)
 2003e48:	2002c640 	call	2002c64 <vid_set_pixel>
        }
    }
}
 2003e4c:	e037883a 	mov	sp,fp
 2003e50:	dfc00117 	ldw	ra,4(sp)
 2003e54:	df000017 	ldw	fp,0(sp)
 2003e58:	dec00204 	addi	sp,sp,8
 2003e5c:	f800283a 	ret

02003e60 <max3>:
*  Purpose:  Returns the minimum value of 3 parameters
*            Used for drawing filled shapes
*
******************************************************************/
__inline__ int max3( int a, int b, int c )
{
 2003e60:	defffc04 	addi	sp,sp,-16
 2003e64:	df000315 	stw	fp,12(sp)
 2003e68:	df000304 	addi	fp,sp,12
 2003e6c:	e13ffd15 	stw	r4,-12(fp)
 2003e70:	e17ffe15 	stw	r5,-8(fp)
 2003e74:	e1bfff15 	stw	r6,-4(fp)
  if( a < b )
 2003e78:	e0fffd17 	ldw	r3,-12(fp)
 2003e7c:	e0bffe17 	ldw	r2,-8(fp)
 2003e80:	1880020e 	bge	r3,r2,2003e8c <max3+0x2c>
    a = b;
 2003e84:	e0bffe17 	ldw	r2,-8(fp)
 2003e88:	e0bffd15 	stw	r2,-12(fp)
  if( a < c )
 2003e8c:	e0fffd17 	ldw	r3,-12(fp)
 2003e90:	e0bfff17 	ldw	r2,-4(fp)
 2003e94:	1880020e 	bge	r3,r2,2003ea0 <max3+0x40>
    a = c;
 2003e98:	e0bfff17 	ldw	r2,-4(fp)
 2003e9c:	e0bffd15 	stw	r2,-12(fp)
  
  return a;
 2003ea0:	e0bffd17 	ldw	r2,-12(fp)
}
 2003ea4:	e037883a 	mov	sp,fp
 2003ea8:	df000017 	ldw	fp,0(sp)
 2003eac:	dec00104 	addi	sp,sp,4
 2003eb0:	f800283a 	ret

02003eb4 <min3>:
*  Purpose:  Returns the minimum value of 3 parameters
*            Used for drawing filled shapes.
*
******************************************************************/
__inline__ int min3( int a, int b, int c )
{
 2003eb4:	defffc04 	addi	sp,sp,-16
 2003eb8:	df000315 	stw	fp,12(sp)
 2003ebc:	df000304 	addi	fp,sp,12
 2003ec0:	e13ffd15 	stw	r4,-12(fp)
 2003ec4:	e17ffe15 	stw	r5,-8(fp)
 2003ec8:	e1bfff15 	stw	r6,-4(fp)
  if( a > b )
 2003ecc:	e0bffd17 	ldw	r2,-12(fp)
 2003ed0:	e0fffe17 	ldw	r3,-8(fp)
 2003ed4:	1880020e 	bge	r3,r2,2003ee0 <min3+0x2c>
    a = b;
 2003ed8:	e0bffe17 	ldw	r2,-8(fp)
 2003edc:	e0bffd15 	stw	r2,-12(fp)
  if( a > c )
 2003ee0:	e0bffd17 	ldw	r2,-12(fp)
 2003ee4:	e0ffff17 	ldw	r3,-4(fp)
 2003ee8:	1880020e 	bge	r3,r2,2003ef4 <min3+0x40>
    a = c;
 2003eec:	e0bfff17 	ldw	r2,-4(fp)
 2003ef0:	e0bffd15 	stw	r2,-12(fp)
  
  return a;
 2003ef4:	e0bffd17 	ldw	r2,-12(fp)
}
 2003ef8:	e037883a 	mov	sp,fp
 2003efc:	df000017 	ldw	fp,0(sp)
 2003f00:	dec00104 	addi	sp,sp,4
 2003f04:	f800283a 	ret

02003f08 <max_diff3>:
*  Purpose:  Returns the positive max difference between 3 
*            parameters.  Used for drawing filled shapes
*
******************************************************************/
__inline__ int max_diff3(int a, int b, int c)
{
 2003f08:	defff904 	addi	sp,sp,-28
 2003f0c:	dfc00615 	stw	ra,24(sp)
 2003f10:	df000515 	stw	fp,20(sp)
 2003f14:	df000504 	addi	fp,sp,20
 2003f18:	e13ffd15 	stw	r4,-12(fp)
 2003f1c:	e17ffe15 	stw	r5,-8(fp)
 2003f20:	e1bfff15 	stw	r6,-4(fp)
  int max, min;
    
  max = max3( a, b, c );
 2003f24:	e13ffd17 	ldw	r4,-12(fp)
 2003f28:	e17ffe17 	ldw	r5,-8(fp)
 2003f2c:	e1bfff17 	ldw	r6,-4(fp)
 2003f30:	2003e600 	call	2003e60 <max3>
 2003f34:	e0bffb15 	stw	r2,-20(fp)
  min = min3( a, b, c );
 2003f38:	e13ffd17 	ldw	r4,-12(fp)
 2003f3c:	e17ffe17 	ldw	r5,-8(fp)
 2003f40:	e1bfff17 	ldw	r6,-4(fp)
 2003f44:	2003eb40 	call	2003eb4 <min3>
 2003f48:	e0bffc15 	stw	r2,-16(fp)
  return (max - min);
 2003f4c:	e0fffb17 	ldw	r3,-20(fp)
 2003f50:	e0bffc17 	ldw	r2,-16(fp)
 2003f54:	1885c83a 	sub	r2,r3,r2
}
 2003f58:	e037883a 	mov	sp,fp
 2003f5c:	dfc00117 	ldw	ra,4(sp)
 2003f60:	df000017 	ldw	fp,0(sp)
 2003f64:	dec00204 	addi	sp,sp,8
 2003f68:	f800283a 	ret

02003f6c <vid_put_pixel_in_span_map>:
*            min value of an element that represents a span, 
*            essentially just a horizontal line used to fill shapes.
*
******************************************************************/
inline void vid_put_pixel_in_span_map( int x, int y, int *span_array )
{
 2003f6c:	defffc04 	addi	sp,sp,-16
 2003f70:	df000315 	stw	fp,12(sp)
 2003f74:	df000304 	addi	fp,sp,12
 2003f78:	e13ffd15 	stw	r4,-12(fp)
 2003f7c:	e17ffe15 	stw	r5,-8(fp)
 2003f80:	e1bfff15 	stw	r6,-4(fp)
  if (span_array[y*2] == -1)
 2003f84:	e0bffe17 	ldw	r2,-8(fp)
 2003f88:	100490fa 	slli	r2,r2,3
 2003f8c:	1007883a 	mov	r3,r2
 2003f90:	e0bfff17 	ldw	r2,-4(fp)
 2003f94:	10c5883a 	add	r2,r2,r3
 2003f98:	10800017 	ldw	r2,0(r2)
 2003f9c:	10bfffd8 	cmpnei	r2,r2,-1
 2003fa0:	10000f1e 	bne	r2,zero,2003fe0 <vid_put_pixel_in_span_map+0x74>
  {
    span_array[y*2] = x;
 2003fa4:	e0bffe17 	ldw	r2,-8(fp)
 2003fa8:	100490fa 	slli	r2,r2,3
 2003fac:	1007883a 	mov	r3,r2
 2003fb0:	e0bfff17 	ldw	r2,-4(fp)
 2003fb4:	10c5883a 	add	r2,r2,r3
 2003fb8:	e0fffd17 	ldw	r3,-12(fp)
 2003fbc:	10c00015 	stw	r3,0(r2)
    span_array[(y*2)+1] = x;
 2003fc0:	e0bffe17 	ldw	r2,-8(fp)
 2003fc4:	100490fa 	slli	r2,r2,3
 2003fc8:	10800104 	addi	r2,r2,4
 2003fcc:	e0ffff17 	ldw	r3,-4(fp)
 2003fd0:	1885883a 	add	r2,r3,r2
 2003fd4:	e0fffd17 	ldw	r3,-12(fp)
 2003fd8:	10c00015 	stw	r3,0(r2)
 2003fdc:	00001f06 	br	200405c <vid_put_pixel_in_span_map+0xf0>
  }
  else if( span_array[y*2] > x )
 2003fe0:	e0bffe17 	ldw	r2,-8(fp)
 2003fe4:	100490fa 	slli	r2,r2,3
 2003fe8:	1007883a 	mov	r3,r2
 2003fec:	e0bfff17 	ldw	r2,-4(fp)
 2003ff0:	10c5883a 	add	r2,r2,r3
 2003ff4:	10800017 	ldw	r2,0(r2)
 2003ff8:	e0fffd17 	ldw	r3,-12(fp)
 2003ffc:	1880080e 	bge	r3,r2,2004020 <vid_put_pixel_in_span_map+0xb4>
    span_array[y*2] = x;
 2004000:	e0bffe17 	ldw	r2,-8(fp)
 2004004:	100490fa 	slli	r2,r2,3
 2004008:	1007883a 	mov	r3,r2
 200400c:	e0bfff17 	ldw	r2,-4(fp)
 2004010:	10c5883a 	add	r2,r2,r3
 2004014:	e0fffd17 	ldw	r3,-12(fp)
 2004018:	10c00015 	stw	r3,0(r2)
 200401c:	00000f06 	br	200405c <vid_put_pixel_in_span_map+0xf0>
  else if( span_array[(y*2)+1] < x )
 2004020:	e0bffe17 	ldw	r2,-8(fp)
 2004024:	100490fa 	slli	r2,r2,3
 2004028:	10800104 	addi	r2,r2,4
 200402c:	e0ffff17 	ldw	r3,-4(fp)
 2004030:	1885883a 	add	r2,r3,r2
 2004034:	10c00017 	ldw	r3,0(r2)
 2004038:	e0bffd17 	ldw	r2,-12(fp)
 200403c:	1880070e 	bge	r3,r2,200405c <vid_put_pixel_in_span_map+0xf0>
    span_array[(y*2)+1] = x;
 2004040:	e0bffe17 	ldw	r2,-8(fp)
 2004044:	100490fa 	slli	r2,r2,3
 2004048:	10800104 	addi	r2,r2,4
 200404c:	e0ffff17 	ldw	r3,-4(fp)
 2004050:	1885883a 	add	r2,r3,r2
 2004054:	e0fffd17 	ldw	r3,-12(fp)
 2004058:	10c00015 	stw	r3,0(r2)
}
 200405c:	e037883a 	mov	sp,fp
 2004060:	df000017 	ldw	fp,0(sp)
 2004064:	dec00104 	addi	sp,sp,4
 2004068:	f800283a 	ret

0200406c <vid_bres_scan_edges>:
*            filled shapes where you fill by drawing successive
*            horizontal lines.
*
******************************************************************/
void vid_bres_scan_edges( int x1, int y1, int x2, int y2, int *span_array) 
{
 200406c:	deffee04 	addi	sp,sp,-72
 2004070:	dfc01115 	stw	ra,68(sp)
 2004074:	df001015 	stw	fp,64(sp)
 2004078:	df001004 	addi	fp,sp,64
 200407c:	e13ffc15 	stw	r4,-16(fp)
 2004080:	e17ffd15 	stw	r5,-12(fp)
 2004084:	e1bffe15 	stw	r6,-8(fp)
 2004088:	e1ffff15 	stw	r7,-4(fp)

  int x_incr, y_incr;
  int y_delta, x_delta;

  // Assure we always draw left to right
  if( x1 > x2 )
 200408c:	e0bffc17 	ldw	r2,-16(fp)
 2004090:	e0fffe17 	ldw	r3,-8(fp)
 2004094:	18800c0e 	bge	r3,r2,20040c8 <vid_bres_scan_edges+0x5c>
  {
    int tempx = x2;
 2004098:	e0bffe17 	ldw	r2,-8(fp)
 200409c:	e0bff515 	stw	r2,-44(fp)
    x2 = x1;
 20040a0:	e0bffc17 	ldw	r2,-16(fp)
 20040a4:	e0bffe15 	stw	r2,-8(fp)
    x1 = tempx;
 20040a8:	e0bff517 	ldw	r2,-44(fp)
 20040ac:	e0bffc15 	stw	r2,-16(fp)
    int tempy = y2;
 20040b0:	e0bfff17 	ldw	r2,-4(fp)
 20040b4:	e0bff615 	stw	r2,-40(fp)
    y2 = y1;
 20040b8:	e0bffd17 	ldw	r2,-12(fp)
 20040bc:	e0bfff15 	stw	r2,-4(fp)
    y1 = tempy;
 20040c0:	e0bff617 	ldw	r2,-40(fp)
 20040c4:	e0bffd15 	stw	r2,-12(fp)
  }
  
  // Find the vertical and horizontal distance between the two points
  y_delta = abs(y1-y2);
 20040c8:	e0fffd17 	ldw	r3,-12(fp)
 20040cc:	e0bfff17 	ldw	r2,-4(fp)
 20040d0:	1885c83a 	sub	r2,r3,r2
 20040d4:	1000010e 	bge	r2,zero,20040dc <vid_bres_scan_edges+0x70>
 20040d8:	0085c83a 	sub	r2,zero,r2
 20040dc:	e0bff115 	stw	r2,-60(fp)
  x_delta = (x2-x1);
 20040e0:	e0fffe17 	ldw	r3,-8(fp)
 20040e4:	e0bffc17 	ldw	r2,-16(fp)
 20040e8:	1885c83a 	sub	r2,r3,r2
 20040ec:	e0bff215 	stw	r2,-56(fp)

  // Find out what direction we are going
  if (y1 > y2) { y_incr=-1; } else { y_incr=1; }
 20040f0:	e0bffd17 	ldw	r2,-12(fp)
 20040f4:	e0ffff17 	ldw	r3,-4(fp)
 20040f8:	1880030e 	bge	r3,r2,2004108 <vid_bres_scan_edges+0x9c>
 20040fc:	00bfffc4 	movi	r2,-1
 2004100:	e0bff015 	stw	r2,-64(fp)
 2004104:	00000206 	br	2004110 <vid_bres_scan_edges+0xa4>
 2004108:	00800044 	movi	r2,1
 200410c:	e0bff015 	stw	r2,-64(fp)
  x_incr=1;
 2004110:	00800044 	movi	r2,1
 2004114:	e0bff715 	stw	r2,-36(fp)

  // Find out which axis is always incremented when drawing the line
  // If it's the horizontal axis
  if (x_delta >= y_delta) {
 2004118:	e0fff217 	ldw	r3,-56(fp)
 200411c:	e0bff117 	ldw	r2,-60(fp)
 2004120:	18802f16 	blt	r3,r2,20041e0 <vid_bres_scan_edges+0x174>
    int dPr   = y_delta<<1;
 2004124:	e0bff117 	ldw	r2,-60(fp)
 2004128:	1085883a 	add	r2,r2,r2
 200412c:	e0bff815 	stw	r2,-32(fp)
    int dPru  = dPr - (x_delta<<1);
 2004130:	e0bff217 	ldw	r2,-56(fp)
 2004134:	1085883a 	add	r2,r2,r2
 2004138:	1007883a 	mov	r3,r2
 200413c:	e0bff817 	ldw	r2,-32(fp)
 2004140:	10c5c83a 	sub	r2,r2,r3
 2004144:	e0bff915 	stw	r2,-28(fp)
    int P     = dPr - x_delta;
 2004148:	e0fff817 	ldw	r3,-32(fp)
 200414c:	e0bff217 	ldw	r2,-56(fp)
 2004150:	1885c83a 	sub	r2,r3,r2
 2004154:	e0bff315 	stw	r2,-52(fp)

    // Process the line, one horizontal point at at time
    for (; x_delta >= 0; x_delta--) {
 2004158:	00001e06 	br	20041d4 <vid_bres_scan_edges+0x168>
      // map the pixel
      vid_put_pixel_in_span_map(x1, y1, span_array);
 200415c:	e13ffc17 	ldw	r4,-16(fp)
 2004160:	e17ffd17 	ldw	r5,-12(fp)
 2004164:	e1800217 	ldw	r6,8(fp)
 2004168:	2003f6c0 	call	2003f6c <vid_put_pixel_in_span_map>
      // If we're moving along both axis
      if (P > 0) {
 200416c:	e0bff317 	ldw	r2,-52(fp)
 2004170:	00800d0e 	bge	zero,r2,20041a8 <vid_bres_scan_edges+0x13c>
        x1+=x_incr;
 2004174:	e0fffc17 	ldw	r3,-16(fp)
 2004178:	e0bff717 	ldw	r2,-36(fp)
 200417c:	1885883a 	add	r2,r3,r2
 2004180:	e0bffc15 	stw	r2,-16(fp)
        y1+=y_incr;
 2004184:	e0fffd17 	ldw	r3,-12(fp)
 2004188:	e0bff017 	ldw	r2,-64(fp)
 200418c:	1885883a 	add	r2,r3,r2
 2004190:	e0bffd15 	stw	r2,-12(fp)
        P+=dPru;
 2004194:	e0fff317 	ldw	r3,-52(fp)
 2004198:	e0bff917 	ldw	r2,-28(fp)
 200419c:	1885883a 	add	r2,r3,r2
 20041a0:	e0bff315 	stw	r2,-52(fp)
 20041a4:	00000806 	br	20041c8 <vid_bres_scan_edges+0x15c>
      } else {
        x1+=x_incr;
 20041a8:	e0fffc17 	ldw	r3,-16(fp)
 20041ac:	e0bff717 	ldw	r2,-36(fp)
 20041b0:	1885883a 	add	r2,r3,r2
 20041b4:	e0bffc15 	stw	r2,-16(fp)
        P+=dPr;
 20041b8:	e0fff317 	ldw	r3,-52(fp)
 20041bc:	e0bff817 	ldw	r2,-32(fp)
 20041c0:	1885883a 	add	r2,r3,r2
 20041c4:	e0bff315 	stw	r2,-52(fp)
    int dPr   = y_delta<<1;
    int dPru  = dPr - (x_delta<<1);
    int P     = dPr - x_delta;

    // Process the line, one horizontal point at at time
    for (; x_delta >= 0; x_delta--) {
 20041c8:	e0bff217 	ldw	r2,-56(fp)
 20041cc:	10bfffc4 	addi	r2,r2,-1
 20041d0:	e0bff215 	stw	r2,-56(fp)
 20041d4:	e0bff217 	ldw	r2,-56(fp)
 20041d8:	103fe00e 	bge	r2,zero,200415c <__alt_mem_pic_mem+0xfe00015c>
 20041dc:	00002e06 	br	2004298 <vid_bres_scan_edges+0x22c>
      }
    }
  }
  else // If it's the vertical axis
  {
    int dPr   = x_delta<<1;
 20041e0:	e0bff217 	ldw	r2,-56(fp)
 20041e4:	1085883a 	add	r2,r2,r2
 20041e8:	e0bffa15 	stw	r2,-24(fp)
    int dPru  = dPr - (y_delta<<1);
 20041ec:	e0bff117 	ldw	r2,-60(fp)
 20041f0:	1085883a 	add	r2,r2,r2
 20041f4:	1007883a 	mov	r3,r2
 20041f8:	e0bffa17 	ldw	r2,-24(fp)
 20041fc:	10c5c83a 	sub	r2,r2,r3
 2004200:	e0bffb15 	stw	r2,-20(fp)
    int P     = dPr - y_delta;
 2004204:	e0fffa17 	ldw	r3,-24(fp)
 2004208:	e0bff117 	ldw	r2,-60(fp)
 200420c:	1885c83a 	sub	r2,r3,r2
 2004210:	e0bff415 	stw	r2,-48(fp)

    // Process the line, one vertical point at at time
    for (; y_delta>=0; y_delta--) {
 2004214:	00001e06 	br	2004290 <vid_bres_scan_edges+0x224>
      // plot the pixel
      vid_put_pixel_in_span_map(x1, y1, span_array);
 2004218:	e13ffc17 	ldw	r4,-16(fp)
 200421c:	e17ffd17 	ldw	r5,-12(fp)
 2004220:	e1800217 	ldw	r6,8(fp)
 2004224:	2003f6c0 	call	2003f6c <vid_put_pixel_in_span_map>
      // If we're moving along both axis
      if (P > 0) {
 2004228:	e0bff417 	ldw	r2,-48(fp)
 200422c:	00800d0e 	bge	zero,r2,2004264 <vid_bres_scan_edges+0x1f8>
        x1+=x_incr;
 2004230:	e0fffc17 	ldw	r3,-16(fp)
 2004234:	e0bff717 	ldw	r2,-36(fp)
 2004238:	1885883a 	add	r2,r3,r2
 200423c:	e0bffc15 	stw	r2,-16(fp)
        y1+=y_incr;
 2004240:	e0fffd17 	ldw	r3,-12(fp)
 2004244:	e0bff017 	ldw	r2,-64(fp)
 2004248:	1885883a 	add	r2,r3,r2
 200424c:	e0bffd15 	stw	r2,-12(fp)
        P+=dPru;
 2004250:	e0fff417 	ldw	r3,-48(fp)
 2004254:	e0bffb17 	ldw	r2,-20(fp)
 2004258:	1885883a 	add	r2,r3,r2
 200425c:	e0bff415 	stw	r2,-48(fp)
 2004260:	00000806 	br	2004284 <vid_bres_scan_edges+0x218>
      } else {
        y1+=y_incr;
 2004264:	e0fffd17 	ldw	r3,-12(fp)
 2004268:	e0bff017 	ldw	r2,-64(fp)
 200426c:	1885883a 	add	r2,r3,r2
 2004270:	e0bffd15 	stw	r2,-12(fp)
        P+=dPr;
 2004274:	e0fff417 	ldw	r3,-48(fp)
 2004278:	e0bffa17 	ldw	r2,-24(fp)
 200427c:	1885883a 	add	r2,r3,r2
 2004280:	e0bff415 	stw	r2,-48(fp)
    int dPr   = x_delta<<1;
    int dPru  = dPr - (y_delta<<1);
    int P     = dPr - y_delta;

    // Process the line, one vertical point at at time
    for (; y_delta>=0; y_delta--) {
 2004284:	e0bff117 	ldw	r2,-60(fp)
 2004288:	10bfffc4 	addi	r2,r2,-1
 200428c:	e0bff115 	stw	r2,-60(fp)
 2004290:	e0bff117 	ldw	r2,-60(fp)
 2004294:	103fe00e 	bge	r2,zero,2004218 <__alt_mem_pic_mem+0xfe000218>
        y1+=y_incr;
        P+=dPr;
      }
    }
  }
}
 2004298:	e037883a 	mov	sp,fp
 200429c:	dfc00117 	ldw	ra,4(sp)
 20042a0:	df000017 	ldw	fp,0(sp)
 20042a4:	dec00204 	addi	sp,sp,8
 20042a8:	f800283a 	ret

020042ac <vid_draw_triangle>:
*  Purpose:  This function draws a triangle on the screen between
*            three points defined by the structure tri.
*
******************************************************************/
void vid_draw_triangle(triangle_struct* tri, alt_video_display* display)
{
 20042ac:	defff804 	addi	sp,sp,-32
 20042b0:	dfc00715 	stw	ra,28(sp)
 20042b4:	df000615 	stw	fp,24(sp)
 20042b8:	df000604 	addi	fp,sp,24
 20042bc:	e13ffe15 	stw	r4,-8(fp)
 20042c0:	e17fff15 	stw	r5,-4(fp)
  int i;
  
  // Outline it first
    vid_draw_line( tri->vertex_x[0], tri->vertex_y[0], 
 20042c4:	e0bffe17 	ldw	r2,-8(fp)
 20042c8:	11000017 	ldw	r4,0(r2)
 20042cc:	e0bffe17 	ldw	r2,-8(fp)
 20042d0:	11400317 	ldw	r5,12(r2)
 20042d4:	e0bffe17 	ldw	r2,-8(fp)
 20042d8:	11800117 	ldw	r6,4(r2)
 20042dc:	e0bffe17 	ldw	r2,-8(fp)
 20042e0:	11c00417 	ldw	r7,16(r2)
 20042e4:	e0bffe17 	ldw	r2,-8(fp)
 20042e8:	10800a17 	ldw	r2,40(r2)
 20042ec:	00c00044 	movi	r3,1
 20042f0:	d8c00015 	stw	r3,0(sp)
 20042f4:	d8800115 	stw	r2,4(sp)
 20042f8:	e0bfff17 	ldw	r2,-4(fp)
 20042fc:	d8800215 	stw	r2,8(sp)
 2004300:	20022400 	call	2002240 <vid_draw_line>
                   tri->vertex_x[1], tri->vertex_y[1], 1, 
                   tri->col, display);
    vid_draw_line( tri->vertex_x[1], tri->vertex_y[1], 
 2004304:	e0bffe17 	ldw	r2,-8(fp)
 2004308:	11000117 	ldw	r4,4(r2)
 200430c:	e0bffe17 	ldw	r2,-8(fp)
 2004310:	11400417 	ldw	r5,16(r2)
 2004314:	e0bffe17 	ldw	r2,-8(fp)
 2004318:	11800217 	ldw	r6,8(r2)
 200431c:	e0bffe17 	ldw	r2,-8(fp)
 2004320:	11c00517 	ldw	r7,20(r2)
 2004324:	e0bffe17 	ldw	r2,-8(fp)
 2004328:	10800a17 	ldw	r2,40(r2)
 200432c:	00c00044 	movi	r3,1
 2004330:	d8c00015 	stw	r3,0(sp)
 2004334:	d8800115 	stw	r2,4(sp)
 2004338:	e0bfff17 	ldw	r2,-4(fp)
 200433c:	d8800215 	stw	r2,8(sp)
 2004340:	20022400 	call	2002240 <vid_draw_line>
                   tri->vertex_x[2], tri->vertex_y[2], 1, 
                   tri->col, display);
    vid_draw_line( tri->vertex_x[2], tri->vertex_y[2], 
 2004344:	e0bffe17 	ldw	r2,-8(fp)
 2004348:	11000217 	ldw	r4,8(r2)
 200434c:	e0bffe17 	ldw	r2,-8(fp)
 2004350:	11400517 	ldw	r5,20(r2)
 2004354:	e0bffe17 	ldw	r2,-8(fp)
 2004358:	11800017 	ldw	r6,0(r2)
 200435c:	e0bffe17 	ldw	r2,-8(fp)
 2004360:	11c00317 	ldw	r7,12(r2)
 2004364:	e0bffe17 	ldw	r2,-8(fp)
 2004368:	10800a17 	ldw	r2,40(r2)
 200436c:	00c00044 	movi	r3,1
 2004370:	d8c00015 	stw	r3,0(sp)
 2004374:	d8800115 	stw	r2,4(sp)
 2004378:	e0bfff17 	ldw	r2,-4(fp)
 200437c:	d8800215 	stw	r2,8(sp)
 2004380:	20022400 	call	2002240 <vid_draw_line>
                   tri->vertex_x[0], tri->vertex_y[0], 1, 
                   tri->col, display);
//  vid_draw_line(tri->bx, tri->by, tri->cx, tri->cy, 1, tri->col, display);
//  vid_draw_line(tri->cx, tri->cy, tri->ax, tri->ay, 1, tri->col, display);
  
  if(tri->fill == DO_FILL)
 2004384:	e0bffe17 	ldw	r2,-8(fp)
 2004388:	10800b17 	ldw	r2,44(r2)
 200438c:	10800058 	cmpnei	r2,r2,1
 2004390:	10009f1e 	bne	r2,zero,2004610 <vid_draw_triangle+0x364>
  {
    tri->top_y = min3(tri->vertex_y[0], tri->vertex_y[1], tri->vertex_y[2]);
 2004394:	e0bffe17 	ldw	r2,-8(fp)
 2004398:	11000317 	ldw	r4,12(r2)
 200439c:	e0bffe17 	ldw	r2,-8(fp)
 20043a0:	10c00417 	ldw	r3,16(r2)
 20043a4:	e0bffe17 	ldw	r2,-8(fp)
 20043a8:	10800517 	ldw	r2,20(r2)
 20043ac:	180b883a 	mov	r5,r3
 20043b0:	100d883a 	mov	r6,r2
 20043b4:	2003eb40 	call	2003eb4 <min3>
 20043b8:	1007883a 	mov	r3,r2
 20043bc:	e0bffe17 	ldw	r2,-8(fp)
 20043c0:	10c00815 	stw	r3,32(r2)
    tri->bottom_y = max3(tri->vertex_y[0], tri->vertex_y[1], tri->vertex_y[2]);
 20043c4:	e0bffe17 	ldw	r2,-8(fp)
 20043c8:	11000317 	ldw	r4,12(r2)
 20043cc:	e0bffe17 	ldw	r2,-8(fp)
 20043d0:	10c00417 	ldw	r3,16(r2)
 20043d4:	e0bffe17 	ldw	r2,-8(fp)
 20043d8:	10800517 	ldw	r2,20(r2)
 20043dc:	180b883a 	mov	r5,r3
 20043e0:	100d883a 	mov	r6,r2
 20043e4:	2003e600 	call	2003e60 <max3>
 20043e8:	1007883a 	mov	r3,r2
 20043ec:	e0bffe17 	ldw	r2,-8(fp)
 20043f0:	10c00915 	stw	r3,36(r2)
    tri->spans_needed = max_diff3(tri->vertex_y[0], tri->vertex_y[1], tri->vertex_y[2]);
 20043f4:	e0bffe17 	ldw	r2,-8(fp)
 20043f8:	11000317 	ldw	r4,12(r2)
 20043fc:	e0bffe17 	ldw	r2,-8(fp)
 2004400:	10c00417 	ldw	r3,16(r2)
 2004404:	e0bffe17 	ldw	r2,-8(fp)
 2004408:	10800517 	ldw	r2,20(r2)
 200440c:	180b883a 	mov	r5,r3
 2004410:	100d883a 	mov	r6,r2
 2004414:	2003f080 	call	2003f08 <max_diff3>
 2004418:	1007883a 	mov	r3,r2
 200441c:	e0bffe17 	ldw	r2,-8(fp)
 2004420:	10c00615 	stw	r3,24(r2)
    tri->max_span = max_diff3(tri->vertex_x[0], tri->vertex_x[1], tri->vertex_x[2]);
 2004424:	e0bffe17 	ldw	r2,-8(fp)
 2004428:	11000017 	ldw	r4,0(r2)
 200442c:	e0bffe17 	ldw	r2,-8(fp)
 2004430:	10c00117 	ldw	r3,4(r2)
 2004434:	e0bffe17 	ldw	r2,-8(fp)
 2004438:	10800217 	ldw	r2,8(r2)
 200443c:	180b883a 	mov	r5,r3
 2004440:	100d883a 	mov	r6,r2
 2004444:	2003f080 	call	2003f08 <max_diff3>
 2004448:	1007883a 	mov	r3,r2
 200444c:	e0bffe17 	ldw	r2,-8(fp)
 2004450:	10c00715 	stw	r3,28(r2)
    tri->span_array = malloc(display->height * 4 * 2);
 2004454:	e0bfff17 	ldw	r2,-4(fp)
 2004458:	10800217 	ldw	r2,8(r2)
 200445c:	100490fa 	slli	r2,r2,3
 2004460:	1009883a 	mov	r4,r2
 2004464:	20087140 	call	2008714 <malloc>
 2004468:	1007883a 	mov	r3,r2
 200446c:	e0bffe17 	ldw	r2,-8(fp)
 2004470:	10c00d15 	stw	r3,52(r2)

    //init the span array
    for( i = tri->top_y; i <= tri->bottom_y; i++)
 2004474:	e0bffe17 	ldw	r2,-8(fp)
 2004478:	10800817 	ldw	r2,32(r2)
 200447c:	e0bffd15 	stw	r2,-12(fp)
 2004480:	00001206 	br	20044cc <vid_draw_triangle+0x220>
    {
      tri->span_array[i*2] = -1;
 2004484:	e0bffe17 	ldw	r2,-8(fp)
 2004488:	10800d17 	ldw	r2,52(r2)
 200448c:	e0fffd17 	ldw	r3,-12(fp)
 2004490:	180690fa 	slli	r3,r3,3
 2004494:	10c5883a 	add	r2,r2,r3
 2004498:	00ffffc4 	movi	r3,-1
 200449c:	10c00015 	stw	r3,0(r2)
      tri->span_array[(i*2) + 1] = -1;
 20044a0:	e0bffe17 	ldw	r2,-8(fp)
 20044a4:	10c00d17 	ldw	r3,52(r2)
 20044a8:	e0bffd17 	ldw	r2,-12(fp)
 20044ac:	100490fa 	slli	r2,r2,3
 20044b0:	10800104 	addi	r2,r2,4
 20044b4:	1885883a 	add	r2,r3,r2
 20044b8:	00ffffc4 	movi	r3,-1
 20044bc:	10c00015 	stw	r3,0(r2)
    tri->spans_needed = max_diff3(tri->vertex_y[0], tri->vertex_y[1], tri->vertex_y[2]);
    tri->max_span = max_diff3(tri->vertex_x[0], tri->vertex_x[1], tri->vertex_x[2]);
    tri->span_array = malloc(display->height * 4 * 2);

    //init the span array
    for( i = tri->top_y; i <= tri->bottom_y; i++)
 20044c0:	e0bffd17 	ldw	r2,-12(fp)
 20044c4:	10800044 	addi	r2,r2,1
 20044c8:	e0bffd15 	stw	r2,-12(fp)
 20044cc:	e0bffe17 	ldw	r2,-8(fp)
 20044d0:	10c00917 	ldw	r3,36(r2)
 20044d4:	e0bffd17 	ldw	r2,-12(fp)
 20044d8:	18bfea0e 	bge	r3,r2,2004484 <__alt_mem_pic_mem+0xfe000484>
      tri->span_array[i*2] = -1;
      tri->span_array[(i*2) + 1] = -1;
    }
    
    // Scan-convert the triangle  
    vid_bres_scan_edges( tri->vertex_x[0], tri->vertex_y[0], 
 20044dc:	e0bffe17 	ldw	r2,-8(fp)
 20044e0:	11000017 	ldw	r4,0(r2)
 20044e4:	e0bffe17 	ldw	r2,-8(fp)
 20044e8:	11400317 	ldw	r5,12(r2)
 20044ec:	e0bffe17 	ldw	r2,-8(fp)
 20044f0:	11800117 	ldw	r6,4(r2)
 20044f4:	e0bffe17 	ldw	r2,-8(fp)
 20044f8:	10c00417 	ldw	r3,16(r2)
 20044fc:	e0bffe17 	ldw	r2,-8(fp)
 2004500:	10800d17 	ldw	r2,52(r2)
 2004504:	d8800015 	stw	r2,0(sp)
 2004508:	180f883a 	mov	r7,r3
 200450c:	200406c0 	call	200406c <vid_bres_scan_edges>
                         tri->vertex_x[1], tri->vertex_y[1], tri->span_array);
    vid_bres_scan_edges( tri->vertex_x[1], tri->vertex_y[1], 
 2004510:	e0bffe17 	ldw	r2,-8(fp)
 2004514:	11000117 	ldw	r4,4(r2)
 2004518:	e0bffe17 	ldw	r2,-8(fp)
 200451c:	11400417 	ldw	r5,16(r2)
 2004520:	e0bffe17 	ldw	r2,-8(fp)
 2004524:	11800217 	ldw	r6,8(r2)
 2004528:	e0bffe17 	ldw	r2,-8(fp)
 200452c:	10c00517 	ldw	r3,20(r2)
 2004530:	e0bffe17 	ldw	r2,-8(fp)
 2004534:	10800d17 	ldw	r2,52(r2)
 2004538:	d8800015 	stw	r2,0(sp)
 200453c:	180f883a 	mov	r7,r3
 2004540:	200406c0 	call	200406c <vid_bres_scan_edges>
                         tri->vertex_x[2], tri->vertex_y[2], tri->span_array);
    vid_bres_scan_edges( tri->vertex_x[2], tri->vertex_y[2], 
 2004544:	e0bffe17 	ldw	r2,-8(fp)
 2004548:	11000217 	ldw	r4,8(r2)
 200454c:	e0bffe17 	ldw	r2,-8(fp)
 2004550:	11400517 	ldw	r5,20(r2)
 2004554:	e0bffe17 	ldw	r2,-8(fp)
 2004558:	11800017 	ldw	r6,0(r2)
 200455c:	e0bffe17 	ldw	r2,-8(fp)
 2004560:	10c00317 	ldw	r3,12(r2)
 2004564:	e0bffe17 	ldw	r2,-8(fp)
 2004568:	10800d17 	ldw	r2,52(r2)
 200456c:	d8800015 	stw	r2,0(sp)
 2004570:	180f883a 	mov	r7,r3
 2004574:	200406c0 	call	200406c <vid_bres_scan_edges>
                         tri->vertex_x[0], tri->vertex_y[0], tri->span_array);
  
    // Render the polygon
    for( i = tri->top_y; i <= tri->bottom_y; i++ )
 2004578:	e0bffe17 	ldw	r2,-8(fp)
 200457c:	10800817 	ldw	r2,32(r2)
 2004580:	e0bffd15 	stw	r2,-12(fp)
 2004584:	00001a06 	br	20045f0 <vid_draw_triangle+0x344>
    {
//      vid_draw_horiz_line (tri->span_array[i*2], tri->span_array[(i*2)+1], i, tri->col, display);
      vid_draw_line (tri->span_array[i*2], i, tri->span_array[(i*2)+1], i, 1, tri->col, display);
 2004588:	e0bffe17 	ldw	r2,-8(fp)
 200458c:	10800d17 	ldw	r2,52(r2)
 2004590:	e0fffd17 	ldw	r3,-12(fp)
 2004594:	180690fa 	slli	r3,r3,3
 2004598:	10c5883a 	add	r2,r2,r3
 200459c:	11000017 	ldw	r4,0(r2)
 20045a0:	e0bffe17 	ldw	r2,-8(fp)
 20045a4:	10c00d17 	ldw	r3,52(r2)
 20045a8:	e0bffd17 	ldw	r2,-12(fp)
 20045ac:	100490fa 	slli	r2,r2,3
 20045b0:	10800104 	addi	r2,r2,4
 20045b4:	1885883a 	add	r2,r3,r2
 20045b8:	11800017 	ldw	r6,0(r2)
 20045bc:	e0bffe17 	ldw	r2,-8(fp)
 20045c0:	10800a17 	ldw	r2,40(r2)
 20045c4:	00c00044 	movi	r3,1
 20045c8:	d8c00015 	stw	r3,0(sp)
 20045cc:	d8800115 	stw	r2,4(sp)
 20045d0:	e0bfff17 	ldw	r2,-4(fp)
 20045d4:	d8800215 	stw	r2,8(sp)
 20045d8:	e17ffd17 	ldw	r5,-12(fp)
 20045dc:	e1fffd17 	ldw	r7,-12(fp)
 20045e0:	20022400 	call	2002240 <vid_draw_line>
                         tri->vertex_x[2], tri->vertex_y[2], tri->span_array);
    vid_bres_scan_edges( tri->vertex_x[2], tri->vertex_y[2], 
                         tri->vertex_x[0], tri->vertex_y[0], tri->span_array);
  
    // Render the polygon
    for( i = tri->top_y; i <= tri->bottom_y; i++ )
 20045e4:	e0bffd17 	ldw	r2,-12(fp)
 20045e8:	10800044 	addi	r2,r2,1
 20045ec:	e0bffd15 	stw	r2,-12(fp)
 20045f0:	e0bffe17 	ldw	r2,-8(fp)
 20045f4:	10c00917 	ldw	r3,36(r2)
 20045f8:	e0bffd17 	ldw	r2,-12(fp)
 20045fc:	18bfe20e 	bge	r3,r2,2004588 <__alt_mem_pic_mem+0xfe000588>
    {
//      vid_draw_horiz_line (tri->span_array[i*2], tri->span_array[(i*2)+1], i, tri->col, display);
      vid_draw_line (tri->span_array[i*2], i, tri->span_array[(i*2)+1], i, 1, tri->col, display);

    }
    free(tri->span_array);
 2004600:	e0bffe17 	ldw	r2,-8(fp)
 2004604:	10800d17 	ldw	r2,52(r2)
 2004608:	1009883a 	mov	r4,r2
 200460c:	20087280 	call	2008728 <free>
  }
}
 2004610:	e037883a 	mov	sp,fp
 2004614:	dfc00117 	ldw	ra,4(sp)
 2004618:	df000017 	ldw	fp,0(sp)
 200461c:	dec00204 	addi	sp,sp,8
 2004620:	f800283a 	ret

02004624 <CopyImage16>:

void CopyImage16( short * __restrict__ source_buffer, 
                  short * __restrict__ dest_buffer, 
                  short source_width, short source_height,
                  short dest_width, short dest_height )
{
 2004624:	defff404 	addi	sp,sp,-48
 2004628:	dfc00b15 	stw	ra,44(sp)
 200462c:	df000a15 	stw	fp,40(sp)
 2004630:	df000a04 	addi	fp,sp,40
 2004634:	e13ffa15 	stw	r4,-24(fp)
 2004638:	e17ffb15 	stw	r5,-20(fp)
 200463c:	300b883a 	mov	r5,r6
 2004640:	3809883a 	mov	r4,r7
 2004644:	e0c00217 	ldw	r3,8(fp)
 2004648:	e0800317 	ldw	r2,12(fp)
 200464c:	e17ffc0d 	sth	r5,-16(fp)
 2004650:	e13ffd0d 	sth	r4,-12(fp)
 2004654:	e0fffe0d 	sth	r3,-8(fp)
 2004658:	e0bfff0d 	sth	r2,-4(fp)
  int y_src, y_dst;
  int y_src_offset = 0;
 200465c:	e03ff815 	stw	zero,-32(fp)
  int y_dst_offset = 0;
 2004660:	e03ff915 	stw	zero,-28(fp)
  
  for( y_src = 0, y_dst = 0; 
 2004664:	e03ff615 	stw	zero,-40(fp)
 2004668:	e03ff715 	stw	zero,-36(fp)
 200466c:	00001d06 	br	20046e4 <CopyImage16+0xc0>
       y_src <= ( source_height  - 1 ); 
       y_src++, y_dst++, y_src_offset += source_width, y_dst_offset += dest_width )
  {
    memcpy(( dest_buffer + y_dst_offset ), 
 2004670:	e0bff917 	ldw	r2,-28(fp)
 2004674:	1085883a 	add	r2,r2,r2
 2004678:	1007883a 	mov	r3,r2
 200467c:	e0bffb17 	ldw	r2,-20(fp)
 2004680:	10c9883a 	add	r4,r2,r3
 2004684:	e0bff817 	ldw	r2,-32(fp)
           ( source_buffer + y_src_offset ), 
 2004688:	1085883a 	add	r2,r2,r2
 200468c:	1007883a 	mov	r3,r2
  
  for( y_src = 0, y_dst = 0; 
       y_src <= ( source_height  - 1 ); 
       y_src++, y_dst++, y_src_offset += source_width, y_dst_offset += dest_width )
  {
    memcpy(( dest_buffer + y_dst_offset ), 
 2004690:	e0bffa17 	ldw	r2,-24(fp)
 2004694:	10c7883a 	add	r3,r2,r3
           ( source_buffer + y_src_offset ), 
           ( source_width << 1 ));
 2004698:	e0bffc0f 	ldh	r2,-16(fp)
 200469c:	1085883a 	add	r2,r2,r2
  
  for( y_src = 0, y_dst = 0; 
       y_src <= ( source_height  - 1 ); 
       y_src++, y_dst++, y_src_offset += source_width, y_dst_offset += dest_width )
  {
    memcpy(( dest_buffer + y_dst_offset ), 
 20046a0:	180b883a 	mov	r5,r3
 20046a4:	100d883a 	mov	r6,r2
 20046a8:	2008dc00 	call	2008dc0 <memcpy>
  int y_src_offset = 0;
  int y_dst_offset = 0;
  
  for( y_src = 0, y_dst = 0; 
       y_src <= ( source_height  - 1 ); 
       y_src++, y_dst++, y_src_offset += source_width, y_dst_offset += dest_width )
 20046ac:	e0bff617 	ldw	r2,-40(fp)
 20046b0:	10800044 	addi	r2,r2,1
 20046b4:	e0bff615 	stw	r2,-40(fp)
 20046b8:	e0bff717 	ldw	r2,-36(fp)
 20046bc:	10800044 	addi	r2,r2,1
 20046c0:	e0bff715 	stw	r2,-36(fp)
 20046c4:	e0bffc0f 	ldh	r2,-16(fp)
 20046c8:	e0fff817 	ldw	r3,-32(fp)
 20046cc:	1885883a 	add	r2,r3,r2
 20046d0:	e0bff815 	stw	r2,-32(fp)
 20046d4:	e0bffe0f 	ldh	r2,-8(fp)
 20046d8:	e0fff917 	ldw	r3,-28(fp)
 20046dc:	1885883a 	add	r2,r3,r2
 20046e0:	e0bff915 	stw	r2,-28(fp)
  int y_src, y_dst;
  int y_src_offset = 0;
  int y_dst_offset = 0;
  
  for( y_src = 0, y_dst = 0; 
       y_src <= ( source_height  - 1 ); 
 20046e4:	e0bffd0f 	ldh	r2,-12(fp)
 20046e8:	10ffffc4 	addi	r3,r2,-1
{
  int y_src, y_dst;
  int y_src_offset = 0;
  int y_dst_offset = 0;
  
  for( y_src = 0, y_dst = 0; 
 20046ec:	e0bff617 	ldw	r2,-40(fp)
 20046f0:	18bfdf0e 	bge	r3,r2,2004670 <__alt_mem_pic_mem+0xfe000670>
  {
    memcpy(( dest_buffer + y_dst_offset ), 
           ( source_buffer + y_src_offset ), 
           ( source_width << 1 ));
  }
}
 20046f4:	e037883a 	mov	sp,fp
 20046f8:	dfc00117 	ldw	ra,4(sp)
 20046fc:	df000017 	ldw	fp,0(sp)
 2004700:	dec00204 	addi	sp,sp,8
 2004704:	f800283a 	ret

02004708 <CropImage16>:
                  short * __restrict__ dest_buffer, 
                  short source_width, short source_height,
                  short crop_left, short crop_right,
                  short crop_top, short crop_bottom,
                  short dest_width, short dest_height )
{
 2004708:	defff004 	addi	sp,sp,-64
 200470c:	dfc00f15 	stw	ra,60(sp)
 2004710:	df000e15 	stw	fp,56(sp)
 2004714:	df000e04 	addi	fp,sp,56
 2004718:	e13ff615 	stw	r4,-40(fp)
 200471c:	e17ff715 	stw	r5,-36(fp)
 2004720:	3013883a 	mov	r9,r6
 2004724:	3811883a 	mov	r8,r7
 2004728:	e1c00217 	ldw	r7,8(fp)
 200472c:	e1800317 	ldw	r6,12(fp)
 2004730:	e1400417 	ldw	r5,16(fp)
 2004734:	e1000517 	ldw	r4,20(fp)
 2004738:	e0c00617 	ldw	r3,24(fp)
 200473c:	e0800717 	ldw	r2,28(fp)
 2004740:	e27ff80d 	sth	r9,-32(fp)
 2004744:	e23ff90d 	sth	r8,-28(fp)
 2004748:	e1fffa0d 	sth	r7,-24(fp)
 200474c:	e1bffb0d 	sth	r6,-20(fp)
 2004750:	e17ffc0d 	sth	r5,-16(fp)
 2004754:	e13ffd0d 	sth	r4,-12(fp)
 2004758:	e0fffe0d 	sth	r3,-8(fp)
 200475c:	e0bfff0d 	sth	r2,-4(fp)
  int y_src, y_dst;
  int y_src_offset = (source_width * crop_top);
 2004760:	e0fff80f 	ldh	r3,-32(fp)
 2004764:	e0bffc0f 	ldh	r2,-16(fp)
 2004768:	1885383a 	mul	r2,r3,r2
 200476c:	e0bff415 	stw	r2,-48(fp)
  int y_dst_offset = 0;
 2004770:	e03ff515 	stw	zero,-44(fp)
  
  for( y_src = crop_top, y_dst = 0; 
 2004774:	e0bffc0f 	ldh	r2,-16(fp)
 2004778:	e0bff215 	stw	r2,-56(fp)
 200477c:	e03ff315 	stw	zero,-52(fp)
 2004780:	00002206 	br	200480c <CropImage16+0x104>
       y_src <= ( source_height - crop_bottom - 1 ); 
       y_src++, y_dst++, y_src_offset += source_width, y_dst_offset += dest_width )
  {
    memcpy(( dest_buffer + y_dst_offset ), 
 2004784:	e0bff517 	ldw	r2,-44(fp)
 2004788:	1085883a 	add	r2,r2,r2
 200478c:	1007883a 	mov	r3,r2
 2004790:	e0bff717 	ldw	r2,-36(fp)
 2004794:	10c9883a 	add	r4,r2,r3
           ( source_buffer + y_src_offset + crop_left ), 
 2004798:	e0fffa0f 	ldh	r3,-24(fp)
 200479c:	e0bff417 	ldw	r2,-48(fp)
 20047a0:	1885883a 	add	r2,r3,r2
 20047a4:	1085883a 	add	r2,r2,r2
 20047a8:	1007883a 	mov	r3,r2
 20047ac:	e0bff617 	ldw	r2,-40(fp)
 20047b0:	10cb883a 	add	r5,r2,r3
           ((source_width - crop_left - crop_right) << 1));
 20047b4:	e0fff80f 	ldh	r3,-32(fp)
 20047b8:	e0bffa0f 	ldh	r2,-24(fp)
 20047bc:	1887c83a 	sub	r3,r3,r2
 20047c0:	e0bffb0f 	ldh	r2,-20(fp)
 20047c4:	1885c83a 	sub	r2,r3,r2
 20047c8:	1085883a 	add	r2,r2,r2
  
  for( y_src = crop_top, y_dst = 0; 
       y_src <= ( source_height - crop_bottom - 1 ); 
       y_src++, y_dst++, y_src_offset += source_width, y_dst_offset += dest_width )
  {
    memcpy(( dest_buffer + y_dst_offset ), 
 20047cc:	100d883a 	mov	r6,r2
 20047d0:	2008dc00 	call	2008dc0 <memcpy>
  int y_src_offset = (source_width * crop_top);
  int y_dst_offset = 0;
  
  for( y_src = crop_top, y_dst = 0; 
       y_src <= ( source_height - crop_bottom - 1 ); 
       y_src++, y_dst++, y_src_offset += source_width, y_dst_offset += dest_width )
 20047d4:	e0bff217 	ldw	r2,-56(fp)
 20047d8:	10800044 	addi	r2,r2,1
 20047dc:	e0bff215 	stw	r2,-56(fp)
 20047e0:	e0bff317 	ldw	r2,-52(fp)
 20047e4:	10800044 	addi	r2,r2,1
 20047e8:	e0bff315 	stw	r2,-52(fp)
 20047ec:	e0bff80f 	ldh	r2,-32(fp)
 20047f0:	e0fff417 	ldw	r3,-48(fp)
 20047f4:	1885883a 	add	r2,r3,r2
 20047f8:	e0bff415 	stw	r2,-48(fp)
 20047fc:	e0bffe0f 	ldh	r2,-8(fp)
 2004800:	e0fff517 	ldw	r3,-44(fp)
 2004804:	1885883a 	add	r2,r3,r2
 2004808:	e0bff515 	stw	r2,-44(fp)
  int y_src, y_dst;
  int y_src_offset = (source_width * crop_top);
  int y_dst_offset = 0;
  
  for( y_src = crop_top, y_dst = 0; 
       y_src <= ( source_height - crop_bottom - 1 ); 
 200480c:	e0fff90f 	ldh	r3,-28(fp)
 2004810:	e0bffd0f 	ldh	r2,-12(fp)
 2004814:	1885c83a 	sub	r2,r3,r2
 2004818:	10ffffc4 	addi	r3,r2,-1
{
  int y_src, y_dst;
  int y_src_offset = (source_width * crop_top);
  int y_dst_offset = 0;
  
  for( y_src = crop_top, y_dst = 0; 
 200481c:	e0bff217 	ldw	r2,-56(fp)
 2004820:	18bfd80e 	bge	r3,r2,2004784 <__alt_mem_pic_mem+0xfe000784>
  {
    memcpy(( dest_buffer + y_dst_offset ), 
           ( source_buffer + y_src_offset + crop_left ), 
           ((source_width - crop_left - crop_right) << 1));
  }
}
 2004824:	e037883a 	mov	sp,fp
 2004828:	dfc00117 	ldw	ra,4(sp)
 200482c:	df000017 	ldw	fp,0(sp)
 2004830:	dec00204 	addi	sp,sp,8
 2004834:	f800283a 	ret

02004838 <vid_print_string_alpha>:
*           24 bit - R(8):G(8):B(8)  (packed)
*           32 bit - 0 : R(8):G(8):B(8) (unpacked)
******************************************************************/

int vid_print_string_alpha(int horiz_offset, int vert_offset, int color, int background_color, struct abc_font_struct font[], alt_video_display * display, char string[])
{
 2004838:	defff404 	addi	sp,sp,-48
 200483c:	dfc00b15 	stw	ra,44(sp)
 2004840:	df000a15 	stw	fp,40(sp)
 2004844:	df000a04 	addi	fp,sp,40
 2004848:	e13ffc15 	stw	r4,-16(fp)
 200484c:	e17ffd15 	stw	r5,-12(fp)
 2004850:	e1bffe15 	stw	r6,-8(fp)
 2004854:	e1ffff15 	stw	r7,-4(fp)
  int i = 0;
 2004858:	e03ff915 	stw	zero,-28(fp)
  int tab;
  int original_horiz_offset;

  original_horiz_offset = horiz_offset;
 200485c:	e0bffc17 	ldw	r2,-16(fp)
 2004860:	e0bffb15 	stw	r2,-20(fp)

  // Print until we hit the '\0' char.
  while (string[i]) {
 2004864:	00007d06 	br	2004a5c <vid_print_string_alpha+0x224>
    //Handle newline char here.
    if (string[i] == '\n') {
 2004868:	e0bff917 	ldw	r2,-28(fp)
 200486c:	e0c00417 	ldw	r3,16(fp)
 2004870:	1885883a 	add	r2,r3,r2
 2004874:	10800003 	ldbu	r2,0(r2)
 2004878:	10803fcc 	andi	r2,r2,255
 200487c:	1080201c 	xori	r2,r2,128
 2004880:	10bfe004 	addi	r2,r2,-128
 2004884:	10800298 	cmpnei	r2,r2,10
 2004888:	10000c1e 	bne	r2,zero,20048bc <vid_print_string_alpha+0x84>
      horiz_offset = original_horiz_offset;
 200488c:	e0bffb17 	ldw	r2,-20(fp)
 2004890:	e0bffc15 	stw	r2,-16(fp)
      vert_offset += font['|' - 33].bounds_height;  // we'll use "|" to add the line to line spacing
 2004894:	e0800217 	ldw	r2,8(fp)
 2004898:	1082d804 	addi	r2,r2,2912
 200489c:	10c00517 	ldw	r3,20(r2)
 20048a0:	e0bffd17 	ldw	r2,-12(fp)
 20048a4:	1885883a 	add	r2,r3,r2
 20048a8:	e0bffd15 	stw	r2,-12(fp)
      i++;
 20048ac:	e0bff917 	ldw	r2,-28(fp)
 20048b0:	10800044 	addi	r2,r2,1
 20048b4:	e0bff915 	stw	r2,-28(fp)
      continue;
 20048b8:	00006806 	br	2004a5c <vid_print_string_alpha+0x224>
    }
    // Lay down that character and increment our offsets.
    if(string[i] == 32)  // this is a space in ASCII
 20048bc:	e0bff917 	ldw	r2,-28(fp)
 20048c0:	e0c00417 	ldw	r3,16(fp)
 20048c4:	1885883a 	add	r2,r3,r2
 20048c8:	10800003 	ldbu	r2,0(r2)
 20048cc:	10803fcc 	andi	r2,r2,255
 20048d0:	1080201c 	xori	r2,r2,128
 20048d4:	10bfe004 	addi	r2,r2,-128
 20048d8:	10800818 	cmpnei	r2,r2,32
 20048dc:	1000151e 	bne	r2,zero,2004934 <vid_print_string_alpha+0xfc>
    {
      if(background_color != CLEAR_BACKGROUND)  // need to fill in this spot (setting foreground to background color so that it looks like a drawn in box)
 20048e0:	e0bfff17 	ldw	r2,-4(fp)
 20048e4:	10bfffe0 	cmpeqi	r2,r2,-1
 20048e8:	10000b1e 	bne	r2,zero,2004918 <vid_print_string_alpha+0xe0>
      {
        vid_print_char_alpha (horiz_offset, vert_offset, background_color, '-', background_color, font, display);
 20048ec:	e0bfff17 	ldw	r2,-4(fp)
 20048f0:	d8800015 	stw	r2,0(sp)
 20048f4:	e0800217 	ldw	r2,8(fp)
 20048f8:	d8800115 	stw	r2,4(sp)
 20048fc:	e0800317 	ldw	r2,12(fp)
 2004900:	d8800215 	stw	r2,8(sp)
 2004904:	e13ffc17 	ldw	r4,-16(fp)
 2004908:	e17ffd17 	ldw	r5,-12(fp)
 200490c:	e1bfff17 	ldw	r6,-4(fp)
 2004910:	01c00b44 	movi	r7,45
 2004914:	2004f9c0 	call	2004f9c <vid_print_char_alpha>
      }
      horiz_offset += font[45 - 33].bounds_width;  // using the width of the '-' character for the space width since it's not present in the font
 2004918:	e0800217 	ldw	r2,8(fp)
 200491c:	10806004 	addi	r2,r2,384
 2004920:	10c00417 	ldw	r3,16(r2)
 2004924:	e0bffc17 	ldw	r2,-16(fp)
 2004928:	1885883a 	add	r2,r3,r2
 200492c:	e0bffc15 	stw	r2,-16(fp)
 2004930:	00004706 	br	2004a50 <vid_print_string_alpha+0x218>
    }
    else if(string[i] == '\t')  // this is a tab
 2004934:	e0bff917 	ldw	r2,-28(fp)
 2004938:	e0c00417 	ldw	r3,16(fp)
 200493c:	1885883a 	add	r2,r3,r2
 2004940:	10800003 	ldbu	r2,0(r2)
 2004944:	10803fcc 	andi	r2,r2,255
 2004948:	1080201c 	xori	r2,r2,128
 200494c:	10bfe004 	addi	r2,r2,-128
 2004950:	10800258 	cmpnei	r2,r2,9
 2004954:	10001d1e 	bne	r2,zero,20049cc <vid_print_string_alpha+0x194>
    {
      for( tab = 0; tab < TAB_SPACING; tab++ )
 2004958:	e03ffa15 	stw	zero,-24(fp)
 200495c:	00001706 	br	20049bc <vid_print_string_alpha+0x184>
      {
        if(background_color != CLEAR_BACKGROUND)  // need to fill in this spot (setting foreground to background color so that it looks like a drawn in box)
 2004960:	e0bfff17 	ldw	r2,-4(fp)
 2004964:	10bfffe0 	cmpeqi	r2,r2,-1
 2004968:	10000b1e 	bne	r2,zero,2004998 <vid_print_string_alpha+0x160>
        {
          vid_print_char_alpha (horiz_offset, vert_offset, background_color, '-', background_color, font, display);
 200496c:	e0bfff17 	ldw	r2,-4(fp)
 2004970:	d8800015 	stw	r2,0(sp)
 2004974:	e0800217 	ldw	r2,8(fp)
 2004978:	d8800115 	stw	r2,4(sp)
 200497c:	e0800317 	ldw	r2,12(fp)
 2004980:	d8800215 	stw	r2,8(sp)
 2004984:	e13ffc17 	ldw	r4,-16(fp)
 2004988:	e17ffd17 	ldw	r5,-12(fp)
 200498c:	e1bfff17 	ldw	r6,-4(fp)
 2004990:	01c00b44 	movi	r7,45
 2004994:	2004f9c0 	call	2004f9c <vid_print_char_alpha>
        }
        horiz_offset += font[45 - 33].bounds_width;  // using the width of the '-' character for the space width since it's not present in the font
 2004998:	e0800217 	ldw	r2,8(fp)
 200499c:	10806004 	addi	r2,r2,384
 20049a0:	10c00417 	ldw	r3,16(r2)
 20049a4:	e0bffc17 	ldw	r2,-16(fp)
 20049a8:	1885883a 	add	r2,r3,r2
 20049ac:	e0bffc15 	stw	r2,-16(fp)
      }
      horiz_offset += font[45 - 33].bounds_width;  // using the width of the '-' character for the space width since it's not present in the font
    }
    else if(string[i] == '\t')  // this is a tab
    {
      for( tab = 0; tab < TAB_SPACING; tab++ )
 20049b0:	e0bffa17 	ldw	r2,-24(fp)
 20049b4:	10800044 	addi	r2,r2,1
 20049b8:	e0bffa15 	stw	r2,-24(fp)
 20049bc:	e0bffa17 	ldw	r2,-24(fp)
 20049c0:	10800090 	cmplti	r2,r2,2
 20049c4:	103fe61e 	bne	r2,zero,2004960 <__alt_mem_pic_mem+0xfe000960>
 20049c8:	00002106 	br	2004a50 <vid_print_string_alpha+0x218>
        horiz_offset += font[45 - 33].bounds_width;  // using the width of the '-' character for the space width since it's not present in the font
      }
    }
    else
    {
      vid_print_char_alpha (horiz_offset, vert_offset, color, string[i], background_color, font, display);
 20049cc:	e0bff917 	ldw	r2,-28(fp)
 20049d0:	e0c00417 	ldw	r3,16(fp)
 20049d4:	1885883a 	add	r2,r3,r2
 20049d8:	10800003 	ldbu	r2,0(r2)
 20049dc:	10c03fcc 	andi	r3,r2,255
 20049e0:	18c0201c 	xori	r3,r3,128
 20049e4:	18ffe004 	addi	r3,r3,-128
 20049e8:	e0bfff17 	ldw	r2,-4(fp)
 20049ec:	d8800015 	stw	r2,0(sp)
 20049f0:	e0800217 	ldw	r2,8(fp)
 20049f4:	d8800115 	stw	r2,4(sp)
 20049f8:	e0800317 	ldw	r2,12(fp)
 20049fc:	d8800215 	stw	r2,8(sp)
 2004a00:	e13ffc17 	ldw	r4,-16(fp)
 2004a04:	e17ffd17 	ldw	r5,-12(fp)
 2004a08:	e1bffe17 	ldw	r6,-8(fp)
 2004a0c:	180f883a 	mov	r7,r3
 2004a10:	2004f9c0 	call	2004f9c <vid_print_char_alpha>
      horiz_offset += font[string[i] - 33].bounds_width;
 2004a14:	e0bff917 	ldw	r2,-28(fp)
 2004a18:	e0c00417 	ldw	r3,16(fp)
 2004a1c:	1885883a 	add	r2,r3,r2
 2004a20:	10800003 	ldbu	r2,0(r2)
 2004a24:	10803fcc 	andi	r2,r2,255
 2004a28:	1080201c 	xori	r2,r2,128
 2004a2c:	10bfe004 	addi	r2,r2,-128
 2004a30:	1004917a 	slli	r2,r2,5
 2004a34:	10bef804 	addi	r2,r2,-1056
 2004a38:	e0c00217 	ldw	r3,8(fp)
 2004a3c:	1885883a 	add	r2,r3,r2
 2004a40:	10c00417 	ldw	r3,16(r2)
 2004a44:	e0bffc17 	ldw	r2,-16(fp)
 2004a48:	1885883a 	add	r2,r3,r2
 2004a4c:	e0bffc15 	stw	r2,-16(fp)
    }
    i++;
 2004a50:	e0bff917 	ldw	r2,-28(fp)
 2004a54:	10800044 	addi	r2,r2,1
 2004a58:	e0bff915 	stw	r2,-28(fp)
  int original_horiz_offset;

  original_horiz_offset = horiz_offset;

  // Print until we hit the '\0' char.
  while (string[i]) {
 2004a5c:	e0bff917 	ldw	r2,-28(fp)
 2004a60:	e0c00417 	ldw	r3,16(fp)
 2004a64:	1885883a 	add	r2,r3,r2
 2004a68:	10800003 	ldbu	r2,0(r2)
 2004a6c:	10803fcc 	andi	r2,r2,255
 2004a70:	1080201c 	xori	r2,r2,128
 2004a74:	10bfe004 	addi	r2,r2,-128
 2004a78:	103f7b1e 	bne	r2,zero,2004868 <__alt_mem_pic_mem+0xfe000868>
      vid_print_char_alpha (horiz_offset, vert_offset, color, string[i], background_color, font, display);
      horiz_offset += font[string[i] - 33].bounds_width;
    }
    i++;
  }
  return (0);
 2004a7c:	0005883a 	mov	r2,zero
}
 2004a80:	e037883a 	mov	sp,fp
 2004a84:	dfc00117 	ldw	ra,4(sp)
 2004a88:	df000017 	ldw	fp,0(sp)
 2004a8c:	dec00204 	addi	sp,sp,8
 2004a90:	f800283a 	ret

02004a94 <seperate_color_channels>:
*           the function working on pointers.
*
******************************************************************/

__inline__ int seperate_color_channels(int color_depth, unsigned char * color, unsigned char * red, unsigned char * green, unsigned char * blue)
{
 2004a94:	defff904 	addi	sp,sp,-28
 2004a98:	df000615 	stw	fp,24(sp)
 2004a9c:	df000604 	addi	fp,sp,24
 2004aa0:	e13ffc15 	stw	r4,-16(fp)
 2004aa4:	e17ffd15 	stw	r5,-12(fp)
 2004aa8:	e1bffe15 	stw	r6,-8(fp)
 2004aac:	e1ffff15 	stw	r7,-4(fp)
  int return_value;  // error checking in case anyone is listening
  unsigned short temp_color = 0;
 2004ab0:	e03ffb0d 	sth	zero,-20(fp)
  
  if (color_depth == 16)  // R(5):G(6):B(5)
 2004ab4:	e0bffc17 	ldw	r2,-16(fp)
 2004ab8:	10800418 	cmpnei	r2,r2,16
 2004abc:	1000221e 	bne	r2,zero,2004b48 <seperate_color_channels+0xb4>
  {
    temp_color = *color++;        // get the first half of the 16 bit color
 2004ac0:	e0bffd17 	ldw	r2,-12(fp)
 2004ac4:	10c00044 	addi	r3,r2,1
 2004ac8:	e0fffd15 	stw	r3,-12(fp)
 2004acc:	10800003 	ldbu	r2,0(r2)
 2004ad0:	10803fcc 	andi	r2,r2,255
 2004ad4:	e0bffb0d 	sth	r2,-20(fp)
    temp_color += (*color << 8);  // get the second half of the 16 bit color
 2004ad8:	e0bffd17 	ldw	r2,-12(fp)
 2004adc:	10800003 	ldbu	r2,0(r2)
 2004ae0:	10803fcc 	andi	r2,r2,255
 2004ae4:	1004923a 	slli	r2,r2,8
 2004ae8:	1007883a 	mov	r3,r2
 2004aec:	e0bffb0b 	ldhu	r2,-20(fp)
 2004af0:	1885883a 	add	r2,r3,r2
 2004af4:	e0bffb0d 	sth	r2,-20(fp)
    *blue = temp_color & 0x1F; 
 2004af8:	e0bffb0b 	ldhu	r2,-20(fp)
 2004afc:	108007cc 	andi	r2,r2,31
 2004b00:	1007883a 	mov	r3,r2
 2004b04:	e0800117 	ldw	r2,4(fp)
 2004b08:	10c00005 	stb	r3,0(r2)
    *green = (temp_color >> 5) & 0x3F;
 2004b0c:	e0bffb0b 	ldhu	r2,-20(fp)
 2004b10:	1004d17a 	srli	r2,r2,5
 2004b14:	10800fcc 	andi	r2,r2,63
 2004b18:	1007883a 	mov	r3,r2
 2004b1c:	e0bfff17 	ldw	r2,-4(fp)
 2004b20:	10c00005 	stb	r3,0(r2)
    *red = (temp_color >> 11) & 0x1F;
 2004b24:	e0bffb0b 	ldhu	r2,-20(fp)
 2004b28:	1004d2fa 	srli	r2,r2,11
 2004b2c:	108007cc 	andi	r2,r2,31
 2004b30:	1007883a 	mov	r3,r2
 2004b34:	e0bffe17 	ldw	r2,-8(fp)
 2004b38:	10c00005 	stb	r3,0(r2)
    return_value = 1;
 2004b3c:	00800044 	movi	r2,1
 2004b40:	e0bffa15 	stw	r2,-24(fp)
 2004b44:	00002006 	br	2004bc8 <seperate_color_channels+0x134>
  }
  else if ((color_depth == 24) || (color_depth == 32))  // R(8):G(8):B(8) packed/unpacked
 2004b48:	e0bffc17 	ldw	r2,-16(fp)
 2004b4c:	10800620 	cmpeqi	r2,r2,24
 2004b50:	1000031e 	bne	r2,zero,2004b60 <seperate_color_channels+0xcc>
 2004b54:	e0bffc17 	ldw	r2,-16(fp)
 2004b58:	10800818 	cmpnei	r2,r2,32
 2004b5c:	1000131e 	bne	r2,zero,2004bac <seperate_color_channels+0x118>
  {
    *blue = *color++;
 2004b60:	e0bffd17 	ldw	r2,-12(fp)
 2004b64:	10c00044 	addi	r3,r2,1
 2004b68:	e0fffd15 	stw	r3,-12(fp)
 2004b6c:	10c00003 	ldbu	r3,0(r2)
 2004b70:	e0800117 	ldw	r2,4(fp)
 2004b74:	10c00005 	stb	r3,0(r2)
    *green = *color++;
 2004b78:	e0bffd17 	ldw	r2,-12(fp)
 2004b7c:	10c00044 	addi	r3,r2,1
 2004b80:	e0fffd15 	stw	r3,-12(fp)
 2004b84:	10c00003 	ldbu	r3,0(r2)
 2004b88:	e0bfff17 	ldw	r2,-4(fp)
 2004b8c:	10c00005 	stb	r3,0(r2)
    *red = *color;   
 2004b90:	e0bffd17 	ldw	r2,-12(fp)
 2004b94:	10c00003 	ldbu	r3,0(r2)
 2004b98:	e0bffe17 	ldw	r2,-8(fp)
 2004b9c:	10c00005 	stb	r3,0(r2)
    return_value = 1;
 2004ba0:	00800044 	movi	r2,1
 2004ba4:	e0bffa15 	stw	r2,-24(fp)
 2004ba8:	00000706 	br	2004bc8 <seperate_color_channels+0x134>
  }
  else  // not a valid color depth for this function
  {
    *red = 0;
 2004bac:	e0bffe17 	ldw	r2,-8(fp)
 2004bb0:	10000005 	stb	zero,0(r2)
    *green = 0;
 2004bb4:	e0bfff17 	ldw	r2,-4(fp)
 2004bb8:	10000005 	stb	zero,0(r2)
    *blue = 0;    
 2004bbc:	e0800117 	ldw	r2,4(fp)
 2004bc0:	10000005 	stb	zero,0(r2)
    return_value = 0;    
 2004bc4:	e03ffa15 	stw	zero,-24(fp)
  }
  return return_value;
 2004bc8:	e0bffa17 	ldw	r2,-24(fp)
}
 2004bcc:	e037883a 	mov	sp,fp
 2004bd0:	df000017 	ldw	fp,0(sp)
 2004bd4:	dec00104 	addi	sp,sp,4
 2004bd8:	f800283a 	ret

02004bdc <merge_color_channels>:
*           different color formats and packing.
*
******************************************************************/

__inline__ int merge_color_channels(int color_depth, unsigned char red, unsigned char green, unsigned char blue, unsigned char * color)
{
 2004bdc:	defff904 	addi	sp,sp,-28
 2004be0:	df000615 	stw	fp,24(sp)
 2004be4:	df000604 	addi	fp,sp,24
 2004be8:	e13ffc15 	stw	r4,-16(fp)
 2004bec:	2809883a 	mov	r4,r5
 2004bf0:	3007883a 	mov	r3,r6
 2004bf4:	3805883a 	mov	r2,r7
 2004bf8:	e13ffd05 	stb	r4,-12(fp)
 2004bfc:	e0fffe05 	stb	r3,-8(fp)
 2004c00:	e0bfff05 	stb	r2,-4(fp)
  int return_value;  // error checking in case anyone is listening
  unsigned short temp_color;
    
  if (color_depth == 16)  // R(5):G(6):B(5)
 2004c04:	e0bffc17 	ldw	r2,-16(fp)
 2004c08:	10800418 	cmpnei	r2,r2,16
 2004c0c:	1000191e 	bne	r2,zero,2004c74 <merge_color_channels+0x98>
  {
    temp_color = (blue & 0x1F) | ((green & 0x3F) << 5) | ((red & 0x1F) << 11);  // 16 bit color format
 2004c10:	e0bfff03 	ldbu	r2,-4(fp)
 2004c14:	108007cc 	andi	r2,r2,31
 2004c18:	1007883a 	mov	r3,r2
 2004c1c:	e0bffe03 	ldbu	r2,-8(fp)
 2004c20:	10800fcc 	andi	r2,r2,63
 2004c24:	1004917a 	slli	r2,r2,5
 2004c28:	1884b03a 	or	r2,r3,r2
 2004c2c:	1007883a 	mov	r3,r2
 2004c30:	e0bffd03 	ldbu	r2,-12(fp)
 2004c34:	100492fa 	slli	r2,r2,11
 2004c38:	1884b03a 	or	r2,r3,r2
 2004c3c:	e0bffb0d 	sth	r2,-20(fp)
    *color++ = temp_color & 0xFF;
 2004c40:	e0800117 	ldw	r2,4(fp)
 2004c44:	10c00044 	addi	r3,r2,1
 2004c48:	e0c00115 	stw	r3,4(fp)
 2004c4c:	e0fffb0b 	ldhu	r3,-20(fp)
 2004c50:	10c00005 	stb	r3,0(r2)
    *color = (temp_color >> 8) & 0xFF;
 2004c54:	e0bffb0b 	ldhu	r2,-20(fp)
 2004c58:	1004d23a 	srli	r2,r2,8
 2004c5c:	1007883a 	mov	r3,r2
 2004c60:	e0800117 	ldw	r2,4(fp)
 2004c64:	10c00005 	stb	r3,0(r2)
    return_value = 1;
 2004c68:	00800044 	movi	r2,1
 2004c6c:	e0bffa15 	stw	r2,-24(fp)
 2004c70:	00002106 	br	2004cf8 <merge_color_channels+0x11c>
  }
  else if ((color_depth == 24) || (color_depth == 32))  // R(8):G(8):B(8) packed/unpacked
 2004c74:	e0bffc17 	ldw	r2,-16(fp)
 2004c78:	10800620 	cmpeqi	r2,r2,24
 2004c7c:	1000031e 	bne	r2,zero,2004c8c <merge_color_channels+0xb0>
 2004c80:	e0bffc17 	ldw	r2,-16(fp)
 2004c84:	10800818 	cmpnei	r2,r2,32
 2004c88:	1000101e 	bne	r2,zero,2004ccc <merge_color_channels+0xf0>
  {
    *color++ = blue;
 2004c8c:	e0800117 	ldw	r2,4(fp)
 2004c90:	10c00044 	addi	r3,r2,1
 2004c94:	e0c00115 	stw	r3,4(fp)
 2004c98:	e0ffff03 	ldbu	r3,-4(fp)
 2004c9c:	10c00005 	stb	r3,0(r2)
    *color++ = green;
 2004ca0:	e0800117 	ldw	r2,4(fp)
 2004ca4:	10c00044 	addi	r3,r2,1
 2004ca8:	e0c00115 	stw	r3,4(fp)
 2004cac:	e0fffe03 	ldbu	r3,-8(fp)
 2004cb0:	10c00005 	stb	r3,0(r2)
    *color = red;
 2004cb4:	e0800117 	ldw	r2,4(fp)
 2004cb8:	e0fffd03 	ldbu	r3,-12(fp)
 2004cbc:	10c00005 	stb	r3,0(r2)
    return_value = 1;
 2004cc0:	00800044 	movi	r2,1
 2004cc4:	e0bffa15 	stw	r2,-24(fp)
 2004cc8:	00000b06 	br	2004cf8 <merge_color_channels+0x11c>
  }
  else  // not a valid color depth for this function
  {
    *color++ = 0;
 2004ccc:	e0800117 	ldw	r2,4(fp)
 2004cd0:	10c00044 	addi	r3,r2,1
 2004cd4:	e0c00115 	stw	r3,4(fp)
 2004cd8:	10000005 	stb	zero,0(r2)
    *color++ = 0;
 2004cdc:	e0800117 	ldw	r2,4(fp)
 2004ce0:	10c00044 	addi	r3,r2,1
 2004ce4:	e0c00115 	stw	r3,4(fp)
 2004ce8:	10000005 	stb	zero,0(r2)
    *color = 0;
 2004cec:	e0800117 	ldw	r2,4(fp)
 2004cf0:	10000005 	stb	zero,0(r2)
    return_value = 0;    
 2004cf4:	e03ffa15 	stw	zero,-24(fp)
  }
  return return_value;  
 2004cf8:	e0bffa17 	ldw	r2,-24(fp)
}
 2004cfc:	e037883a 	mov	sp,fp
 2004d00:	df000017 	ldw	fp,0(sp)
 2004d04:	dec00104 	addi	sp,sp,4
 2004d08:	f800283a 	ret

02004d0c <read_from_frame>:
*           needed to calculate the new one.
*
******************************************************************/

__inline__ int read_from_frame (int horiz, int vert, unsigned char *red, unsigned char *green, unsigned char *blue, alt_video_display * display)
{
 2004d0c:	defffa04 	addi	sp,sp,-24
 2004d10:	dfc00515 	stw	ra,20(sp)
 2004d14:	df000415 	stw	fp,16(sp)
 2004d18:	df000404 	addi	fp,sp,16
 2004d1c:	e13ffc15 	stw	r4,-16(fp)
 2004d20:	e17ffd15 	stw	r5,-12(fp)
 2004d24:	e1bffe15 	stw	r6,-8(fp)
 2004d28:	e1ffff15 	stw	r7,-4(fp)
#ifdef LT24
	printf("read_from_frame is not implemented!\r\n");
 2004d2c:	010080b4 	movhi	r4,514
 2004d30:	21171104 	addi	r4,r4,23620
 2004d34:	2008f100 	call	2008f10 <puts>
	return(0);
 2004d38:	0005883a 	mov	r2,zero
    return_value = 0; 
  }

  return return_value;
#endif
}
 2004d3c:	e037883a 	mov	sp,fp
 2004d40:	dfc00117 	ldw	ra,4(sp)
 2004d44:	df000017 	ldw	fp,0(sp)
 2004d48:	dec00204 	addi	sp,sp,8
 2004d4c:	f800283a 	ret

02004d50 <alpha_blending>:
*           the font color with the background color.
*
******************************************************************/

__inline__ int alpha_blending (int horiz_offset, int vert_offset, int background_color, unsigned char alpha, unsigned char *red, unsigned char *green, unsigned char *blue, alt_video_display * display)
{
 2004d50:	defff304 	addi	sp,sp,-52
 2004d54:	dfc00c15 	stw	ra,48(sp)
 2004d58:	df000b15 	stw	fp,44(sp)
 2004d5c:	df000b04 	addi	fp,sp,44
 2004d60:	e13ffc15 	stw	r4,-16(fp)
 2004d64:	e17ffd15 	stw	r5,-12(fp)
 2004d68:	e1bffe15 	stw	r6,-8(fp)
 2004d6c:	3805883a 	mov	r2,r7
 2004d70:	e0bfff05 	stb	r2,-4(fp)
  int return_value;
  unsigned char background_red, background_green, background_blue;
  unsigned int blended_red, blended_green, blended_blue;  // short since there may be overflow to be clipped
  
  // set red, green, and blue of the background color
  if(background_color == CLEAR_BACKGROUND)
 2004d74:	e0bffe17 	ldw	r2,-8(fp)
 2004d78:	10bfffd8 	cmpnei	r2,r2,-1
 2004d7c:	10000b1e 	bne	r2,zero,2004dac <alpha_blending+0x5c>
  {
    read_from_frame (horiz_offset, vert_offset, &background_red, &background_green, &background_blue, display);
 2004d80:	e1bffb04 	addi	r6,fp,-20
 2004d84:	e0fffb44 	addi	r3,fp,-19
 2004d88:	e0bffb84 	addi	r2,fp,-18
 2004d8c:	d8800015 	stw	r2,0(sp)
 2004d90:	e0800517 	ldw	r2,20(fp)
 2004d94:	d8800115 	stw	r2,4(sp)
 2004d98:	e13ffc17 	ldw	r4,-16(fp)
 2004d9c:	e17ffd17 	ldw	r5,-12(fp)
 2004da0:	180f883a 	mov	r7,r3
 2004da4:	2004d0c0 	call	2004d0c <read_from_frame>
 2004da8:	00000906 	br	2004dd0 <alpha_blending+0x80>
  }
  else
  {
    seperate_color_channels(display->color_depth, (unsigned char *)&background_color, &background_red, &background_green, &background_blue);
 2004dac:	e0800517 	ldw	r2,20(fp)
 2004db0:	11000017 	ldw	r4,0(r2)
 2004db4:	e17ffe04 	addi	r5,fp,-8
 2004db8:	e1bffb04 	addi	r6,fp,-20
 2004dbc:	e0fffb44 	addi	r3,fp,-19
 2004dc0:	e0bffb84 	addi	r2,fp,-18
 2004dc4:	d8800015 	stw	r2,0(sp)
 2004dc8:	180f883a 	mov	r7,r3
 2004dcc:	2004a940 	call	2004a94 <seperate_color_channels>
  }

  // these blended colors may need to be clipped to the maximum amounts the color depth supports
  blended_red = (((*red) * alpha) + (background_red * (255 - alpha)))/255;
 2004dd0:	e0800217 	ldw	r2,8(fp)
 2004dd4:	10800003 	ldbu	r2,0(r2)
 2004dd8:	10c03fcc 	andi	r3,r2,255
 2004ddc:	e0bfff03 	ldbu	r2,-4(fp)
 2004de0:	1887383a 	mul	r3,r3,r2
 2004de4:	e0bffb03 	ldbu	r2,-20(fp)
 2004de8:	11003fcc 	andi	r4,r2,255
 2004dec:	e0bfff03 	ldbu	r2,-4(fp)
 2004df0:	01403fc4 	movi	r5,255
 2004df4:	2885c83a 	sub	r2,r5,r2
 2004df8:	2085383a 	mul	r2,r4,r2
 2004dfc:	1885883a 	add	r2,r3,r2
 2004e00:	1009883a 	mov	r4,r2
 2004e04:	01403fc4 	movi	r5,255
 2004e08:	200624c0 	call	200624c <__divsi3>
 2004e0c:	e0bff815 	stw	r2,-32(fp)
  blended_green = (((*green) * alpha) + (background_green * (255 - alpha)))/255;
 2004e10:	e0800317 	ldw	r2,12(fp)
 2004e14:	10800003 	ldbu	r2,0(r2)
 2004e18:	10c03fcc 	andi	r3,r2,255
 2004e1c:	e0bfff03 	ldbu	r2,-4(fp)
 2004e20:	1887383a 	mul	r3,r3,r2
 2004e24:	e0bffb43 	ldbu	r2,-19(fp)
 2004e28:	11003fcc 	andi	r4,r2,255
 2004e2c:	e0bfff03 	ldbu	r2,-4(fp)
 2004e30:	01403fc4 	movi	r5,255
 2004e34:	2885c83a 	sub	r2,r5,r2
 2004e38:	2085383a 	mul	r2,r4,r2
 2004e3c:	1885883a 	add	r2,r3,r2
 2004e40:	1009883a 	mov	r4,r2
 2004e44:	01403fc4 	movi	r5,255
 2004e48:	200624c0 	call	200624c <__divsi3>
 2004e4c:	e0bff915 	stw	r2,-28(fp)
  blended_blue = (((*blue) * alpha) + (background_blue * (255 - alpha)))/255;
 2004e50:	e0800417 	ldw	r2,16(fp)
 2004e54:	10800003 	ldbu	r2,0(r2)
 2004e58:	10c03fcc 	andi	r3,r2,255
 2004e5c:	e0bfff03 	ldbu	r2,-4(fp)
 2004e60:	1887383a 	mul	r3,r3,r2
 2004e64:	e0bffb83 	ldbu	r2,-18(fp)
 2004e68:	11003fcc 	andi	r4,r2,255
 2004e6c:	e0bfff03 	ldbu	r2,-4(fp)
 2004e70:	01403fc4 	movi	r5,255
 2004e74:	2885c83a 	sub	r2,r5,r2
 2004e78:	2085383a 	mul	r2,r4,r2
 2004e7c:	1885883a 	add	r2,r3,r2
 2004e80:	1009883a 	mov	r4,r2
 2004e84:	01403fc4 	movi	r5,255
 2004e88:	200624c0 	call	200624c <__divsi3>
 2004e8c:	e0bffa15 	stw	r2,-24(fp)
  

  if(display->color_depth == 16)
 2004e90:	e0800517 	ldw	r2,20(fp)
 2004e94:	10800017 	ldw	r2,0(r2)
 2004e98:	10800418 	cmpnei	r2,r2,16
 2004e9c:	1000181e 	bne	r2,zero,2004f00 <alpha_blending+0x1b0>
  {
    *red = (blended_red > 0x1F)? 0x1F: blended_red;
 2004ea0:	e0bff817 	ldw	r2,-32(fp)
 2004ea4:	10c00830 	cmpltui	r3,r2,32
 2004ea8:	1800011e 	bne	r3,zero,2004eb0 <alpha_blending+0x160>
 2004eac:	008007c4 	movi	r2,31
 2004eb0:	1007883a 	mov	r3,r2
 2004eb4:	e0800217 	ldw	r2,8(fp)
 2004eb8:	10c00005 	stb	r3,0(r2)
    *green = (blended_green > 0x3F)? 0x3F: blended_green;
 2004ebc:	e0bff917 	ldw	r2,-28(fp)
 2004ec0:	10c01030 	cmpltui	r3,r2,64
 2004ec4:	1800011e 	bne	r3,zero,2004ecc <alpha_blending+0x17c>
 2004ec8:	00800fc4 	movi	r2,63
 2004ecc:	1007883a 	mov	r3,r2
 2004ed0:	e0800317 	ldw	r2,12(fp)
 2004ed4:	10c00005 	stb	r3,0(r2)
    *blue = (blended_blue > 0x1F)? 0x1F: blended_blue; 
 2004ed8:	e0bffa17 	ldw	r2,-24(fp)
 2004edc:	10c00830 	cmpltui	r3,r2,32
 2004ee0:	1800011e 	bne	r3,zero,2004ee8 <alpha_blending+0x198>
 2004ee4:	008007c4 	movi	r2,31
 2004ee8:	1007883a 	mov	r3,r2
 2004eec:	e0800417 	ldw	r2,16(fp)
 2004ef0:	10c00005 	stb	r3,0(r2)
    return_value = 1;        
 2004ef4:	00800044 	movi	r2,1
 2004ef8:	e0bff715 	stw	r2,-36(fp)
 2004efc:	00002106 	br	2004f84 <alpha_blending+0x234>
  }
  else if((display->color_depth == 24) || (display->color_depth == 32))
 2004f00:	e0800517 	ldw	r2,20(fp)
 2004f04:	10800017 	ldw	r2,0(r2)
 2004f08:	10800620 	cmpeqi	r2,r2,24
 2004f0c:	1000041e 	bne	r2,zero,2004f20 <alpha_blending+0x1d0>
 2004f10:	e0800517 	ldw	r2,20(fp)
 2004f14:	10800017 	ldw	r2,0(r2)
 2004f18:	10800818 	cmpnei	r2,r2,32
 2004f1c:	1000181e 	bne	r2,zero,2004f80 <alpha_blending+0x230>
  {
    *red = (blended_red > 0xFF)? 0xFF: blended_red;
 2004f20:	e0bff817 	ldw	r2,-32(fp)
 2004f24:	10c04030 	cmpltui	r3,r2,256
 2004f28:	1800011e 	bne	r3,zero,2004f30 <alpha_blending+0x1e0>
 2004f2c:	00803fc4 	movi	r2,255
 2004f30:	1007883a 	mov	r3,r2
 2004f34:	e0800217 	ldw	r2,8(fp)
 2004f38:	10c00005 	stb	r3,0(r2)
    *green = (blended_green > 0xFF)? 0xFF: blended_green;
 2004f3c:	e0bff917 	ldw	r2,-28(fp)
 2004f40:	10c04030 	cmpltui	r3,r2,256
 2004f44:	1800011e 	bne	r3,zero,2004f4c <alpha_blending+0x1fc>
 2004f48:	00803fc4 	movi	r2,255
 2004f4c:	1007883a 	mov	r3,r2
 2004f50:	e0800317 	ldw	r2,12(fp)
 2004f54:	10c00005 	stb	r3,0(r2)
    *blue = (blended_blue > 0xFF)? 0xFF: blended_blue; 
 2004f58:	e0bffa17 	ldw	r2,-24(fp)
 2004f5c:	10c04030 	cmpltui	r3,r2,256
 2004f60:	1800011e 	bne	r3,zero,2004f68 <alpha_blending+0x218>
 2004f64:	00803fc4 	movi	r2,255
 2004f68:	1007883a 	mov	r3,r2
 2004f6c:	e0800417 	ldw	r2,16(fp)
 2004f70:	10c00005 	stb	r3,0(r2)
    return_value = 1;            
 2004f74:	00800044 	movi	r2,1
 2004f78:	e0bff715 	stw	r2,-36(fp)
 2004f7c:	00000106 	br	2004f84 <alpha_blending+0x234>
  }
  else
  {
    return_value = 0;     
 2004f80:	e03ff715 	stw	zero,-36(fp)
  }  
 
  return return_value;
 2004f84:	e0bff717 	ldw	r2,-36(fp)
} 
 2004f88:	e037883a 	mov	sp,fp
 2004f8c:	dfc00117 	ldw	ra,4(sp)
 2004f90:	df000017 	ldw	fp,0(sp)
 2004f94:	dec00204 	addi	sp,sp,8
 2004f98:	f800283a 	ret

02004f9c <vid_print_char_alpha>:
*           screen using the specified font and color.
*
******************************************************************/

int vid_print_char_alpha (int horiz_offset, int vert_offset, int color, char character, int background_color, struct abc_font_struct font[], alt_video_display * display)
{
 2004f9c:	defff004 	addi	sp,sp,-64
 2004fa0:	dfc00f15 	stw	ra,60(sp)
 2004fa4:	df000e15 	stw	fp,56(sp)
 2004fa8:	df000e04 	addi	fp,sp,56
 2004fac:	e13ffc15 	stw	r4,-16(fp)
 2004fb0:	e17ffd15 	stw	r5,-12(fp)
 2004fb4:	e1bffe15 	stw	r6,-8(fp)
 2004fb8:	3805883a 	mov	r2,r7
 2004fbc:	e0bfff05 	stb	r2,-4(fp)
  unsigned char original_red, original_blue, original_green;
  unsigned char red, green, blue;
  int new_color;

  // Assign the pointer of the font bitmap
  alpha = font[character-33].char_alpha_map;
 2004fc0:	e0bfff07 	ldb	r2,-4(fp)
 2004fc4:	1004917a 	slli	r2,r2,5
 2004fc8:	10bef804 	addi	r2,r2,-1056
 2004fcc:	e0c00317 	ldw	r3,12(fp)
 2004fd0:	1885883a 	add	r2,r3,r2
 2004fd4:	10800617 	ldw	r2,24(r2)
 2004fd8:	e0bff815 	stw	r2,-32(fp)

  // set red, green, and blue of the font color  
  seperate_color_channels(display->color_depth, (unsigned char *)&color, &original_red, &original_green, &original_blue);
 2004fdc:	e0800417 	ldw	r2,16(fp)
 2004fe0:	11000017 	ldw	r4,0(r2)
 2004fe4:	e17ffe04 	addi	r5,fp,-8
 2004fe8:	e1bff904 	addi	r6,fp,-28
 2004fec:	e0fff984 	addi	r3,fp,-26
 2004ff0:	e0bff944 	addi	r2,fp,-27
 2004ff4:	d8800015 	stw	r2,0(sp)
 2004ff8:	180f883a 	mov	r7,r3
 2004ffc:	2004a940 	call	2004a94 <seperate_color_channels>

  for(i = 0; i < font[character-33].bounds_height; i++) {
 2005000:	e03ff615 	stw	zero,-40(fp)
 2005004:	00004406 	br	2005118 <vid_print_char_alpha+0x17c>
    for (j = 0; j < font[character-33].bounds_width; j++) {
 2005008:	e03ff715 	stw	zero,-36(fp)
 200500c:	00003706 	br	20050ec <vid_print_char_alpha+0x150>
      red = original_red;
 2005010:	e0bff903 	ldbu	r2,-28(fp)
 2005014:	e0bff9c5 	stb	r2,-25(fp)
      green = original_green;
 2005018:	e0bff983 	ldbu	r2,-26(fp)
 200501c:	e0bffa05 	stb	r2,-24(fp)
      blue = original_blue;
 2005020:	e0bff943 	ldbu	r2,-27(fp)
 2005024:	e0bffa45 	stb	r2,-23(fp)

      // send in the font alpha channel and the colour channels for the blending to occur
      alpha_blending ((horiz_offset + j), (vert_offset + i), background_color, *alpha, &red, &green, &blue, display);
 2005028:	e0fffc17 	ldw	r3,-16(fp)
 200502c:	e0bff717 	ldw	r2,-36(fp)
 2005030:	1889883a 	add	r4,r3,r2
 2005034:	e0fffd17 	ldw	r3,-12(fp)
 2005038:	e0bff617 	ldw	r2,-40(fp)
 200503c:	188b883a 	add	r5,r3,r2
 2005040:	e0bff817 	ldw	r2,-32(fp)
 2005044:	10800003 	ldbu	r2,0(r2)
 2005048:	10c03fcc 	andi	r3,r2,255
 200504c:	e0bff9c4 	addi	r2,fp,-25
 2005050:	d8800015 	stw	r2,0(sp)
 2005054:	e0bffa04 	addi	r2,fp,-24
 2005058:	d8800115 	stw	r2,4(sp)
 200505c:	e0bffa44 	addi	r2,fp,-23
 2005060:	d8800215 	stw	r2,8(sp)
 2005064:	e0800417 	ldw	r2,16(fp)
 2005068:	d8800315 	stw	r2,12(sp)
 200506c:	e1800217 	ldw	r6,8(fp)
 2005070:	180f883a 	mov	r7,r3
 2005074:	2004d500 	call	2004d50 <alpha_blending>

      // take the blended pixel and merge the color channels back into a single pixel value 
      merge_color_channels(display->color_depth, red, green, blue, (unsigned char *)&new_color);
 2005078:	e0800417 	ldw	r2,16(fp)
 200507c:	11000017 	ldw	r4,0(r2)
 2005080:	e0bff9c3 	ldbu	r2,-25(fp)
 2005084:	11403fcc 	andi	r5,r2,255
 2005088:	e0bffa03 	ldbu	r2,-24(fp)
 200508c:	11803fcc 	andi	r6,r2,255
 2005090:	e0bffa43 	ldbu	r2,-23(fp)
 2005094:	10c03fcc 	andi	r3,r2,255
 2005098:	e0bffb04 	addi	r2,fp,-20
 200509c:	d8800015 	stw	r2,0(sp)
 20050a0:	180f883a 	mov	r7,r3
 20050a4:	2004bdc0 	call	2004bdc <merge_color_channels>
      
      // write the new pixel value out to memory overwriting the current background     
      vid_set_pixel((horiz_offset + j), (vert_offset + i), new_color, display);     
 20050a8:	e0fffc17 	ldw	r3,-16(fp)
 20050ac:	e0bff717 	ldw	r2,-36(fp)
 20050b0:	1889883a 	add	r4,r3,r2
 20050b4:	e0fffd17 	ldw	r3,-12(fp)
 20050b8:	e0bff617 	ldw	r2,-40(fp)
 20050bc:	1885883a 	add	r2,r3,r2
 20050c0:	e0fffb17 	ldw	r3,-20(fp)
 20050c4:	100b883a 	mov	r5,r2
 20050c8:	180d883a 	mov	r6,r3
 20050cc:	e1c00417 	ldw	r7,16(fp)
 20050d0:	2002c640 	call	2002c64 <vid_set_pixel>

      alpha++;
 20050d4:	e0bff817 	ldw	r2,-32(fp)
 20050d8:	10800044 	addi	r2,r2,1
 20050dc:	e0bff815 	stw	r2,-32(fp)

  // set red, green, and blue of the font color  
  seperate_color_channels(display->color_depth, (unsigned char *)&color, &original_red, &original_green, &original_blue);

  for(i = 0; i < font[character-33].bounds_height; i++) {
    for (j = 0; j < font[character-33].bounds_width; j++) {
 20050e0:	e0bff717 	ldw	r2,-36(fp)
 20050e4:	10800044 	addi	r2,r2,1
 20050e8:	e0bff715 	stw	r2,-36(fp)
 20050ec:	e0fff717 	ldw	r3,-36(fp)
 20050f0:	e0bfff07 	ldb	r2,-4(fp)
 20050f4:	1004917a 	slli	r2,r2,5
 20050f8:	10bef804 	addi	r2,r2,-1056
 20050fc:	e1000317 	ldw	r4,12(fp)
 2005100:	2085883a 	add	r2,r4,r2
 2005104:	10800417 	ldw	r2,16(r2)
 2005108:	18bfc136 	bltu	r3,r2,2005010 <__alt_mem_pic_mem+0xfe001010>
  alpha = font[character-33].char_alpha_map;

  // set red, green, and blue of the font color  
  seperate_color_channels(display->color_depth, (unsigned char *)&color, &original_red, &original_green, &original_blue);

  for(i = 0; i < font[character-33].bounds_height; i++) {
 200510c:	e0bff617 	ldw	r2,-40(fp)
 2005110:	10800044 	addi	r2,r2,1
 2005114:	e0bff615 	stw	r2,-40(fp)
 2005118:	e0fff617 	ldw	r3,-40(fp)
 200511c:	e0bfff07 	ldb	r2,-4(fp)
 2005120:	1004917a 	slli	r2,r2,5
 2005124:	10bef804 	addi	r2,r2,-1056
 2005128:	e1000317 	ldw	r4,12(fp)
 200512c:	2085883a 	add	r2,r4,r2
 2005130:	10800517 	ldw	r2,20(r2)
 2005134:	18bfb436 	bltu	r3,r2,2005008 <__alt_mem_pic_mem+0xfe001008>

      alpha++;
    }
  }

  return(0);
 2005138:	0005883a 	mov	r2,zero
}
 200513c:	e037883a 	mov	sp,fp
 2005140:	dfc00117 	ldw	ra,4(sp)
 2005144:	df000017 	ldw	fp,0(sp)
 2005148:	dec00204 	addi	sp,sp,8
 200514c:	f800283a 	ret

02005150 <vid_string_pixel_length_alpha>:
*           font.  Useful for centering text, and determining the
*           appropriate size of a text box or button.
*
******************************************************************/
int vid_string_pixel_length_alpha( struct abc_font_struct font[], char string[] )
{
 2005150:	defffb04 	addi	sp,sp,-20
 2005154:	df000415 	stw	fp,16(sp)
 2005158:	df000404 	addi	fp,sp,16
 200515c:	e13ffe15 	stw	r4,-8(fp)
 2005160:	e17fff15 	stw	r5,-4(fp)
  int i = 0;
 2005164:	e03ffc15 	stw	zero,-16(fp)
  int length = 0;
 2005168:	e03ffd15 	stw	zero,-12(fp)

  // Count the length of the string
  for( i = 0; string[i] != '\0'; i++ )
 200516c:	e03ffc15 	stw	zero,-16(fp)
 2005170:	00002206 	br	20051fc <vid_string_pixel_length_alpha+0xac>
  {
    if( string[i] == ' ' )
 2005174:	e0bffc17 	ldw	r2,-16(fp)
 2005178:	e0ffff17 	ldw	r3,-4(fp)
 200517c:	1885883a 	add	r2,r3,r2
 2005180:	10800003 	ldbu	r2,0(r2)
 2005184:	10803fcc 	andi	r2,r2,255
 2005188:	1080201c 	xori	r2,r2,128
 200518c:	10bfe004 	addi	r2,r2,-128
 2005190:	10800818 	cmpnei	r2,r2,32
 2005194:	1000071e 	bne	r2,zero,20051b4 <vid_string_pixel_length_alpha+0x64>
    {
      // Here we just add the length of the '-' character
      length += font[45 - 33].bounds_width;
 2005198:	e0bffe17 	ldw	r2,-8(fp)
 200519c:	10806004 	addi	r2,r2,384
 20051a0:	10c00417 	ldw	r3,16(r2)
 20051a4:	e0bffd17 	ldw	r2,-12(fp)
 20051a8:	1885883a 	add	r2,r3,r2
 20051ac:	e0bffd15 	stw	r2,-12(fp)
 20051b0:	00000f06 	br	20051f0 <vid_string_pixel_length_alpha+0xa0>
    }
    else
    {
      length += font[string[i] - 33].bounds_width;
 20051b4:	e0bffc17 	ldw	r2,-16(fp)
 20051b8:	e0ffff17 	ldw	r3,-4(fp)
 20051bc:	1885883a 	add	r2,r3,r2
 20051c0:	10800003 	ldbu	r2,0(r2)
 20051c4:	10803fcc 	andi	r2,r2,255
 20051c8:	1080201c 	xori	r2,r2,128
 20051cc:	10bfe004 	addi	r2,r2,-128
 20051d0:	1004917a 	slli	r2,r2,5
 20051d4:	10bef804 	addi	r2,r2,-1056
 20051d8:	e0fffe17 	ldw	r3,-8(fp)
 20051dc:	1885883a 	add	r2,r3,r2
 20051e0:	10c00417 	ldw	r3,16(r2)
 20051e4:	e0bffd17 	ldw	r2,-12(fp)
 20051e8:	1885883a 	add	r2,r3,r2
 20051ec:	e0bffd15 	stw	r2,-12(fp)
{
  int i = 0;
  int length = 0;

  // Count the length of the string
  for( i = 0; string[i] != '\0'; i++ )
 20051f0:	e0bffc17 	ldw	r2,-16(fp)
 20051f4:	10800044 	addi	r2,r2,1
 20051f8:	e0bffc15 	stw	r2,-16(fp)
 20051fc:	e0bffc17 	ldw	r2,-16(fp)
 2005200:	e0ffff17 	ldw	r3,-4(fp)
 2005204:	1885883a 	add	r2,r3,r2
 2005208:	10800003 	ldbu	r2,0(r2)
 200520c:	10803fcc 	andi	r2,r2,255
 2005210:	1080201c 	xori	r2,r2,128
 2005214:	10bfe004 	addi	r2,r2,-128
 2005218:	103fd61e 	bne	r2,zero,2005174 <__alt_mem_pic_mem+0xfe001174>
    else
    {
      length += font[string[i] - 33].bounds_width;
    }
  }
  return( length );
 200521c:	e0bffd17 	ldw	r2,-12(fp)
}
 2005220:	e037883a 	mov	sp,fp
 2005224:	df000017 	ldw	fp,0(sp)
 2005228:	dec00104 	addi	sp,sp,4
 200522c:	f800283a 	ret

02005230 <main>:
#include "graphic_lib/alt_video_display.h"
#include "graphic_lib/ILI9341.h"
#include "demo/gui.h"

int main()
{
 2005230:	defff204 	addi	sp,sp,-56
 2005234:	dfc00d15 	stw	ra,52(sp)
 2005238:	df000c15 	stw	fp,48(sp)
 200523c:	df000c04 	addi	fp,sp,48
Clr_BUFFER_FLAG();
 2005240:	2001db40 	call	2001db4 <Clr_BUFFER_FLAG>

 alt_video_display Display;
 TOUCH_HANDLE *pTouch;

 printf("Hi There !\n");
 2005244:	010080b4 	movhi	r4,514
 2005248:	21171b04 	addi	r4,r4,23660
 200524c:	2008f100 	call	2008f10 <puts>

 // Write 0x3C on LED[6:0] through the dedicated custom IP
 IOWR(LED_CTRL_BASE, 0x0, 0x3C);
 2005250:	00c00f04 	movi	r3,60
 2005254:	00810034 	movhi	r2,1024
 2005258:	109d0004 	addi	r2,r2,29696
 200525c:	10c00035 	stwio	r3,0(r2)

 // TOUCH INITIALIZATION
 pTouch = Touch_Init(LT24_TOUCH_SPI_BASE,  LT24_TOUCH_PENIRQ_N_BASE, LT24_TOUCH_PENIRQ_N_IRQ);
 2005260:	01010034 	movhi	r4,1024
 2005264:	211e0004 	addi	r4,r4,30720
 2005268:	01410034 	movhi	r5,1024
 200526c:	295e1804 	addi	r5,r5,30816
 2005270:	018000c4 	movi	r6,3
 2005274:	20053680 	call	2005368 <Touch_Init>
 2005278:	e0bff515 	stw	r2,-44(fp)
 if (!pTouch){
 200527c:	e0bff517 	ldw	r2,-44(fp)
 2005280:	1000041e 	bne	r2,zero,2005294 <main+0x64>
	 printf("Failed to init touch\r\n");
 2005284:	010080b4 	movhi	r4,514
 2005288:	21171e04 	addi	r4,r4,23672
 200528c:	2008f100 	call	2008f10 <puts>
 2005290:	00000306 	br	20052a0 <main+0x70>
 }else{
	 printf("Init touch successfully\r\n");
 2005294:	010080b4 	movhi	r4,514
 2005298:	21172404 	addi	r4,r4,23696
 200529c:	2008f100 	call	2008f10 <puts>
 }

 // LCD INITIALIZATION
 LCD_Init();
 20052a0:	20014f40 	call	20014f4 <LCD_Init>
 // Pattern example
 //LCD_Pattern_Horizon();
 // Sleep 3s
 //usleep(3*1000*1000);

 Set_BUFFER_FLAG();
 20052a4:	2001d780 	call	2001d78 <Set_BUFFER_FLAG>

 unsigned int test;
 int insert = 11;
 20052a8:	008002c4 	movi	r2,11
 20052ac:	e0bff615 	stw	r2,-40(fp)
 int read4, read8;
 unsigned int X, Y;
 unsigned int posTamper =0;
 20052b0:	e03ff415 	stw	zero,-48(fp)
 while(1){
	 if(Touch_GetXY(pTouch, &X, &Y)){
 20052b4:	e0fffe04 	addi	r3,fp,-8
 20052b8:	e0bfff04 	addi	r2,fp,-4
 20052bc:	e13ff517 	ldw	r4,-44(fp)
 20052c0:	180b883a 	mov	r5,r3
 20052c4:	100d883a 	mov	r6,r2
 20052c8:	200557c0 	call	200557c <Touch_GetXY>
 20052cc:	10002526 	beq	r2,zero,2005364 <main+0x134>
		 //printf("X: %d Y: %d\n",X,Y);
		 LCD_WR_DATA(Y);
 20052d0:	e0bfff17 	ldw	r2,-4(fp)
 20052d4:	1007883a 	mov	r3,r2
 20052d8:	00810034 	movhi	r2,1024
 20052dc:	109e2904 	addi	r2,r2,30884
 20052e0:	10c00035 	stwio	r3,0(r2)
		 LCD_WR_REG(X);
 20052e4:	e0bffe17 	ldw	r2,-8(fp)
 20052e8:	1007883a 	mov	r3,r2
 20052ec:	00810034 	movhi	r2,1024
 20052f0:	109e2804 	addi	r2,r2,30880
 20052f4:	10c00035 	stwio	r3,0(r2)
		 //we can modify the character (the image become progressively red when we touch it), we might do the same for the background
		 IOWR_16DIRECT(PIC_MEM_BASE,posTamper,0xF800);
 20052f8:	e0fff417 	ldw	r3,-48(fp)
 20052fc:	00810034 	movhi	r2,1024
 2005300:	10900004 	addi	r2,r2,16384
 2005304:	1885883a 	add	r2,r3,r2
 2005308:	00fe0004 	movi	r3,-2048
 200530c:	10c0002d 	sthio	r3,0(r2)

		 IOWR_32DIRECT(LT_PIC32_0_BASE, 4, X);
 2005310:	e0bffe17 	ldw	r2,-8(fp)
 2005314:	1007883a 	mov	r3,r2
 2005318:	00810034 	movhi	r2,1024
 200531c:	109c0104 	addi	r2,r2,28676
 2005320:	10c00035 	stwio	r3,0(r2)
		 read4 = IORD_32DIRECT(LT_PIC32_0_BASE, 4);
 2005324:	00810034 	movhi	r2,1024
 2005328:	109c0104 	addi	r2,r2,28676
 200532c:	10800037 	ldwio	r2,0(r2)
 2005330:	e0bff715 	stw	r2,-36(fp)
		 read8 = IORD_32DIRECT(LT_PIC32_0_BASE, 8);
 2005334:	00810034 	movhi	r2,1024
 2005338:	109c0204 	addi	r2,r2,28680
 200533c:	10800037 	ldwio	r2,0(r2)
 2005340:	e0bff815 	stw	r2,-32(fp)
		 printf("Lecture from Data_in (4): %d; Data_out (8): %d\n", read4, read8);
 2005344:	010080b4 	movhi	r4,514
 2005348:	21172b04 	addi	r4,r4,23724
 200534c:	e17ff717 	ldw	r5,-36(fp)
 2005350:	e1bff817 	ldw	r6,-32(fp)
 2005354:	2008e440 	call	2008e44 <printf>
		 posTamper++;
 2005358:	e0bff417 	ldw	r2,-48(fp)
 200535c:	10800044 	addi	r2,r2,1
 2005360:	e0bff415 	stw	r2,-48(fp)
	 }
 }
 2005364:	003fd306 	br	20052b4 <__alt_mem_pic_mem+0xfe0012b4>

02005368 <Touch_Init>:
bool touch_is_pen_pressed(TERASIC_TOUCH_PANEL *p);
void touch_empty_fifo(TERASIC_TOUCH_PANEL *p);
void touch_clear_input(TERASIC_TOUCH_PANEL *p);

// init touch panel
TOUCH_HANDLE Touch_Init(const alt_u32 spi_base, const alt_u32 penirq_base, const alt_u32 penirq_irq){
 2005368:	defff804 	addi	sp,sp,-32
 200536c:	dfc00715 	stw	ra,28(sp)
 2005370:	df000615 	stw	fp,24(sp)
 2005374:	df000604 	addi	fp,sp,24
 2005378:	e13ffd15 	stw	r4,-12(fp)
 200537c:	e17ffe15 	stw	r5,-8(fp)
 2005380:	e1bfff15 	stw	r6,-4(fp)
    bool bSuccess = TRUE;
 2005384:	00800044 	movi	r2,1
 2005388:	e0bffb15 	stw	r2,-20(fp)
    
    TERASIC_TOUCH_PANEL *p;
    
    p = malloc(sizeof(TERASIC_TOUCH_PANEL));
 200538c:	01001804 	movi	r4,96
 2005390:	20087140 	call	2008714 <malloc>
 2005394:	e0bffc15 	stw	r2,-16(fp)
    if (!p)
 2005398:	e0bffc17 	ldw	r2,-16(fp)
 200539c:	1000021e 	bne	r2,zero,20053a8 <Touch_Init+0x40>
        return p;
 20053a0:	e0bffc17 	ldw	r2,-16(fp)
 20053a4:	00004806 	br	20054c8 <Touch_Init+0x160>

    memset(p, 0, sizeof(TERASIC_TOUCH_PANEL));
 20053a8:	e13ffc17 	ldw	r4,-16(fp)
 20053ac:	000b883a 	mov	r5,zero
 20053b0:	01801804 	movi	r6,96
 20053b4:	2008de80 	call	2008de8 <memset>
    p->spi_base = spi_base;
 20053b8:	e0bffc17 	ldw	r2,-16(fp)
 20053bc:	e0fffd17 	ldw	r3,-12(fp)
 20053c0:	10c00015 	stw	r3,0(r2)
    p->penirq_base = penirq_base;
 20053c4:	e0bffc17 	ldw	r2,-16(fp)
 20053c8:	e0fffe17 	ldw	r3,-8(fp)
 20053cc:	10c00115 	stw	r3,4(r2)
    p->irq_mask = 0x01;  // 1-pin
 20053d0:	e0bffc17 	ldw	r2,-16(fp)
 20053d4:	00c00044 	movi	r3,1
 20053d8:	10c00315 	stw	r3,12(r2)
    p->penirq_irq = penirq_irq;
 20053dc:	e0bffc17 	ldw	r2,-16(fp)
 20053e0:	e0ffff17 	ldw	r3,-4(fp)
 20053e4:	10c00215 	stw	r3,8(r2)
 * Obtain the system clock rate in ticks/s. 
 */

static ALT_INLINE alt_u32 ALT_ALWAYS_INLINE alt_ticks_per_second (void)
{
  return _alt_tick_rate;
 20053e8:	008080f4 	movhi	r2,515
 20053ec:	10a8e404 	addi	r2,r2,-23664
 20053f0:	10800017 	ldw	r2,0(r2)
    p->alarm_dur = alt_ticks_per_second()/SAMPLE_RATE;
 20053f4:	1009883a 	mov	r4,r2
 20053f8:	01400f04 	movi	r5,60
 20053fc:	20062fc0 	call	20062fc <__udivsi3>
 2005400:	1007883a 	mov	r3,r2
 2005404:	e0bffc17 	ldw	r2,-16(fp)
 2005408:	10c01615 	stw	r3,88(r2)
    
    // enable penirq_n interrupt (P1=1, P1=0)
    touch_enable_penirq(p);    
 200540c:	e13ffc17 	ldw	r4,-16(fp)
 2005410:	20057a80 	call	20057a8 <touch_enable_penirq>
    
    // enable interrupt, 1-pin
    IOWR_ALTERA_AVALON_PIO_IRQ_MASK(p->penirq_base, p->irq_mask); 
 2005414:	e0bffc17 	ldw	r2,-16(fp)
 2005418:	10800117 	ldw	r2,4(r2)
 200541c:	10800204 	addi	r2,r2,8
 2005420:	1007883a 	mov	r3,r2
 2005424:	e0bffc17 	ldw	r2,-16(fp)
 2005428:	10800317 	ldw	r2,12(r2)
 200542c:	18800035 	stwio	r2,0(r3)
    // Reset the edge capture register
    IOWR_ALTERA_AVALON_PIO_EDGE_CAP(p->penirq_base,0);
 2005430:	e0bffc17 	ldw	r2,-16(fp)
 2005434:	10800117 	ldw	r2,4(r2)
 2005438:	10800304 	addi	r2,r2,12
 200543c:	0007883a 	mov	r3,zero
 2005440:	10c00035 	stwio	r3,0(r2)
    // register ISR
    // register callback function

#ifdef ALT_ENHANCED_INTERRUPT_API_PRESENT
  if ((alt_ic_isr_register(LT24_TOUCH_PENIRQ_N_IRQ_INTERRUPT_CONTROLLER_ID,
 2005444:	e0bffc17 	ldw	r2,-16(fp)
 2005448:	10800217 	ldw	r2,8(r2)
 200544c:	d8000015 	stw	zero,0(sp)
 2005450:	0009883a 	mov	r4,zero
 2005454:	100b883a 	mov	r5,r2
 2005458:	01808034 	movhi	r6,512
 200545c:	3195b104 	addi	r6,r6,22212
 2005460:	e1fffc17 	ldw	r7,-16(fp)
 2005464:	200a32c0 	call	200a32c <alt_ic_isr_register>
 2005468:	10000126 	beq	r2,zero,2005470 <Touch_Init+0x108>
		                   ) != 0)){
 #else
  if ((alt_irq_register(p->penirq_irq, (void *)p, touch_isr) != 0)){
 #endif
        //DEBUG_OUT(("[TOUCH]register IRQ fail\n"));
        bSuccess = FALSE;
 200546c:	e03ffb15 	stw	zero,-20(fp)
    }else{        
        //DEBUG_OUT(("[TOUCH]register IRQ success\n"));
    }

    if (bSuccess){    
 2005470:	e0bffb17 	ldw	r2,-20(fp)
 2005474:	10000c26 	beq	r2,zero,20054a8 <Touch_Init+0x140>
        if (alt_alarm_start(&p->alarm, p->alarm_dur, touch_alarm_callback, p) == 0){
 2005478:	e0bffc17 	ldw	r2,-16(fp)
 200547c:	10c01004 	addi	r3,r2,64
 2005480:	e0bffc17 	ldw	r2,-16(fp)
 2005484:	10801617 	ldw	r2,88(r2)
 2005488:	1809883a 	mov	r4,r3
 200548c:	100b883a 	mov	r5,r2
 2005490:	01808034 	movhi	r6,512
 2005494:	31971404 	addi	r6,r6,23632
 2005498:	e1fffc17 	ldw	r7,-16(fp)
 200549c:	200a1ec0 	call	200a1ec <alt_alarm_start>
 20054a0:	10000126 	beq	r2,zero,20054a8 <Touch_Init+0x140>
            //DEBUG_OUT(("[TOUCH]alarm start success\n"));
        }else{
           // DEBUG_OUT(("[TOUCH]alarm start fail\n"));
            bSuccess = FALSE;
 20054a4:	e03ffb15 	stw	zero,-20(fp)
        }
    }
    
    if (!bSuccess && p){
 20054a8:	e0bffb17 	ldw	r2,-20(fp)
 20054ac:	1000051e 	bne	r2,zero,20054c4 <Touch_Init+0x15c>
 20054b0:	e0bffc17 	ldw	r2,-16(fp)
 20054b4:	10000326 	beq	r2,zero,20054c4 <Touch_Init+0x15c>
        free(p);
 20054b8:	e13ffc17 	ldw	r4,-16(fp)
 20054bc:	20087280 	call	2008728 <free>
        p = NULL;
 20054c0:	e03ffc15 	stw	zero,-16(fp)
    }        
                
    return p;        
 20054c4:	e0bffc17 	ldw	r2,-16(fp)
}
 20054c8:	e037883a 	mov	sp,fp
 20054cc:	dfc00117 	ldw	ra,4(sp)
 20054d0:	df000017 	ldw	fp,0(sp)
 20054d4:	dec00204 	addi	sp,sp,8
 20054d8:	f800283a 	ret

020054dc <Touch_UnInit>:

// uninit touch panel
void Touch_UnInit(TOUCH_HANDLE pHandle){
 20054dc:	defffc04 	addi	sp,sp,-16
 20054e0:	dfc00315 	stw	ra,12(sp)
 20054e4:	df000215 	stw	fp,8(sp)
 20054e8:	df000204 	addi	fp,sp,8
 20054ec:	e13fff15 	stw	r4,-4(fp)
    TERASIC_TOUCH_PANEL *p = (TERASIC_TOUCH_PANEL *)pHandle;
 20054f0:	e0bfff17 	ldw	r2,-4(fp)
 20054f4:	e0bffe15 	stw	r2,-8(fp)
    if (!p)
 20054f8:	e0bffe17 	ldw	r2,-8(fp)
 20054fc:	1000011e 	bne	r2,zero,2005504 <Touch_UnInit+0x28>
        return;
 2005500:	00000b06 	br	2005530 <Touch_UnInit+0x54>
        
    // stop alarm
    alt_alarm_stop(&(p->alarm));
 2005504:	e0bffe17 	ldw	r2,-8(fp)
 2005508:	10801004 	addi	r2,r2,64
 200550c:	1009883a 	mov	r4,r2
 2005510:	200a8380 	call	200a838 <alt_alarm_stop>
    // disable irq
    IOWR_ALTERA_AVALON_PIO_IRQ_MASK(p->penirq_base, 0x00);
 2005514:	e0bffe17 	ldw	r2,-8(fp)
 2005518:	10800117 	ldw	r2,4(r2)
 200551c:	10800204 	addi	r2,r2,8
 2005520:	0007883a 	mov	r3,zero
 2005524:	10c00035 	stwio	r3,0(r2)
    
    // zero variable
    free(p);
 2005528:	e13ffe17 	ldw	r4,-8(fp)
 200552c:	20087280 	call	2008728 <free>
}
 2005530:	e037883a 	mov	sp,fp
 2005534:	dfc00117 	ldw	ra,4(sp)
 2005538:	df000017 	ldw	fp,0(sp)
 200553c:	dec00204 	addi	sp,sp,8
 2005540:	f800283a 	ret

02005544 <Touch_EmptyFifo>:


void Touch_EmptyFifo(TOUCH_HANDLE pHandle){
 2005544:	defffc04 	addi	sp,sp,-16
 2005548:	dfc00315 	stw	ra,12(sp)
 200554c:	df000215 	stw	fp,8(sp)
 2005550:	df000204 	addi	fp,sp,8
 2005554:	e13fff15 	stw	r4,-4(fp)
    TERASIC_TOUCH_PANEL *p = (TERASIC_TOUCH_PANEL *)pHandle;
 2005558:	e0bfff17 	ldw	r2,-4(fp)
 200555c:	e0bffe15 	stw	r2,-8(fp)
    touch_empty_fifo(p);
 2005560:	e13ffe17 	ldw	r4,-8(fp)
 2005564:	20057380 	call	2005738 <touch_empty_fifo>
}
 2005568:	e037883a 	mov	sp,fp
 200556c:	dfc00117 	ldw	ra,4(sp)
 2005570:	df000017 	ldw	fp,0(sp)
 2005574:	dec00204 	addi	sp,sp,8
 2005578:	f800283a 	ret

0200557c <Touch_GetXY>:

// get x/y from internal FIFO
bool Touch_GetXY(TOUCH_HANDLE pHandle, int *x, int *y){
 200557c:	defff904 	addi	sp,sp,-28
 2005580:	dfc00615 	stw	ra,24(sp)
 2005584:	df000515 	stw	fp,20(sp)
 2005588:	dc000415 	stw	r16,16(sp)
 200558c:	df000504 	addi	fp,sp,20
 2005590:	e13ffc15 	stw	r4,-16(fp)
 2005594:	e17ffd15 	stw	r5,-12(fp)
 2005598:	e1bffe15 	stw	r6,-8(fp)
    TERASIC_TOUCH_PANEL *p = (TERASIC_TOUCH_PANEL *)pHandle;
 200559c:	e0bffc17 	ldw	r2,-16(fp)
 20055a0:	e0bffb15 	stw	r2,-20(fp)
    if (!p)
 20055a4:	e0bffb17 	ldw	r2,-20(fp)
 20055a8:	1000021e 	bne	r2,zero,20055b4 <Touch_GetXY+0x38>
        return FALSE;    
 20055ac:	0005883a 	mov	r2,zero
 20055b0:	00003e06 	br	20056ac <Touch_GetXY+0x130>
    
    if (p->fifo_front == p->fifo_rear){
 20055b4:	e0bffb17 	ldw	r2,-20(fp)
 20055b8:	10c0040b 	ldhu	r3,16(r2)
 20055bc:	e0bffb17 	ldw	r2,-20(fp)
 20055c0:	1080048b 	ldhu	r2,18(r2)
 20055c4:	18ffffcc 	andi	r3,r3,65535
 20055c8:	10bfffcc 	andi	r2,r2,65535
 20055cc:	1880021e 	bne	r3,r2,20055d8 <Touch_GetXY+0x5c>
        // empty
        return FALSE;
 20055d0:	0005883a 	mov	r2,zero
 20055d4:	00003506 	br	20056ac <Touch_GetXY+0x130>
    }
    *x = p->fifo_x[p->fifo_rear];
 20055d8:	e0bffb17 	ldw	r2,-20(fp)
 20055dc:	1080048b 	ldhu	r2,18(r2)
 20055e0:	10bfffcc 	andi	r2,r2,65535
 20055e4:	e0fffb17 	ldw	r3,-20(fp)
 20055e8:	10800284 	addi	r2,r2,10
 20055ec:	1085883a 	add	r2,r2,r2
 20055f0:	1885883a 	add	r2,r3,r2
 20055f4:	1080000b 	ldhu	r2,0(r2)
 20055f8:	10ffffcc 	andi	r3,r2,65535
 20055fc:	e0bffd17 	ldw	r2,-12(fp)
 2005600:	10c00015 	stw	r3,0(r2)
    *y = p->fifo_y[p->fifo_rear];
 2005604:	e0bffb17 	ldw	r2,-20(fp)
 2005608:	1080048b 	ldhu	r2,18(r2)
 200560c:	10bfffcc 	andi	r2,r2,65535
 2005610:	e0fffb17 	ldw	r3,-20(fp)
 2005614:	10800504 	addi	r2,r2,20
 2005618:	1085883a 	add	r2,r2,r2
 200561c:	1885883a 	add	r2,r3,r2
 2005620:	1080000b 	ldhu	r2,0(r2)
 2005624:	10ffffcc 	andi	r3,r2,65535
 2005628:	e0bffe17 	ldw	r2,-8(fp)
 200562c:	10c00015 	stw	r3,0(r2)
    //
    p->fifo_rear++;
 2005630:	e0bffb17 	ldw	r2,-20(fp)
 2005634:	1080048b 	ldhu	r2,18(r2)
 2005638:	10800044 	addi	r2,r2,1
 200563c:	1007883a 	mov	r3,r2
 2005640:	e0bffb17 	ldw	r2,-20(fp)
 2005644:	10c0048d 	sth	r3,18(r2)
    p->fifo_rear %= FIFO_SIZE;
 2005648:	e0bffb17 	ldw	r2,-20(fp)
 200564c:	1080048b 	ldhu	r2,18(r2)
 2005650:	10bfffcc 	andi	r2,r2,65535
 2005654:	1009883a 	mov	r4,r2
 2005658:	01400284 	movi	r5,10
 200565c:	20063040 	call	2006304 <__umodsi3>
 2005660:	1007883a 	mov	r3,r2
 2005664:	e0bffb17 	ldw	r2,-20(fp)
 2005668:	10c0048d 	sth	r3,18(r2)
    //
    // translate
    touch_xy_transform(x, y);
 200566c:	e13ffd17 	ldw	r4,-12(fp)
 2005670:	e17ffe17 	ldw	r5,-8(fp)
 2005674:	2005cc80 	call	2005cc8 <touch_xy_transform>
 * alt_nticks() returns the elapsed number of system clock ticks since reset.
 */

static ALT_INLINE alt_u32 ALT_ALWAYS_INLINE alt_nticks (void)
{
  return _alt_nticks;
 2005678:	008080f4 	movhi	r2,515
 200567c:	10a8e504 	addi	r2,r2,-23660
 2005680:	14000017 	ldw	r16,0(r2)
 * Obtain the system clock rate in ticks/s. 
 */

static ALT_INLINE alt_u32 ALT_ALWAYS_INLINE alt_ticks_per_second (void)
{
  return _alt_tick_rate;
 2005684:	008080f4 	movhi	r2,515
 2005688:	10a8e404 	addi	r2,r2,-23664
 200568c:	10800017 	ldw	r2,0(r2)

    //DEBUG_OUT("[TOUCH] x=%d, y=%d\n", *x,*y);
//    touch_clear_input(p);
//    touch_empty_fifo(p);
    p->next_active_time = alt_nticks() + ACTIVE_DELAY_TIME;
 2005690:	1009883a 	mov	r4,r2
 2005694:	01400f04 	movi	r5,60
 2005698:	20062fc0 	call	20062fc <__udivsi3>
 200569c:	8087883a 	add	r3,r16,r2
 20056a0:	e0bffb17 	ldw	r2,-20(fp)
 20056a4:	10c01715 	stw	r3,92(r2)
    
    return TRUE;
 20056a8:	00800044 	movi	r2,1
}
 20056ac:	e6ffff04 	addi	sp,fp,-4
 20056b0:	dfc00217 	ldw	ra,8(sp)
 20056b4:	df000117 	ldw	fp,4(sp)
 20056b8:	dc000017 	ldw	r16,0(sp)
 20056bc:	dec00304 	addi	sp,sp,12
 20056c0:	f800283a 	ret

020056c4 <touch_isr>:



// penirq_n ISR
#ifdef ALT_ENHANCED_INTERRUPT_API_PRESENT
void touch_isr(void* context){
 20056c4:	defffc04 	addi	sp,sp,-16
 20056c8:	dfc00315 	stw	ra,12(sp)
 20056cc:	df000215 	stw	fp,8(sp)
 20056d0:	df000204 	addi	fp,sp,8
 20056d4:	e13fff15 	stw	r4,-4(fp)
#else
void touch_isr(void* context, alt_u32 id){
#endif
    TERASIC_TOUCH_PANEL *p = (TERASIC_TOUCH_PANEL *)context;
 20056d8:	e0bfff17 	ldw	r2,-4(fp)
 20056dc:	e0bffe15 	stw	r2,-8(fp)

#ifdef ALT_ENHANCED_INTERRUPT_API_PRESENT
    alt_ic_irq_disable(LT24_TOUCH_PENIRQ_N_IRQ_INTERRUPT_CONTROLLER_ID,LT24_TOUCH_PENIRQ_N_IRQ);
 20056e0:	0009883a 	mov	r4,zero
 20056e4:	014000c4 	movi	r5,3
 20056e8:	200a41c0 	call	200a41c <alt_ic_irq_disable>
#else
    alt_irq_disable(id);
#endif

    // get the edge capture mask
    IORD_ALTERA_AVALON_PIO_EDGE_CAP(p->penirq_base);
 20056ec:	e0bffe17 	ldw	r2,-8(fp)
 20056f0:	10800117 	ldw	r2,4(r2)
 20056f4:	10800304 	addi	r2,r2,12
 20056f8:	10800037 	ldwio	r2,0(r2)
    //if ((mask & Touch.irq_mask) == 0)  // 1-pin
    //    return;
    //DEBUG_OUT("Touched!!\n");
    usleep(1000);
 20056fc:	0100fa04 	movi	r4,1000
 2005700:	200a9d40 	call	200a9d4 <usleep>
    }
    IOWR(PIO_RED_LED_BASE, 0, Touch.pen_pressed);
#endif                    
    
    // Reset the edge capture register
    IOWR_ALTERA_AVALON_PIO_EDGE_CAP(p->penirq_base,0);    
 2005704:	e0bffe17 	ldw	r2,-8(fp)
 2005708:	10800117 	ldw	r2,4(r2)
 200570c:	10800304 	addi	r2,r2,12
 2005710:	0007883a 	mov	r3,zero
 2005714:	10c00035 	stwio	r3,0(r2)
    
#ifdef ALT_ENHANCED_INTERRUPT_API_PRESENT
    alt_ic_irq_enable(LT24_TOUCH_PENIRQ_N_IRQ_INTERRUPT_CONTROLLER_ID,LT24_TOUCH_PENIRQ_N_IRQ);
 2005718:	0009883a 	mov	r4,zero
 200571c:	014000c4 	movi	r5,3
 2005720:	200a37c0 	call	200a37c <alt_ic_irq_enable>
#else
    alt_irq_enable(id);
#endif

}
 2005724:	e037883a 	mov	sp,fp
 2005728:	dfc00117 	ldw	ra,4(sp)
 200572c:	df000017 	ldw	fp,0(sp)
 2005730:	dec00204 	addi	sp,sp,8
 2005734:	f800283a 	ret

02005738 <touch_empty_fifo>:

void touch_empty_fifo(TERASIC_TOUCH_PANEL *p){
 2005738:	defffe04 	addi	sp,sp,-8
 200573c:	df000115 	stw	fp,4(sp)
 2005740:	df000104 	addi	fp,sp,4
 2005744:	e13fff15 	stw	r4,-4(fp)
    p->fifo_rear = p->fifo_front;
 2005748:	e0bfff17 	ldw	r2,-4(fp)
 200574c:	10c0040b 	ldhu	r3,16(r2)
 2005750:	e0bfff17 	ldw	r2,-4(fp)
 2005754:	10c0048d 	sth	r3,18(r2)
}
 2005758:	e037883a 	mov	sp,fp
 200575c:	df000017 	ldw	fp,0(sp)
 2005760:	dec00104 	addi	sp,sp,4
 2005764:	f800283a 	ret

02005768 <touch_is_pen_pressed>:

bool touch_is_pen_pressed(TERASIC_TOUCH_PANEL *p){
 2005768:	defffd04 	addi	sp,sp,-12
 200576c:	df000215 	stw	fp,8(sp)
 2005770:	df000204 	addi	fp,sp,8
 2005774:	e13fff15 	stw	r4,-4(fp)
    bool bPressed;
    bPressed = (IORD(p->penirq_base, 0) & 0x01)?FALSE:TRUE;
 2005778:	e0bfff17 	ldw	r2,-4(fp)
 200577c:	10800117 	ldw	r2,4(r2)
 2005780:	10800037 	ldwio	r2,0(r2)
 2005784:	1080004c 	andi	r2,r2,1
 2005788:	1005003a 	cmpeq	r2,r2,zero
 200578c:	10803fcc 	andi	r2,r2,255
 2005790:	e0bffe15 	stw	r2,-8(fp)
    return bPressed;
 2005794:	e0bffe17 	ldw	r2,-8(fp)
}
 2005798:	e037883a 	mov	sp,fp
 200579c:	df000017 	ldw	fp,0(sp)
 20057a0:	dec00104 	addi	sp,sp,4
 20057a4:	f800283a 	ret

020057a8 <touch_enable_penirq>:


void touch_enable_penirq(TERASIC_TOUCH_PANEL *p){
 20057a8:	defff904 	addi	sp,sp,-28
 20057ac:	dfc00615 	stw	ra,24(sp)
 20057b0:	df000515 	stw	fp,20(sp)
 20057b4:	df000504 	addi	fp,sp,20
 20057b8:	e13fff15 	stw	r4,-4(fp)
    const alt_u8 CommandGetX = 0x82;
 20057bc:	00bfe084 	movi	r2,-126
 20057c0:	e0bffe05 	stb	r2,-8(fp)
    const alt_u8 CommandGetY = 0xD2;
 20057c4:	00bff484 	movi	r2,-46
 20057c8:	e0bffe45 	stb	r2,-7(fp)
    alt_u8 data8;
    
    alt_avalon_spi_command(p->spi_base, 0, sizeof(CommandGetX), &CommandGetX, 0, 0, ALT_AVALON_SPI_COMMAND_MERGE);
 20057cc:	e0bfff17 	ldw	r2,-4(fp)
 20057d0:	10c00017 	ldw	r3,0(r2)
 20057d4:	d8000015 	stw	zero,0(sp)
 20057d8:	d8000115 	stw	zero,4(sp)
 20057dc:	00800044 	movi	r2,1
 20057e0:	d8800215 	stw	r2,8(sp)
 20057e4:	1809883a 	mov	r4,r3
 20057e8:	000b883a 	mov	r5,zero
 20057ec:	01800044 	movi	r6,1
 20057f0:	e1fffe04 	addi	r7,fp,-8
 20057f4:	200ae3c0 	call	200ae3c <alt_avalon_spi_command>
    alt_avalon_spi_command(p->spi_base, 0, 0, 0, sizeof(data8), (alt_u8*)&data8, ALT_AVALON_SPI_COMMAND_MERGE);
 20057f8:	e0bfff17 	ldw	r2,-4(fp)
 20057fc:	10c00017 	ldw	r3,0(r2)
 2005800:	00800044 	movi	r2,1
 2005804:	d8800015 	stw	r2,0(sp)
 2005808:	e0bffe84 	addi	r2,fp,-6
 200580c:	d8800115 	stw	r2,4(sp)
 2005810:	00800044 	movi	r2,1
 2005814:	d8800215 	stw	r2,8(sp)
 2005818:	1809883a 	mov	r4,r3
 200581c:	000b883a 	mov	r5,zero
 2005820:	000d883a 	mov	r6,zero
 2005824:	000f883a 	mov	r7,zero
 2005828:	200ae3c0 	call	200ae3c <alt_avalon_spi_command>
    alt_avalon_spi_command(p->spi_base, 0, 0, 0, sizeof(data8), (alt_u8*)&data8, ALT_AVALON_SPI_COMMAND_TOGGLE_SS_N);
 200582c:	e0bfff17 	ldw	r2,-4(fp)
 2005830:	10c00017 	ldw	r3,0(r2)
 2005834:	00800044 	movi	r2,1
 2005838:	d8800015 	stw	r2,0(sp)
 200583c:	e0bffe84 	addi	r2,fp,-6
 2005840:	d8800115 	stw	r2,4(sp)
 2005844:	00800084 	movi	r2,2
 2005848:	d8800215 	stw	r2,8(sp)
 200584c:	1809883a 	mov	r4,r3
 2005850:	000b883a 	mov	r5,zero
 2005854:	000d883a 	mov	r6,zero
 2005858:	000f883a 	mov	r7,zero
 200585c:	200ae3c0 	call	200ae3c <alt_avalon_spi_command>
   
    alt_avalon_spi_command(p->spi_base, 0, sizeof(CommandGetY), &CommandGetY, 0, 0, ALT_AVALON_SPI_COMMAND_MERGE);
 2005860:	e0bfff17 	ldw	r2,-4(fp)
 2005864:	11000017 	ldw	r4,0(r2)
 2005868:	e0fffe44 	addi	r3,fp,-7
 200586c:	d8000015 	stw	zero,0(sp)
 2005870:	d8000115 	stw	zero,4(sp)
 2005874:	00800044 	movi	r2,1
 2005878:	d8800215 	stw	r2,8(sp)
 200587c:	000b883a 	mov	r5,zero
 2005880:	01800044 	movi	r6,1
 2005884:	180f883a 	mov	r7,r3
 2005888:	200ae3c0 	call	200ae3c <alt_avalon_spi_command>
    alt_avalon_spi_command(p->spi_base, 0, 0, 0, sizeof(data8), (alt_u8*)&data8, ALT_AVALON_SPI_COMMAND_MERGE);
 200588c:	e0bfff17 	ldw	r2,-4(fp)
 2005890:	10c00017 	ldw	r3,0(r2)
 2005894:	00800044 	movi	r2,1
 2005898:	d8800015 	stw	r2,0(sp)
 200589c:	e0bffe84 	addi	r2,fp,-6
 20058a0:	d8800115 	stw	r2,4(sp)
 20058a4:	00800044 	movi	r2,1
 20058a8:	d8800215 	stw	r2,8(sp)
 20058ac:	1809883a 	mov	r4,r3
 20058b0:	000b883a 	mov	r5,zero
 20058b4:	000d883a 	mov	r6,zero
 20058b8:	000f883a 	mov	r7,zero
 20058bc:	200ae3c0 	call	200ae3c <alt_avalon_spi_command>
    alt_avalon_spi_command(p->spi_base, 0, 0, 0, sizeof(data8), (alt_u8*)&data8, ALT_AVALON_SPI_COMMAND_TOGGLE_SS_N);
 20058c0:	e0bfff17 	ldw	r2,-4(fp)
 20058c4:	10c00017 	ldw	r3,0(r2)
 20058c8:	00800044 	movi	r2,1
 20058cc:	d8800015 	stw	r2,0(sp)
 20058d0:	e0bffe84 	addi	r2,fp,-6
 20058d4:	d8800115 	stw	r2,4(sp)
 20058d8:	00800084 	movi	r2,2
 20058dc:	d8800215 	stw	r2,8(sp)
 20058e0:	1809883a 	mov	r4,r3
 20058e4:	000b883a 	mov	r5,zero
 20058e8:	000d883a 	mov	r6,zero
 20058ec:	000f883a 	mov	r7,zero
 20058f0:	200ae3c0 	call	200ae3c <alt_avalon_spi_command>
}
 20058f4:	e037883a 	mov	sp,fp
 20058f8:	dfc00117 	ldw	ra,4(sp)
 20058fc:	df000017 	ldw	fp,0(sp)
 2005900:	dec00204 	addi	sp,sp,8
 2005904:	f800283a 	ret

02005908 <touch_clear_input>:

void touch_clear_input(TERASIC_TOUCH_PANEL *p){
 2005908:	defffd04 	addi	sp,sp,-12
 200590c:	dfc00215 	stw	ra,8(sp)
 2005910:	df000115 	stw	fp,4(sp)
 2005914:	df000104 	addi	fp,sp,4
 2005918:	e13fff15 	stw	r4,-4(fp)
    touch_enable_penirq(p);
 200591c:	e13fff17 	ldw	r4,-4(fp)
 2005920:	20057a80 	call	20057a8 <touch_enable_penirq>
}
 2005924:	e037883a 	mov	sp,fp
 2005928:	dfc00117 	ldw	ra,4(sp)
 200592c:	df000017 	ldw	fp,0(sp)
 2005930:	dec00204 	addi	sp,sp,8
 2005934:	f800283a 	ret

02005938 <touch_get_xy>:

// get x/y by SPI command
void touch_get_xy(TERASIC_TOUCH_PANEL *p){
 2005938:	defff604 	addi	sp,sp,-40
 200593c:	dfc00915 	stw	ra,36(sp)
 2005940:	df000815 	stw	fp,32(sp)
 2005944:	df000804 	addi	fp,sp,32
 2005948:	e13fff15 	stw	r4,-4(fp)
    alt_u16 x, y;
    int result;
    const alt_u8 CommandGetX = 0x92;
 200594c:	00bfe484 	movi	r2,-110
 2005950:	e0bffe05 	stb	r2,-8(fp)
    const alt_u8 CommandGetY = 0xD2;
 2005954:	00bff484 	movi	r2,-46
 2005958:	e0bffe45 	stb	r2,-7(fp)
    
       
    //DEBUG_OUT(("[TOUCH] get x/y\n"));

    // x
    result = alt_avalon_spi_command(p->spi_base, 0, sizeof(CommandGetX), &CommandGetX, 0, 0, ALT_AVALON_SPI_COMMAND_MERGE);
 200595c:	e0bfff17 	ldw	r2,-4(fp)
 2005960:	11000017 	ldw	r4,0(r2)
 2005964:	e0fffe04 	addi	r3,fp,-8
 2005968:	d8000015 	stw	zero,0(sp)
 200596c:	d8000115 	stw	zero,4(sp)
 2005970:	00800044 	movi	r2,1
 2005974:	d8800215 	stw	r2,8(sp)
 2005978:	000b883a 	mov	r5,zero
 200597c:	01800044 	movi	r6,1
 2005980:	180f883a 	mov	r7,r3
 2005984:	200ae3c0 	call	200ae3c <alt_avalon_spi_command>
 2005988:	e0bffb15 	stw	r2,-20(fp)
    result = alt_avalon_spi_command(p->spi_base, 0, 0, 0, sizeof(high_byte), (alt_u8*)&high_byte, ALT_AVALON_SPI_COMMAND_MERGE);
 200598c:	e0bfff17 	ldw	r2,-4(fp)
 2005990:	10c00017 	ldw	r3,0(r2)
 2005994:	00800044 	movi	r2,1
 2005998:	d8800015 	stw	r2,0(sp)
 200599c:	e0bffe84 	addi	r2,fp,-6
 20059a0:	d8800115 	stw	r2,4(sp)
 20059a4:	00800044 	movi	r2,1
 20059a8:	d8800215 	stw	r2,8(sp)
 20059ac:	1809883a 	mov	r4,r3
 20059b0:	000b883a 	mov	r5,zero
 20059b4:	000d883a 	mov	r6,zero
 20059b8:	000f883a 	mov	r7,zero
 20059bc:	200ae3c0 	call	200ae3c <alt_avalon_spi_command>
 20059c0:	e0bffb15 	stw	r2,-20(fp)
    if (result != sizeof(high_byte)){
 20059c4:	e0bffb17 	ldw	r2,-20(fp)
 20059c8:	10800060 	cmpeqi	r2,r2,1
 20059cc:	1000011e 	bne	r2,zero,20059d4 <touch_get_xy+0x9c>
        //DEBUG_OUT(("[TOUCH] failed to get x\n"));
        return;
 20059d0:	00009a06 	br	2005c3c <touch_get_xy+0x304>
    }          
    result = alt_avalon_spi_command(p->spi_base, 0, 0, 0, sizeof(low_byte), (alt_u8*)&low_byte, ALT_AVALON_SPI_COMMAND_TOGGLE_SS_N);
 20059d4:	e0bfff17 	ldw	r2,-4(fp)
 20059d8:	10c00017 	ldw	r3,0(r2)
 20059dc:	00800044 	movi	r2,1
 20059e0:	d8800015 	stw	r2,0(sp)
 20059e4:	e0bffec4 	addi	r2,fp,-5
 20059e8:	d8800115 	stw	r2,4(sp)
 20059ec:	00800084 	movi	r2,2
 20059f0:	d8800215 	stw	r2,8(sp)
 20059f4:	1809883a 	mov	r4,r3
 20059f8:	000b883a 	mov	r5,zero
 20059fc:	000d883a 	mov	r6,zero
 2005a00:	000f883a 	mov	r7,zero
 2005a04:	200ae3c0 	call	200ae3c <alt_avalon_spi_command>
 2005a08:	e0bffb15 	stw	r2,-20(fp)
    if (result != sizeof(low_byte)){
 2005a0c:	e0bffb17 	ldw	r2,-20(fp)
 2005a10:	10800060 	cmpeqi	r2,r2,1
 2005a14:	1000011e 	bne	r2,zero,2005a1c <touch_get_xy+0xe4>
        //DEBUG_OUT(("[TOUCH] failed to get x\n"));
        return;
 2005a18:	00008806 	br	2005c3c <touch_get_xy+0x304>
    }  
    ResponseX = (high_byte << 8) | low_byte;        
 2005a1c:	e0bffe83 	ldbu	r2,-6(fp)
 2005a20:	10803fcc 	andi	r2,r2,255
 2005a24:	1004923a 	slli	r2,r2,8
 2005a28:	1007883a 	mov	r3,r2
 2005a2c:	e0bffec3 	ldbu	r2,-5(fp)
 2005a30:	10803fcc 	andi	r2,r2,255
 2005a34:	1884b03a 	or	r2,r3,r2
 2005a38:	e0bffc0d 	sth	r2,-16(fp)
    
    // y
    result = alt_avalon_spi_command(p->spi_base, 0, sizeof(CommandGetY), &CommandGetY, 0, 0, ALT_AVALON_SPI_COMMAND_MERGE);
 2005a3c:	e0bfff17 	ldw	r2,-4(fp)
 2005a40:	11000017 	ldw	r4,0(r2)
 2005a44:	e0fffe44 	addi	r3,fp,-7
 2005a48:	d8000015 	stw	zero,0(sp)
 2005a4c:	d8000115 	stw	zero,4(sp)
 2005a50:	00800044 	movi	r2,1
 2005a54:	d8800215 	stw	r2,8(sp)
 2005a58:	000b883a 	mov	r5,zero
 2005a5c:	01800044 	movi	r6,1
 2005a60:	180f883a 	mov	r7,r3
 2005a64:	200ae3c0 	call	200ae3c <alt_avalon_spi_command>
 2005a68:	e0bffb15 	stw	r2,-20(fp)
    result = alt_avalon_spi_command(p->spi_base, 0, 0, 0, sizeof(high_byte), (alt_u8*)&high_byte, ALT_AVALON_SPI_COMMAND_MERGE);
 2005a6c:	e0bfff17 	ldw	r2,-4(fp)
 2005a70:	10c00017 	ldw	r3,0(r2)
 2005a74:	00800044 	movi	r2,1
 2005a78:	d8800015 	stw	r2,0(sp)
 2005a7c:	e0bffe84 	addi	r2,fp,-6
 2005a80:	d8800115 	stw	r2,4(sp)
 2005a84:	00800044 	movi	r2,1
 2005a88:	d8800215 	stw	r2,8(sp)
 2005a8c:	1809883a 	mov	r4,r3
 2005a90:	000b883a 	mov	r5,zero
 2005a94:	000d883a 	mov	r6,zero
 2005a98:	000f883a 	mov	r7,zero
 2005a9c:	200ae3c0 	call	200ae3c <alt_avalon_spi_command>
 2005aa0:	e0bffb15 	stw	r2,-20(fp)
    if (result != sizeof(high_byte)){
 2005aa4:	e0bffb17 	ldw	r2,-20(fp)
 2005aa8:	10800060 	cmpeqi	r2,r2,1
 2005aac:	1000011e 	bne	r2,zero,2005ab4 <touch_get_xy+0x17c>
       // DEBUG_OUT(("[TOUCH] failed to get x\n"));
        return;
 2005ab0:	00006206 	br	2005c3c <touch_get_xy+0x304>
    }          
    result = alt_avalon_spi_command(p->spi_base, 0, 0, 0, sizeof(low_byte), (alt_u8*)&low_byte, ALT_AVALON_SPI_COMMAND_TOGGLE_SS_N);
 2005ab4:	e0bfff17 	ldw	r2,-4(fp)
 2005ab8:	10c00017 	ldw	r3,0(r2)
 2005abc:	00800044 	movi	r2,1
 2005ac0:	d8800015 	stw	r2,0(sp)
 2005ac4:	e0bffec4 	addi	r2,fp,-5
 2005ac8:	d8800115 	stw	r2,4(sp)
 2005acc:	00800084 	movi	r2,2
 2005ad0:	d8800215 	stw	r2,8(sp)
 2005ad4:	1809883a 	mov	r4,r3
 2005ad8:	000b883a 	mov	r5,zero
 2005adc:	000d883a 	mov	r6,zero
 2005ae0:	000f883a 	mov	r7,zero
 2005ae4:	200ae3c0 	call	200ae3c <alt_avalon_spi_command>
 2005ae8:	e0bffb15 	stw	r2,-20(fp)
    if (result != sizeof(low_byte)){
 2005aec:	e0bffb17 	ldw	r2,-20(fp)
 2005af0:	10800060 	cmpeqi	r2,r2,1
 2005af4:	1000011e 	bne	r2,zero,2005afc <touch_get_xy+0x1c4>
        //DEBUG_OUT(("[TOUCH] failed to get x\n"));
        return;
 2005af8:	00005006 	br	2005c3c <touch_get_xy+0x304>
    }  
    ResponseY = (high_byte << 8) | low_byte;        
 2005afc:	e0bffe83 	ldbu	r2,-6(fp)
 2005b00:	10803fcc 	andi	r2,r2,255
 2005b04:	1004923a 	slli	r2,r2,8
 2005b08:	1007883a 	mov	r3,r2
 2005b0c:	e0bffec3 	ldbu	r2,-5(fp)
 2005b10:	10803fcc 	andi	r2,r2,255
 2005b14:	1884b03a 	or	r2,r3,r2
 2005b18:	e0bffc8d 	sth	r2,-14(fp)

    if (!touch_is_pen_pressed(p))
 2005b1c:	e13fff17 	ldw	r4,-4(fp)
 2005b20:	20057680 	call	2005768 <touch_is_pen_pressed>
 2005b24:	1000011e 	bne	r2,zero,2005b2c <touch_get_xy+0x1f4>
        return; // do not use this data    
 2005b28:	00004406 	br	2005c3c <touch_get_xy+0x304>
        
    x = (ResponseX >> 3 ) & 0xFFF;  // 12 bits    
 2005b2c:	e0bffc0b 	ldhu	r2,-16(fp)
 2005b30:	1004d0fa 	srli	r2,r2,3
 2005b34:	1083ffcc 	andi	r2,r2,4095
 2005b38:	e0bffd0d 	sth	r2,-12(fp)
    y = (ResponseY >> 3 ) & 0xFFF;  // 12 bits
 2005b3c:	e0bffc8b 	ldhu	r2,-14(fp)
 2005b40:	1004d0fa 	srli	r2,r2,3
 2005b44:	1083ffcc 	andi	r2,r2,4095
 2005b48:	e0bffd8d 	sth	r2,-10(fp)
    
    
    // check whether the fifo is full!
    if (((p->fifo_front+1)%FIFO_SIZE) == p->fifo_rear){
 2005b4c:	e0bfff17 	ldw	r2,-4(fp)
 2005b50:	1080040b 	ldhu	r2,16(r2)
 2005b54:	10bfffcc 	andi	r2,r2,65535
 2005b58:	10800044 	addi	r2,r2,1
 2005b5c:	1009883a 	mov	r4,r2
 2005b60:	01400284 	movi	r5,10
 2005b64:	20062a00 	call	20062a0 <__modsi3>
 2005b68:	1007883a 	mov	r3,r2
 2005b6c:	e0bfff17 	ldw	r2,-4(fp)
 2005b70:	1080048b 	ldhu	r2,18(r2)
 2005b74:	10bfffcc 	andi	r2,r2,65535
 2005b78:	18800f1e 	bne	r3,r2,2005bb8 <touch_get_xy+0x280>
        // full, pop an old one
        p->fifo_rear++;
 2005b7c:	e0bfff17 	ldw	r2,-4(fp)
 2005b80:	1080048b 	ldhu	r2,18(r2)
 2005b84:	10800044 	addi	r2,r2,1
 2005b88:	1007883a 	mov	r3,r2
 2005b8c:	e0bfff17 	ldw	r2,-4(fp)
 2005b90:	10c0048d 	sth	r3,18(r2)
        p->fifo_rear %= FIFO_SIZE;        
 2005b94:	e0bfff17 	ldw	r2,-4(fp)
 2005b98:	1080048b 	ldhu	r2,18(r2)
 2005b9c:	10bfffcc 	andi	r2,r2,65535
 2005ba0:	1009883a 	mov	r4,r2
 2005ba4:	01400284 	movi	r5,10
 2005ba8:	20063040 	call	2006304 <__umodsi3>
 2005bac:	1007883a 	mov	r3,r2
 2005bb0:	e0bfff17 	ldw	r2,-4(fp)
 2005bb4:	10c0048d 	sth	r3,18(r2)
        
    }
    //DEBUG_OUT("[ ADC] x=%d, y=%d\n", x,y);

    // push now
    p->fifo_x[p->fifo_front] = x;
 2005bb8:	e0bfff17 	ldw	r2,-4(fp)
 2005bbc:	1080040b 	ldhu	r2,16(r2)
 2005bc0:	10bfffcc 	andi	r2,r2,65535
 2005bc4:	e0ffff17 	ldw	r3,-4(fp)
 2005bc8:	10800284 	addi	r2,r2,10
 2005bcc:	1085883a 	add	r2,r2,r2
 2005bd0:	1885883a 	add	r2,r3,r2
 2005bd4:	e0fffd0b 	ldhu	r3,-12(fp)
 2005bd8:	10c0000d 	sth	r3,0(r2)
    p->fifo_y[p->fifo_front] = y;    
 2005bdc:	e0bfff17 	ldw	r2,-4(fp)
 2005be0:	1080040b 	ldhu	r2,16(r2)
 2005be4:	10bfffcc 	andi	r2,r2,65535
 2005be8:	e0ffff17 	ldw	r3,-4(fp)
 2005bec:	10800504 	addi	r2,r2,20
 2005bf0:	1085883a 	add	r2,r2,r2
 2005bf4:	1885883a 	add	r2,r3,r2
 2005bf8:	e0fffd8b 	ldhu	r3,-10(fp)
 2005bfc:	10c0000d 	sth	r3,0(r2)
    p->fifo_front++;
 2005c00:	e0bfff17 	ldw	r2,-4(fp)
 2005c04:	1080040b 	ldhu	r2,16(r2)
 2005c08:	10800044 	addi	r2,r2,1
 2005c0c:	1007883a 	mov	r3,r2
 2005c10:	e0bfff17 	ldw	r2,-4(fp)
 2005c14:	10c0040d 	sth	r3,16(r2)
    p->fifo_front %= FIFO_SIZE;   
 2005c18:	e0bfff17 	ldw	r2,-4(fp)
 2005c1c:	1080040b 	ldhu	r2,16(r2)
 2005c20:	10bfffcc 	andi	r2,r2,65535
 2005c24:	1009883a 	mov	r4,r2
 2005c28:	01400284 	movi	r5,10
 2005c2c:	20063040 	call	2006304 <__umodsi3>
 2005c30:	1007883a 	mov	r3,r2
 2005c34:	e0bfff17 	ldw	r2,-4(fp)
 2005c38:	10c0040d 	sth	r3,16(r2)
    
}
 2005c3c:	e037883a 	mov	sp,fp
 2005c40:	dfc00117 	ldw	ra,4(sp)
 2005c44:	df000017 	ldw	fp,0(sp)
 2005c48:	dec00204 	addi	sp,sp,8
 2005c4c:	f800283a 	ret

02005c50 <touch_alarm_callback>:

// polling x/y when penirq_n is low
alt_u32 touch_alarm_callback(void *context){
 2005c50:	defffc04 	addi	sp,sp,-16
 2005c54:	dfc00315 	stw	ra,12(sp)
 2005c58:	df000215 	stw	fp,8(sp)
 2005c5c:	df000204 	addi	fp,sp,8
 2005c60:	e13fff15 	stw	r4,-4(fp)
    TERASIC_TOUCH_PANEL *p = (TERASIC_TOUCH_PANEL *)context;
 2005c64:	e0bfff17 	ldw	r2,-4(fp)
 2005c68:	e0bffe15 	stw	r2,-8(fp)
    
    if (touch_is_pen_pressed(p)){//Touch.pen_pressed){
 2005c6c:	e13ffe17 	ldw	r4,-8(fp)
 2005c70:	20057680 	call	2005768 <touch_is_pen_pressed>
 2005c74:	10000926 	beq	r2,zero,2005c9c <touch_alarm_callback+0x4c>
 * alt_nticks() returns the elapsed number of system clock ticks since reset.
 */

static ALT_INLINE alt_u32 ALT_ALWAYS_INLINE alt_nticks (void)
{
  return _alt_nticks;
 2005c78:	008080f4 	movhi	r2,515
 2005c7c:	10a8e504 	addi	r2,r2,-23660
 2005c80:	10800017 	ldw	r2,0(r2)
        if (alt_nticks() > p->next_active_time)
 2005c84:	e0fffe17 	ldw	r3,-8(fp)
 2005c88:	18c01717 	ldw	r3,92(r3)
 2005c8c:	1880072e 	bgeu	r3,r2,2005cac <touch_alarm_callback+0x5c>
            touch_get_xy(p);
 2005c90:	e13ffe17 	ldw	r4,-8(fp)
 2005c94:	20059380 	call	2005938 <touch_get_xy>
 2005c98:	00000406 	br	2005cac <touch_alarm_callback+0x5c>
      //  p->last_active_time = alt_nticks(); 
    }else{
       // touch_empty_fifo(p);
        //if ((alt_nticks() - Touch.last_active_time) > alt_ticks_per_second()/10){
         touch_enable_penirq(p);
 2005c9c:	e13ffe17 	ldw	r4,-8(fp)
 2005ca0:	20057a80 	call	20057a8 <touch_enable_penirq>
         touch_clear_input(p);
 2005ca4:	e13ffe17 	ldw	r4,-8(fp)
 2005ca8:	20059080 	call	2005908 <touch_clear_input>
          //  p->last_active_time = alt_nticks(); 
        //}            
    }        
    return p->alarm_dur;
 2005cac:	e0bffe17 	ldw	r2,-8(fp)
 2005cb0:	10801617 	ldw	r2,88(r2)
}
 2005cb4:	e037883a 	mov	sp,fp
 2005cb8:	dfc00117 	ldw	ra,4(sp)
 2005cbc:	df000017 	ldw	fp,0(sp)
 2005cc0:	dec00204 	addi	sp,sp,8
 2005cc4:	f800283a 	ret

02005cc8 <touch_xy_transform>:

void touch_xy_transform(int *x, int *y){
 2005cc8:	defff904 	addi	sp,sp,-28
 2005ccc:	dfc00615 	stw	ra,24(sp)
 2005cd0:	df000515 	stw	fp,20(sp)
 2005cd4:	df000504 	addi	fp,sp,20
 2005cd8:	e13ffe15 	stw	r4,-8(fp)
 2005cdc:	e17fff15 	stw	r5,-4(fp)
    int xx, yy;
    const int y_ignore = 200;
 2005ce0:	00803204 	movi	r2,200
 2005ce4:	e0bffc15 	stw	r2,-16(fp)
    xx = *y;
 2005ce8:	e0bfff17 	ldw	r2,-4(fp)
 2005cec:	10800017 	ldw	r2,0(r2)
 2005cf0:	e0bffd15 	stw	r2,-12(fp)
    yy = *x;
 2005cf4:	e0bffe17 	ldw	r2,-8(fp)
 2005cf8:	10800017 	ldw	r2,0(r2)
 2005cfc:	e0bffb15 	stw	r2,-20(fp)

    // scale & swap
   // xx = 4096 -1 - xx;
    xx = xx * X_RES / 4096;
 2005d00:	e0bffd17 	ldw	r2,-12(fp)
 2005d04:	10803c24 	muli	r2,r2,240
 2005d08:	1000010e 	bge	r2,zero,2005d10 <touch_xy_transform+0x48>
 2005d0c:	1083ffc4 	addi	r2,r2,4095
 2005d10:	1005d33a 	srai	r2,r2,12
 2005d14:	e0bffd15 	stw	r2,-12(fp)

   // yy = 4096 -1 - yy;

    // special calibrate for LT24
    if (yy > (4096-y_ignore))
 2005d18:	00c40004 	movi	r3,4096
 2005d1c:	e0bffc17 	ldw	r2,-16(fp)
 2005d20:	1887c83a 	sub	r3,r3,r2
 2005d24:	e0bffb17 	ldw	r2,-20(fp)
 2005d28:	1880040e 	bge	r3,r2,2005d3c <touch_xy_transform+0x74>
    	yy = 4096-y_ignore;
 2005d2c:	00c40004 	movi	r3,4096
 2005d30:	e0bffc17 	ldw	r2,-16(fp)
 2005d34:	1885c83a 	sub	r2,r3,r2
 2005d38:	e0bffb15 	stw	r2,-20(fp)
    yy = yy * 4095/ (4096-y_ignore);
 2005d3c:	e0bffb17 	ldw	r2,-20(fp)
 2005d40:	1103ffe4 	muli	r4,r2,4095
 2005d44:	00c40004 	movi	r3,4096
 2005d48:	e0bffc17 	ldw	r2,-16(fp)
 2005d4c:	1885c83a 	sub	r2,r3,r2
 2005d50:	100b883a 	mov	r5,r2
 2005d54:	200624c0 	call	200624c <__divsi3>
 2005d58:	e0bffb15 	stw	r2,-20(fp)
    
    yy = yy * Y_RES / 4096;
 2005d5c:	e0bffb17 	ldw	r2,-20(fp)
 2005d60:	10805024 	muli	r2,r2,320
 2005d64:	1000010e 	bge	r2,zero,2005d6c <touch_xy_transform+0xa4>
 2005d68:	1083ffc4 	addi	r2,r2,4095
 2005d6c:	1005d33a 	srai	r2,r2,12
 2005d70:	e0bffb15 	stw	r2,-20(fp)

    // swap
    *x = xx;
 2005d74:	e0bffe17 	ldw	r2,-8(fp)
 2005d78:	e0fffd17 	ldw	r3,-12(fp)
 2005d7c:	10c00015 	stw	r3,0(r2)
    *y = yy;    
 2005d80:	e0bfff17 	ldw	r2,-4(fp)
 2005d84:	e0fffb17 	ldw	r3,-20(fp)
 2005d88:	10c00015 	stw	r3,0(r2)
    
}
 2005d8c:	e037883a 	mov	sp,fp
 2005d90:	dfc00117 	ldw	ra,4(sp)
 2005d94:	df000017 	ldw	fp,0(sp)
 2005d98:	dec00204 	addi	sp,sp,8
 2005d9c:	f800283a 	ret

02005da0 <sqrt>:
 2005da0:	defff104 	addi	sp,sp,-60
 2005da4:	dd000d15 	stw	r20,52(sp)
 2005da8:	050080f4 	movhi	r20,515
 2005dac:	dcc00c15 	stw	r19,48(sp)
 2005db0:	dc800b15 	stw	r18,44(sp)
 2005db4:	dc400a15 	stw	r17,40(sp)
 2005db8:	dc000915 	stw	r16,36(sp)
 2005dbc:	dfc00e15 	stw	ra,56(sp)
 2005dc0:	a5202104 	addi	r20,r20,-32636
 2005dc4:	2027883a 	mov	r19,r4
 2005dc8:	2825883a 	mov	r18,r5
 2005dcc:	2005ed00 	call	2005ed0 <__ieee754_sqrt>
 2005dd0:	1821883a 	mov	r16,r3
 2005dd4:	a0c00017 	ldw	r3,0(r20)
 2005dd8:	1023883a 	mov	r17,r2
 2005ddc:	00bfffc4 	movi	r2,-1
 2005de0:	18800a26 	beq	r3,r2,2005e0c <sqrt+0x6c>
 2005de4:	9809883a 	mov	r4,r19
 2005de8:	900b883a 	mov	r5,r18
 2005dec:	20061640 	call	2006164 <__fpclassifyd>
 2005df0:	10000626 	beq	r2,zero,2005e0c <sqrt+0x6c>
 2005df4:	9809883a 	mov	r4,r19
 2005df8:	900b883a 	mov	r5,r18
 2005dfc:	000d883a 	mov	r6,zero
 2005e00:	000f883a 	mov	r7,zero
 2005e04:	20074740 	call	2007474 <__ledf2>
 2005e08:	10000a16 	blt	r2,zero,2005e34 <sqrt+0x94>
 2005e0c:	8805883a 	mov	r2,r17
 2005e10:	8007883a 	mov	r3,r16
 2005e14:	dfc00e17 	ldw	ra,56(sp)
 2005e18:	dd000d17 	ldw	r20,52(sp)
 2005e1c:	dcc00c17 	ldw	r19,48(sp)
 2005e20:	dc800b17 	ldw	r18,44(sp)
 2005e24:	dc400a17 	ldw	r17,40(sp)
 2005e28:	dc000917 	ldw	r16,36(sp)
 2005e2c:	dec00f04 	addi	sp,sp,60
 2005e30:	f800283a 	ret
 2005e34:	00800044 	movi	r2,1
 2005e38:	d8800015 	stw	r2,0(sp)
 2005e3c:	a4000017 	ldw	r16,0(r20)
 2005e40:	008080b4 	movhi	r2,514
 2005e44:	10973704 	addi	r2,r2,23772
 2005e48:	d8800115 	stw	r2,4(sp)
 2005e4c:	d8000815 	stw	zero,32(sp)
 2005e50:	dcc00415 	stw	r19,16(sp)
 2005e54:	dc800515 	stw	r18,20(sp)
 2005e58:	dcc00215 	stw	r19,8(sp)
 2005e5c:	dc800315 	stw	r18,12(sp)
 2005e60:	80000a1e 	bne	r16,zero,2005e8c <sqrt+0xec>
 2005e64:	d8000615 	stw	zero,24(sp)
 2005e68:	d8000715 	stw	zero,28(sp)
 2005e6c:	d809883a 	mov	r4,sp
 2005e70:	20061d80 	call	20061d8 <matherr>
 2005e74:	10000e26 	beq	r2,zero,2005eb0 <sqrt+0x110>
 2005e78:	d8800817 	ldw	r2,32(sp)
 2005e7c:	1000101e 	bne	r2,zero,2005ec0 <sqrt+0x120>
 2005e80:	d8800617 	ldw	r2,24(sp)
 2005e84:	d8c00717 	ldw	r3,28(sp)
 2005e88:	003fe206 	br	2005e14 <__alt_mem_pic_mem+0xfe001e14>
 2005e8c:	0009883a 	mov	r4,zero
 2005e90:	000b883a 	mov	r5,zero
 2005e94:	000d883a 	mov	r6,zero
 2005e98:	000f883a 	mov	r7,zero
 2005e9c:	2006ba80 	call	2006ba8 <__divdf3>
 2005ea0:	d8800615 	stw	r2,24(sp)
 2005ea4:	d8c00715 	stw	r3,28(sp)
 2005ea8:	00800084 	movi	r2,2
 2005eac:	80bfef1e 	bne	r16,r2,2005e6c <__alt_mem_pic_mem+0xfe001e6c>
 2005eb0:	20087040 	call	2008704 <__errno>
 2005eb4:	00c00844 	movi	r3,33
 2005eb8:	10c00015 	stw	r3,0(r2)
 2005ebc:	003fee06 	br	2005e78 <__alt_mem_pic_mem+0xfe001e78>
 2005ec0:	20087040 	call	2008704 <__errno>
 2005ec4:	d8c00817 	ldw	r3,32(sp)
 2005ec8:	10c00015 	stw	r3,0(r2)
 2005ecc:	003fec06 	br	2005e80 <__alt_mem_pic_mem+0xfe001e80>

02005ed0 <__ieee754_sqrt>:
 2005ed0:	defffd04 	addi	sp,sp,-12
 2005ed4:	dc400115 	stw	r17,4(sp)
 2005ed8:	dc000015 	stw	r16,0(sp)
 2005edc:	dfc00215 	stw	ra,8(sp)
 2005ee0:	28dffc2c 	andhi	r3,r5,32752
 2005ee4:	009ffc34 	movhi	r2,32752
 2005ee8:	2821883a 	mov	r16,r5
 2005eec:	2023883a 	mov	r17,r4
 2005ef0:	18807c26 	beq	r3,r2,20060e4 <__ieee754_sqrt+0x214>
 2005ef4:	2011883a 	mov	r8,r4
 2005ef8:	01405f0e 	bge	zero,r5,2006078 <__ieee754_sqrt+0x1a8>
 2005efc:	2815d53a 	srai	r10,r5,20
 2005f00:	50006a26 	beq	r10,zero,20060ac <__ieee754_sqrt+0x1dc>
 2005f04:	00800434 	movhi	r2,16
 2005f08:	52bf0044 	addi	r10,r10,-1023
 2005f0c:	10bfffc4 	addi	r2,r2,-1
 2005f10:	8084703a 	and	r2,r16,r2
 2005f14:	50c0004c 	andi	r3,r10,1
 2005f18:	10800434 	orhi	r2,r2,16
 2005f1c:	18004f1e 	bne	r3,zero,200605c <__ieee754_sqrt+0x18c>
 2005f20:	4006d7fa 	srli	r3,r8,31
 2005f24:	5015d07a 	srai	r10,r10,1
 2005f28:	1085883a 	add	r2,r2,r2
 2005f2c:	10c5883a 	add	r2,r2,r3
 2005f30:	01800584 	movi	r6,22
 2005f34:	4207883a 	add	r3,r8,r8
 2005f38:	0013883a 	mov	r9,zero
 2005f3c:	000b883a 	mov	r5,zero
 2005f40:	01000834 	movhi	r4,32
 2005f44:	290f883a 	add	r7,r5,r4
 2005f48:	1810d7fa 	srli	r8,r3,31
 2005f4c:	31bfffc4 	addi	r6,r6,-1
 2005f50:	11c00316 	blt	r2,r7,2005f60 <__ieee754_sqrt+0x90>
 2005f54:	11c5c83a 	sub	r2,r2,r7
 2005f58:	390b883a 	add	r5,r7,r4
 2005f5c:	4913883a 	add	r9,r9,r4
 2005f60:	1085883a 	add	r2,r2,r2
 2005f64:	1205883a 	add	r2,r2,r8
 2005f68:	18c7883a 	add	r3,r3,r3
 2005f6c:	2008d07a 	srli	r4,r4,1
 2005f70:	303ff41e 	bne	r6,zero,2005f44 <__alt_mem_pic_mem+0xfe001f44>
 2005f74:	01200034 	movhi	r4,32768
 2005f78:	01c00804 	movi	r7,32
 2005f7c:	0011883a 	mov	r8,zero
 2005f80:	0017883a 	mov	r11,zero
 2005f84:	201b883a 	mov	r13,r4
 2005f88:	00000806 	br	2005fac <__ieee754_sqrt+0xdc>
 2005f8c:	11401726 	beq	r2,r5,2005fec <__ieee754_sqrt+0x11c>
 2005f90:	180cd7fa 	srli	r6,r3,31
 2005f94:	1085883a 	add	r2,r2,r2
 2005f98:	39ffffc4 	addi	r7,r7,-1
 2005f9c:	1185883a 	add	r2,r2,r6
 2005fa0:	18c7883a 	add	r3,r3,r3
 2005fa4:	2008d07a 	srli	r4,r4,1
 2005fa8:	38001726 	beq	r7,zero,2006008 <__ieee754_sqrt+0x138>
 2005fac:	590d883a 	add	r6,r11,r4
 2005fb0:	28bff60e 	bge	r5,r2,2005f8c <__alt_mem_pic_mem+0xfe001f8c>
 2005fb4:	3320002c 	andhi	r12,r6,32768
 2005fb8:	3117883a 	add	r11,r6,r4
 2005fbc:	63400826 	beq	r12,r13,2005fe0 <__ieee754_sqrt+0x110>
 2005fc0:	2819883a 	mov	r12,r5
 2005fc4:	1145c83a 	sub	r2,r2,r5
 2005fc8:	1980012e 	bgeu	r3,r6,2005fd0 <__ieee754_sqrt+0x100>
 2005fcc:	10bfffc4 	addi	r2,r2,-1
 2005fd0:	1987c83a 	sub	r3,r3,r6
 2005fd4:	4111883a 	add	r8,r8,r4
 2005fd8:	600b883a 	mov	r5,r12
 2005fdc:	003fec06 	br	2005f90 <__alt_mem_pic_mem+0xfe001f90>
 2005fe0:	583ff716 	blt	r11,zero,2005fc0 <__alt_mem_pic_mem+0xfe001fc0>
 2005fe4:	2b000044 	addi	r12,r5,1
 2005fe8:	003ff606 	br	2005fc4 <__alt_mem_pic_mem+0xfe001fc4>
 2005fec:	19801936 	bltu	r3,r6,2006054 <__ieee754_sqrt+0x184>
 2005ff0:	3320002c 	andhi	r12,r6,32768
 2005ff4:	3117883a 	add	r11,r6,r4
 2005ff8:	63404626 	beq	r12,r13,2006114 <__ieee754_sqrt+0x244>
 2005ffc:	1019883a 	mov	r12,r2
 2006000:	0005883a 	mov	r2,zero
 2006004:	003ff206 	br	2005fd0 <__alt_mem_pic_mem+0xfe001fd0>
 2006008:	10c4b03a 	or	r2,r2,r3
 200600c:	10000426 	beq	r2,zero,2006020 <__ieee754_sqrt+0x150>
 2006010:	00bfffc4 	movi	r2,-1
 2006014:	40804326 	beq	r8,r2,2006124 <__ieee754_sqrt+0x254>
 2006018:	4080004c 	andi	r2,r8,1
 200601c:	1211883a 	add	r8,r2,r8
 2006020:	4004d07a 	srli	r2,r8,1
 2006024:	4807d07a 	srai	r3,r9,1
 2006028:	010ff834 	movhi	r4,16352
 200602c:	4a40004c 	andi	r9,r9,1
 2006030:	1909883a 	add	r4,r3,r4
 2006034:	48000e1e 	bne	r9,zero,2006070 <__ieee754_sqrt+0x1a0>
 2006038:	5006953a 	slli	r3,r10,20
 200603c:	1907883a 	add	r3,r3,r4
 2006040:	dfc00217 	ldw	ra,8(sp)
 2006044:	dc400117 	ldw	r17,4(sp)
 2006048:	dc000017 	ldw	r16,0(sp)
 200604c:	dec00304 	addi	sp,sp,12
 2006050:	f800283a 	ret
 2006054:	100b883a 	mov	r5,r2
 2006058:	003fcd06 	br	2005f90 <__alt_mem_pic_mem+0xfe001f90>
 200605c:	4006d7fa 	srli	r3,r8,31
 2006060:	1085883a 	add	r2,r2,r2
 2006064:	4211883a 	add	r8,r8,r8
 2006068:	10c5883a 	add	r2,r2,r3
 200606c:	003fac06 	br	2005f20 <__alt_mem_pic_mem+0xfe001f20>
 2006070:	10a00034 	orhi	r2,r2,32768
 2006074:	003ff006 	br	2006038 <__alt_mem_pic_mem+0xfe002038>
 2006078:	00a00034 	movhi	r2,32768
 200607c:	10bfffc4 	addi	r2,r2,-1
 2006080:	2884703a 	and	r2,r5,r2
 2006084:	1104b03a 	or	r2,r2,r4
 2006088:	10001f26 	beq	r2,zero,2006108 <__ieee754_sqrt+0x238>
 200608c:	28002c1e 	bne	r5,zero,2006140 <__ieee754_sqrt+0x270>
 2006090:	0015883a 	mov	r10,zero
 2006094:	4020d2fa 	srli	r16,r8,11
 2006098:	52bffac4 	addi	r10,r10,-21
 200609c:	4010957a 	slli	r8,r8,21
 20060a0:	803ffc26 	beq	r16,zero,2006094 <__alt_mem_pic_mem+0xfe002094>
 20060a4:	8080042c 	andhi	r2,r16,16
 20060a8:	1000211e 	bne	r2,zero,2006130 <__ieee754_sqrt+0x260>
 20060ac:	0005883a 	mov	r2,zero
 20060b0:	8421883a 	add	r16,r16,r16
 20060b4:	80c0042c 	andhi	r3,r16,16
 20060b8:	10800044 	addi	r2,r2,1
 20060bc:	183ffc26 	beq	r3,zero,20060b0 <__alt_mem_pic_mem+0xfe0020b0>
 20060c0:	01000044 	movi	r4,1
 20060c4:	00c00804 	movi	r3,32
 20060c8:	2089c83a 	sub	r4,r4,r2
 20060cc:	1887c83a 	sub	r3,r3,r2
 20060d0:	40c6d83a 	srl	r3,r8,r3
 20060d4:	5115883a 	add	r10,r10,r4
 20060d8:	4090983a 	sll	r8,r8,r2
 20060dc:	80e0b03a 	or	r16,r16,r3
 20060e0:	003f8806 	br	2005f04 <__alt_mem_pic_mem+0xfe001f04>
 20060e4:	200d883a 	mov	r6,r4
 20060e8:	280f883a 	mov	r7,r5
 20060ec:	20075540 	call	2007554 <__muldf3>
 20060f0:	1009883a 	mov	r4,r2
 20060f4:	180b883a 	mov	r5,r3
 20060f8:	880d883a 	mov	r6,r17
 20060fc:	800f883a 	mov	r7,r16
 2006100:	200630c0 	call	200630c <__adddf3>
 2006104:	003fce06 	br	2006040 <__alt_mem_pic_mem+0xfe002040>
 2006108:	2005883a 	mov	r2,r4
 200610c:	2807883a 	mov	r3,r5
 2006110:	003fcb06 	br	2006040 <__alt_mem_pic_mem+0xfe002040>
 2006114:	583fb30e 	bge	r11,zero,2005fe4 <__alt_mem_pic_mem+0xfe001fe4>
 2006118:	0005883a 	mov	r2,zero
 200611c:	2819883a 	mov	r12,r5
 2006120:	003fab06 	br	2005fd0 <__alt_mem_pic_mem+0xfe001fd0>
 2006124:	4a400044 	addi	r9,r9,1
 2006128:	0005883a 	mov	r2,zero
 200612c:	003fbd06 	br	2006024 <__alt_mem_pic_mem+0xfe002024>
 2006130:	00c00804 	movi	r3,32
 2006134:	01000044 	movi	r4,1
 2006138:	0005883a 	mov	r2,zero
 200613c:	003fe406 	br	20060d0 <__alt_mem_pic_mem+0xfe0020d0>
 2006140:	200d883a 	mov	r6,r4
 2006144:	280f883a 	mov	r7,r5
 2006148:	2007c780 	call	2007c78 <__subdf3>
 200614c:	1009883a 	mov	r4,r2
 2006150:	180b883a 	mov	r5,r3
 2006154:	100d883a 	mov	r6,r2
 2006158:	180f883a 	mov	r7,r3
 200615c:	2006ba80 	call	2006ba8 <__divdf3>
 2006160:	003fb706 	br	2006040 <__alt_mem_pic_mem+0xfe002040>

02006164 <__fpclassifyd>:
 2006164:	00a00034 	movhi	r2,32768
 2006168:	10bfffc4 	addi	r2,r2,-1
 200616c:	2884703a 	and	r2,r5,r2
 2006170:	10000726 	beq	r2,zero,2006190 <__fpclassifyd+0x2c>
 2006174:	00fffc34 	movhi	r3,65520
 2006178:	019ff834 	movhi	r6,32736
 200617c:	28c7883a 	add	r3,r5,r3
 2006180:	31bfffc4 	addi	r6,r6,-1
 2006184:	30c00536 	bltu	r6,r3,200619c <__fpclassifyd+0x38>
 2006188:	00800104 	movi	r2,4
 200618c:	f800283a 	ret
 2006190:	2000021e 	bne	r4,zero,200619c <__fpclassifyd+0x38>
 2006194:	00800084 	movi	r2,2
 2006198:	f800283a 	ret
 200619c:	00dffc34 	movhi	r3,32752
 20061a0:	019ff834 	movhi	r6,32736
 20061a4:	28cb883a 	add	r5,r5,r3
 20061a8:	31bfffc4 	addi	r6,r6,-1
 20061ac:	317ff62e 	bgeu	r6,r5,2006188 <__alt_mem_pic_mem+0xfe002188>
 20061b0:	01400434 	movhi	r5,16
 20061b4:	297fffc4 	addi	r5,r5,-1
 20061b8:	28800236 	bltu	r5,r2,20061c4 <__fpclassifyd+0x60>
 20061bc:	008000c4 	movi	r2,3
 20061c0:	f800283a 	ret
 20061c4:	10c00226 	beq	r2,r3,20061d0 <__fpclassifyd+0x6c>
 20061c8:	0005883a 	mov	r2,zero
 20061cc:	f800283a 	ret
 20061d0:	2005003a 	cmpeq	r2,r4,zero
 20061d4:	f800283a 	ret

020061d8 <matherr>:
 20061d8:	0005883a 	mov	r2,zero
 20061dc:	f800283a 	ret

020061e0 <udivmodsi4>:
 20061e0:	2900182e 	bgeu	r5,r4,2006244 <udivmodsi4+0x64>
 20061e4:	28001716 	blt	r5,zero,2006244 <udivmodsi4+0x64>
 20061e8:	00800804 	movi	r2,32
 20061ec:	00c00044 	movi	r3,1
 20061f0:	00000206 	br	20061fc <udivmodsi4+0x1c>
 20061f4:	10001126 	beq	r2,zero,200623c <udivmodsi4+0x5c>
 20061f8:	28000516 	blt	r5,zero,2006210 <udivmodsi4+0x30>
 20061fc:	294b883a 	add	r5,r5,r5
 2006200:	10bfffc4 	addi	r2,r2,-1
 2006204:	18c7883a 	add	r3,r3,r3
 2006208:	293ffa36 	bltu	r5,r4,20061f4 <__alt_mem_pic_mem+0xfe0021f4>
 200620c:	18000b26 	beq	r3,zero,200623c <udivmodsi4+0x5c>
 2006210:	0005883a 	mov	r2,zero
 2006214:	21400236 	bltu	r4,r5,2006220 <udivmodsi4+0x40>
 2006218:	2149c83a 	sub	r4,r4,r5
 200621c:	10c4b03a 	or	r2,r2,r3
 2006220:	1806d07a 	srli	r3,r3,1
 2006224:	280ad07a 	srli	r5,r5,1
 2006228:	183ffa1e 	bne	r3,zero,2006214 <__alt_mem_pic_mem+0xfe002214>
 200622c:	3000011e 	bne	r6,zero,2006234 <udivmodsi4+0x54>
 2006230:	f800283a 	ret
 2006234:	2005883a 	mov	r2,r4
 2006238:	f800283a 	ret
 200623c:	0005883a 	mov	r2,zero
 2006240:	003ffa06 	br	200622c <__alt_mem_pic_mem+0xfe00222c>
 2006244:	00c00044 	movi	r3,1
 2006248:	003ff106 	br	2006210 <__alt_mem_pic_mem+0xfe002210>

0200624c <__divsi3>:
 200624c:	defffe04 	addi	sp,sp,-8
 2006250:	dfc00115 	stw	ra,4(sp)
 2006254:	dc000015 	stw	r16,0(sp)
 2006258:	20000b16 	blt	r4,zero,2006288 <__divsi3+0x3c>
 200625c:	0021883a 	mov	r16,zero
 2006260:	28000c16 	blt	r5,zero,2006294 <__divsi3+0x48>
 2006264:	000d883a 	mov	r6,zero
 2006268:	20061e00 	call	20061e0 <udivmodsi4>
 200626c:	0407c83a 	sub	r3,zero,r16
 2006270:	1884f03a 	xor	r2,r3,r2
 2006274:	1405883a 	add	r2,r2,r16
 2006278:	dfc00117 	ldw	ra,4(sp)
 200627c:	dc000017 	ldw	r16,0(sp)
 2006280:	dec00204 	addi	sp,sp,8
 2006284:	f800283a 	ret
 2006288:	0109c83a 	sub	r4,zero,r4
 200628c:	04000044 	movi	r16,1
 2006290:	283ff40e 	bge	r5,zero,2006264 <__alt_mem_pic_mem+0xfe002264>
 2006294:	014bc83a 	sub	r5,zero,r5
 2006298:	8400005c 	xori	r16,r16,1
 200629c:	003ff106 	br	2006264 <__alt_mem_pic_mem+0xfe002264>

020062a0 <__modsi3>:
 20062a0:	defffd04 	addi	sp,sp,-12
 20062a4:	dfc00215 	stw	ra,8(sp)
 20062a8:	dc400115 	stw	r17,4(sp)
 20062ac:	dc000015 	stw	r16,0(sp)
 20062b0:	20000c16 	blt	r4,zero,20062e4 <__modsi3+0x44>
 20062b4:	0023883a 	mov	r17,zero
 20062b8:	0021883a 	mov	r16,zero
 20062bc:	28000d16 	blt	r5,zero,20062f4 <__modsi3+0x54>
 20062c0:	01800044 	movi	r6,1
 20062c4:	20061e00 	call	20061e0 <udivmodsi4>
 20062c8:	1404f03a 	xor	r2,r2,r16
 20062cc:	8885883a 	add	r2,r17,r2
 20062d0:	dfc00217 	ldw	ra,8(sp)
 20062d4:	dc400117 	ldw	r17,4(sp)
 20062d8:	dc000017 	ldw	r16,0(sp)
 20062dc:	dec00304 	addi	sp,sp,12
 20062e0:	f800283a 	ret
 20062e4:	0109c83a 	sub	r4,zero,r4
 20062e8:	04400044 	movi	r17,1
 20062ec:	043fffc4 	movi	r16,-1
 20062f0:	283ff30e 	bge	r5,zero,20062c0 <__alt_mem_pic_mem+0xfe0022c0>
 20062f4:	014bc83a 	sub	r5,zero,r5
 20062f8:	003ff106 	br	20062c0 <__alt_mem_pic_mem+0xfe0022c0>

020062fc <__udivsi3>:
 20062fc:	000d883a 	mov	r6,zero
 2006300:	20061e01 	jmpi	20061e0 <udivmodsi4>

02006304 <__umodsi3>:
 2006304:	01800044 	movi	r6,1
 2006308:	20061e01 	jmpi	20061e0 <udivmodsi4>

0200630c <__adddf3>:
 200630c:	02000434 	movhi	r8,16
 2006310:	423fffc4 	addi	r8,r8,-1
 2006314:	defffb04 	addi	sp,sp,-20
 2006318:	2a12703a 	and	r9,r5,r8
 200631c:	2806d7fa 	srli	r3,r5,31
 2006320:	3a10703a 	and	r8,r7,r8
 2006324:	3804d53a 	srli	r2,r7,20
 2006328:	3014d77a 	srli	r10,r6,29
 200632c:	dc000015 	stw	r16,0(sp)
 2006330:	481290fa 	slli	r9,r9,3
 2006334:	2820d53a 	srli	r16,r5,20
 2006338:	401090fa 	slli	r8,r8,3
 200633c:	200ad77a 	srli	r5,r4,29
 2006340:	380ed7fa 	srli	r7,r7,31
 2006344:	dc800215 	stw	r18,8(sp)
 2006348:	dc400115 	stw	r17,4(sp)
 200634c:	dfc00415 	stw	ra,16(sp)
 2006350:	dcc00315 	stw	r19,12(sp)
 2006354:	1c803fcc 	andi	r18,r3,255
 2006358:	8401ffcc 	andi	r16,r16,2047
 200635c:	494ab03a 	or	r5,r9,r5
 2006360:	202290fa 	slli	r17,r4,3
 2006364:	1081ffcc 	andi	r2,r2,2047
 2006368:	4290b03a 	or	r8,r8,r10
 200636c:	300c90fa 	slli	r6,r6,3
 2006370:	91c07026 	beq	r18,r7,2006534 <__adddf3+0x228>
 2006374:	8087c83a 	sub	r3,r16,r2
 2006378:	00c0b30e 	bge	zero,r3,2006648 <__adddf3+0x33c>
 200637c:	10002a1e 	bne	r2,zero,2006428 <__adddf3+0x11c>
 2006380:	4184b03a 	or	r2,r8,r6
 2006384:	1000991e 	bne	r2,zero,20065ec <__adddf3+0x2e0>
 2006388:	888001cc 	andi	r2,r17,7
 200638c:	10005b26 	beq	r2,zero,20064fc <__adddf3+0x1f0>
 2006390:	88c003cc 	andi	r3,r17,15
 2006394:	00800104 	movi	r2,4
 2006398:	18805826 	beq	r3,r2,20064fc <__adddf3+0x1f0>
 200639c:	89800104 	addi	r6,r17,4
 20063a0:	3463803a 	cmpltu	r17,r6,r17
 20063a4:	2c4b883a 	add	r5,r5,r17
 20063a8:	2880202c 	andhi	r2,r5,128
 20063ac:	9007883a 	mov	r3,r18
 20063b0:	3023883a 	mov	r17,r6
 20063b4:	10005426 	beq	r2,zero,2006508 <__adddf3+0x1fc>
 20063b8:	84000044 	addi	r16,r16,1
 20063bc:	0081ffc4 	movi	r2,2047
 20063c0:	8080c126 	beq	r16,r2,20066c8 <__adddf3+0x3bc>
 20063c4:	013fe034 	movhi	r4,65408
 20063c8:	213fffc4 	addi	r4,r4,-1
 20063cc:	290a703a 	and	r5,r5,r4
 20063d0:	2804977a 	slli	r2,r5,29
 20063d4:	280a927a 	slli	r5,r5,9
 20063d8:	8822d0fa 	srli	r17,r17,3
 20063dc:	8401ffcc 	andi	r16,r16,2047
 20063e0:	2808d33a 	srli	r4,r5,12
 20063e4:	1444b03a 	or	r2,r2,r17
 20063e8:	8401ffcc 	andi	r16,r16,2047
 20063ec:	800a953a 	slli	r5,r16,20
 20063f0:	18c03fcc 	andi	r3,r3,255
 20063f4:	04000434 	movhi	r16,16
 20063f8:	180697fa 	slli	r3,r3,31
 20063fc:	843fffc4 	addi	r16,r16,-1
 2006400:	2420703a 	and	r16,r4,r16
 2006404:	8160b03a 	or	r16,r16,r5
 2006408:	80c6b03a 	or	r3,r16,r3
 200640c:	dfc00417 	ldw	ra,16(sp)
 2006410:	dcc00317 	ldw	r19,12(sp)
 2006414:	dc800217 	ldw	r18,8(sp)
 2006418:	dc400117 	ldw	r17,4(sp)
 200641c:	dc000017 	ldw	r16,0(sp)
 2006420:	dec00504 	addi	sp,sp,20
 2006424:	f800283a 	ret
 2006428:	0081ffc4 	movi	r2,2047
 200642c:	80bfd626 	beq	r16,r2,2006388 <__alt_mem_pic_mem+0xfe002388>
 2006430:	42002034 	orhi	r8,r8,128
 2006434:	00800e04 	movi	r2,56
 2006438:	10c0a616 	blt	r2,r3,20066d4 <__adddf3+0x3c8>
 200643c:	008007c4 	movi	r2,31
 2006440:	10c0c916 	blt	r2,r3,2006768 <__adddf3+0x45c>
 2006444:	00800804 	movi	r2,32
 2006448:	10c5c83a 	sub	r2,r2,r3
 200644c:	408e983a 	sll	r7,r8,r2
 2006450:	30c8d83a 	srl	r4,r6,r3
 2006454:	3084983a 	sll	r2,r6,r2
 2006458:	40c6d83a 	srl	r3,r8,r3
 200645c:	390cb03a 	or	r6,r7,r4
 2006460:	1004c03a 	cmpne	r2,r2,zero
 2006464:	308cb03a 	or	r6,r6,r2
 2006468:	898dc83a 	sub	r6,r17,r6
 200646c:	89a3803a 	cmpltu	r17,r17,r6
 2006470:	28cbc83a 	sub	r5,r5,r3
 2006474:	2c4bc83a 	sub	r5,r5,r17
 2006478:	3023883a 	mov	r17,r6
 200647c:	2880202c 	andhi	r2,r5,128
 2006480:	10006d26 	beq	r2,zero,2006638 <__adddf3+0x32c>
 2006484:	04c02034 	movhi	r19,128
 2006488:	9cffffc4 	addi	r19,r19,-1
 200648c:	2ce6703a 	and	r19,r5,r19
 2006490:	98007e26 	beq	r19,zero,200668c <__adddf3+0x380>
 2006494:	9809883a 	mov	r4,r19
 2006498:	20086a00 	call	20086a0 <__clzsi2>
 200649c:	10fffe04 	addi	r3,r2,-8
 20064a0:	010007c4 	movi	r4,31
 20064a4:	20c07f16 	blt	r4,r3,20066a4 <__adddf3+0x398>
 20064a8:	01400a04 	movi	r5,40
 20064ac:	2885c83a 	sub	r2,r5,r2
 20064b0:	888ad83a 	srl	r5,r17,r2
 20064b4:	98e6983a 	sll	r19,r19,r3
 20064b8:	88e2983a 	sll	r17,r17,r3
 20064bc:	2ce6b03a 	or	r19,r5,r19
 20064c0:	1c007c16 	blt	r3,r16,20066b4 <__adddf3+0x3a8>
 20064c4:	1c21c83a 	sub	r16,r3,r16
 20064c8:	81400044 	addi	r5,r16,1
 20064cc:	00c007c4 	movi	r3,31
 20064d0:	19409816 	blt	r3,r5,2006734 <__adddf3+0x428>
 20064d4:	1c21c83a 	sub	r16,r3,r16
 20064d8:	8c08983a 	sll	r4,r17,r16
 20064dc:	8946d83a 	srl	r3,r17,r5
 20064e0:	9c20983a 	sll	r16,r19,r16
 20064e4:	2008c03a 	cmpne	r4,r4,zero
 20064e8:	994ad83a 	srl	r5,r19,r5
 20064ec:	1c06b03a 	or	r3,r3,r16
 20064f0:	1922b03a 	or	r17,r3,r4
 20064f4:	0021883a 	mov	r16,zero
 20064f8:	003fa306 	br	2006388 <__alt_mem_pic_mem+0xfe002388>
 20064fc:	2880202c 	andhi	r2,r5,128
 2006500:	9007883a 	mov	r3,r18
 2006504:	103fac1e 	bne	r2,zero,20063b8 <__alt_mem_pic_mem+0xfe0023b8>
 2006508:	2804977a 	slli	r2,r5,29
 200650c:	8822d0fa 	srli	r17,r17,3
 2006510:	0101ffc4 	movi	r4,2047
 2006514:	280ad0fa 	srli	r5,r5,3
 2006518:	1444b03a 	or	r2,r2,r17
 200651c:	81002c26 	beq	r16,r4,20065d0 <__adddf3+0x2c4>
 2006520:	8120703a 	and	r16,r16,r4
 2006524:	01000434 	movhi	r4,16
 2006528:	213fffc4 	addi	r4,r4,-1
 200652c:	2908703a 	and	r4,r5,r4
 2006530:	003fad06 	br	20063e8 <__alt_mem_pic_mem+0xfe0023e8>
 2006534:	8089c83a 	sub	r4,r16,r2
 2006538:	01006a0e 	bge	zero,r4,20066e4 <__adddf3+0x3d8>
 200653c:	10003326 	beq	r2,zero,200660c <__adddf3+0x300>
 2006540:	0081ffc4 	movi	r2,2047
 2006544:	80bf9026 	beq	r16,r2,2006388 <__alt_mem_pic_mem+0xfe002388>
 2006548:	42002034 	orhi	r8,r8,128
 200654c:	00800e04 	movi	r2,56
 2006550:	1100b116 	blt	r2,r4,2006818 <__adddf3+0x50c>
 2006554:	008007c4 	movi	r2,31
 2006558:	1100e216 	blt	r2,r4,20068e4 <__adddf3+0x5d8>
 200655c:	00800804 	movi	r2,32
 2006560:	1105c83a 	sub	r2,r2,r4
 2006564:	4092983a 	sll	r9,r8,r2
 2006568:	310ed83a 	srl	r7,r6,r4
 200656c:	3084983a 	sll	r2,r6,r2
 2006570:	4110d83a 	srl	r8,r8,r4
 2006574:	49ccb03a 	or	r6,r9,r7
 2006578:	1004c03a 	cmpne	r2,r2,zero
 200657c:	308cb03a 	or	r6,r6,r2
 2006580:	344d883a 	add	r6,r6,r17
 2006584:	3463803a 	cmpltu	r17,r6,r17
 2006588:	414b883a 	add	r5,r8,r5
 200658c:	2c4b883a 	add	r5,r5,r17
 2006590:	3023883a 	mov	r17,r6
 2006594:	2880202c 	andhi	r2,r5,128
 2006598:	10002726 	beq	r2,zero,2006638 <__adddf3+0x32c>
 200659c:	84000044 	addi	r16,r16,1
 20065a0:	0081ffc4 	movi	r2,2047
 20065a4:	8080ae26 	beq	r16,r2,2006860 <__adddf3+0x554>
 20065a8:	00bfe034 	movhi	r2,65408
 20065ac:	10bfffc4 	addi	r2,r2,-1
 20065b0:	288a703a 	and	r5,r5,r2
 20065b4:	880cd07a 	srli	r6,r17,1
 20065b8:	280897fa 	slli	r4,r5,31
 20065bc:	88c0004c 	andi	r3,r17,1
 20065c0:	30e2b03a 	or	r17,r6,r3
 20065c4:	280ad07a 	srli	r5,r5,1
 20065c8:	8922b03a 	or	r17,r17,r4
 20065cc:	003f6e06 	br	2006388 <__alt_mem_pic_mem+0xfe002388>
 20065d0:	1148b03a 	or	r4,r2,r5
 20065d4:	20003c26 	beq	r4,zero,20066c8 <__adddf3+0x3bc>
 20065d8:	29000234 	orhi	r4,r5,8
 20065dc:	01400434 	movhi	r5,16
 20065e0:	297fffc4 	addi	r5,r5,-1
 20065e4:	2148703a 	and	r4,r4,r5
 20065e8:	003f7f06 	br	20063e8 <__alt_mem_pic_mem+0xfe0023e8>
 20065ec:	18ffffc4 	addi	r3,r3,-1
 20065f0:	18004d1e 	bne	r3,zero,2006728 <__adddf3+0x41c>
 20065f4:	898dc83a 	sub	r6,r17,r6
 20065f8:	89a3803a 	cmpltu	r17,r17,r6
 20065fc:	2a0bc83a 	sub	r5,r5,r8
 2006600:	2c4bc83a 	sub	r5,r5,r17
 2006604:	3023883a 	mov	r17,r6
 2006608:	003f9c06 	br	200647c <__alt_mem_pic_mem+0xfe00247c>
 200660c:	4184b03a 	or	r2,r8,r6
 2006610:	103f5d26 	beq	r2,zero,2006388 <__alt_mem_pic_mem+0xfe002388>
 2006614:	213fffc4 	addi	r4,r4,-1
 2006618:	203fd926 	beq	r4,zero,2006580 <__alt_mem_pic_mem+0xfe002580>
 200661c:	0081ffc4 	movi	r2,2047
 2006620:	80bfca1e 	bne	r16,r2,200654c <__alt_mem_pic_mem+0xfe00254c>
 2006624:	003f5806 	br	2006388 <__alt_mem_pic_mem+0xfe002388>
 2006628:	10c8b03a 	or	r4,r2,r3
 200662c:	20008b26 	beq	r4,zero,200685c <__adddf3+0x550>
 2006630:	100b883a 	mov	r5,r2
 2006634:	1823883a 	mov	r17,r3
 2006638:	888001cc 	andi	r2,r17,7
 200663c:	103f541e 	bne	r2,zero,2006390 <__alt_mem_pic_mem+0xfe002390>
 2006640:	9007883a 	mov	r3,r18
 2006644:	003fb006 	br	2006508 <__alt_mem_pic_mem+0xfe002508>
 2006648:	1800531e 	bne	r3,zero,2006798 <__adddf3+0x48c>
 200664c:	80800044 	addi	r2,r16,1
 2006650:	1081ffcc 	andi	r2,r2,2047
 2006654:	00c00044 	movi	r3,1
 2006658:	1880990e 	bge	r3,r2,20068c0 <__adddf3+0x5b4>
 200665c:	8985c83a 	sub	r2,r17,r6
 2006660:	8887803a 	cmpltu	r3,r17,r2
 2006664:	2a27c83a 	sub	r19,r5,r8
 2006668:	98e7c83a 	sub	r19,r19,r3
 200666c:	98c0202c 	andhi	r3,r19,128
 2006670:	18006226 	beq	r3,zero,20067fc <__adddf3+0x4f0>
 2006674:	3463c83a 	sub	r17,r6,r17
 2006678:	4151c83a 	sub	r8,r8,r5
 200667c:	344d803a 	cmpltu	r6,r6,r17
 2006680:	41a7c83a 	sub	r19,r8,r6
 2006684:	3825883a 	mov	r18,r7
 2006688:	983f821e 	bne	r19,zero,2006494 <__alt_mem_pic_mem+0xfe002494>
 200668c:	8809883a 	mov	r4,r17
 2006690:	20086a00 	call	20086a0 <__clzsi2>
 2006694:	10800804 	addi	r2,r2,32
 2006698:	10fffe04 	addi	r3,r2,-8
 200669c:	010007c4 	movi	r4,31
 20066a0:	20ff810e 	bge	r4,r3,20064a8 <__alt_mem_pic_mem+0xfe0024a8>
 20066a4:	14fff604 	addi	r19,r2,-40
 20066a8:	8ce6983a 	sll	r19,r17,r19
 20066ac:	0023883a 	mov	r17,zero
 20066b0:	1c3f840e 	bge	r3,r16,20064c4 <__alt_mem_pic_mem+0xfe0024c4>
 20066b4:	017fe034 	movhi	r5,65408
 20066b8:	297fffc4 	addi	r5,r5,-1
 20066bc:	80e1c83a 	sub	r16,r16,r3
 20066c0:	994a703a 	and	r5,r19,r5
 20066c4:	003f3006 	br	2006388 <__alt_mem_pic_mem+0xfe002388>
 20066c8:	0009883a 	mov	r4,zero
 20066cc:	0005883a 	mov	r2,zero
 20066d0:	003f4506 	br	20063e8 <__alt_mem_pic_mem+0xfe0023e8>
 20066d4:	418cb03a 	or	r6,r8,r6
 20066d8:	300cc03a 	cmpne	r6,r6,zero
 20066dc:	0007883a 	mov	r3,zero
 20066e0:	003f6106 	br	2006468 <__alt_mem_pic_mem+0xfe002468>
 20066e4:	2000921e 	bne	r4,zero,2006930 <__adddf3+0x624>
 20066e8:	80800044 	addi	r2,r16,1
 20066ec:	11c1ffcc 	andi	r7,r2,2047
 20066f0:	01000044 	movi	r4,1
 20066f4:	21c0610e 	bge	r4,r7,200687c <__adddf3+0x570>
 20066f8:	0101ffc4 	movi	r4,2047
 20066fc:	1100a326 	beq	r2,r4,200698c <__adddf3+0x680>
 2006700:	344d883a 	add	r6,r6,r17
 2006704:	3463803a 	cmpltu	r17,r6,r17
 2006708:	414b883a 	add	r5,r8,r5
 200670c:	2c4b883a 	add	r5,r5,r17
 2006710:	282297fa 	slli	r17,r5,31
 2006714:	300cd07a 	srli	r6,r6,1
 2006718:	280ad07a 	srli	r5,r5,1
 200671c:	1021883a 	mov	r16,r2
 2006720:	89a2b03a 	or	r17,r17,r6
 2006724:	003f1806 	br	2006388 <__alt_mem_pic_mem+0xfe002388>
 2006728:	0081ffc4 	movi	r2,2047
 200672c:	80bf411e 	bne	r16,r2,2006434 <__alt_mem_pic_mem+0xfe002434>
 2006730:	003f1506 	br	2006388 <__alt_mem_pic_mem+0xfe002388>
 2006734:	80bff844 	addi	r2,r16,-31
 2006738:	00c00804 	movi	r3,32
 200673c:	9884d83a 	srl	r2,r19,r2
 2006740:	28c04a26 	beq	r5,r3,200686c <__adddf3+0x560>
 2006744:	00c00fc4 	movi	r3,63
 2006748:	1c21c83a 	sub	r16,r3,r16
 200674c:	9c26983a 	sll	r19,r19,r16
 2006750:	9c62b03a 	or	r17,r19,r17
 2006754:	8822c03a 	cmpne	r17,r17,zero
 2006758:	88a2b03a 	or	r17,r17,r2
 200675c:	000b883a 	mov	r5,zero
 2006760:	0021883a 	mov	r16,zero
 2006764:	003fb406 	br	2006638 <__alt_mem_pic_mem+0xfe002638>
 2006768:	18bff804 	addi	r2,r3,-32
 200676c:	01000804 	movi	r4,32
 2006770:	4084d83a 	srl	r2,r8,r2
 2006774:	19003f26 	beq	r3,r4,2006874 <__adddf3+0x568>
 2006778:	01001004 	movi	r4,64
 200677c:	20c7c83a 	sub	r3,r4,r3
 2006780:	40d0983a 	sll	r8,r8,r3
 2006784:	418cb03a 	or	r6,r8,r6
 2006788:	300cc03a 	cmpne	r6,r6,zero
 200678c:	308cb03a 	or	r6,r6,r2
 2006790:	0007883a 	mov	r3,zero
 2006794:	003f3406 	br	2006468 <__alt_mem_pic_mem+0xfe002468>
 2006798:	80002326 	beq	r16,zero,2006828 <__adddf3+0x51c>
 200679c:	0101ffc4 	movi	r4,2047
 20067a0:	11005e26 	beq	r2,r4,200691c <__adddf3+0x610>
 20067a4:	00c7c83a 	sub	r3,zero,r3
 20067a8:	29402034 	orhi	r5,r5,128
 20067ac:	01000e04 	movi	r4,56
 20067b0:	20c07216 	blt	r4,r3,200697c <__adddf3+0x670>
 20067b4:	010007c4 	movi	r4,31
 20067b8:	20c0ce16 	blt	r4,r3,2006af4 <__adddf3+0x7e8>
 20067bc:	01000804 	movi	r4,32
 20067c0:	20c9c83a 	sub	r4,r4,r3
 20067c4:	2914983a 	sll	r10,r5,r4
 20067c8:	88d2d83a 	srl	r9,r17,r3
 20067cc:	8908983a 	sll	r4,r17,r4
 20067d0:	28c6d83a 	srl	r3,r5,r3
 20067d4:	5262b03a 	or	r17,r10,r9
 20067d8:	2008c03a 	cmpne	r4,r4,zero
 20067dc:	8922b03a 	or	r17,r17,r4
 20067e0:	3463c83a 	sub	r17,r6,r17
 20067e4:	40c7c83a 	sub	r3,r8,r3
 20067e8:	344d803a 	cmpltu	r6,r6,r17
 20067ec:	198bc83a 	sub	r5,r3,r6
 20067f0:	1021883a 	mov	r16,r2
 20067f4:	3825883a 	mov	r18,r7
 20067f8:	003f2006 	br	200647c <__alt_mem_pic_mem+0xfe00247c>
 20067fc:	9886b03a 	or	r3,r19,r2
 2006800:	1800141e 	bne	r3,zero,2006854 <__adddf3+0x548>
 2006804:	0007883a 	mov	r3,zero
 2006808:	000b883a 	mov	r5,zero
 200680c:	0023883a 	mov	r17,zero
 2006810:	0021883a 	mov	r16,zero
 2006814:	003f3c06 	br	2006508 <__alt_mem_pic_mem+0xfe002508>
 2006818:	418cb03a 	or	r6,r8,r6
 200681c:	300cc03a 	cmpne	r6,r6,zero
 2006820:	0011883a 	mov	r8,zero
 2006824:	003f5606 	br	2006580 <__alt_mem_pic_mem+0xfe002580>
 2006828:	2c48b03a 	or	r4,r5,r17
 200682c:	20003b26 	beq	r4,zero,200691c <__adddf3+0x610>
 2006830:	00c6303a 	nor	r3,zero,r3
 2006834:	1800371e 	bne	r3,zero,2006914 <__adddf3+0x608>
 2006838:	3463c83a 	sub	r17,r6,r17
 200683c:	414bc83a 	sub	r5,r8,r5
 2006840:	344d803a 	cmpltu	r6,r6,r17
 2006844:	298bc83a 	sub	r5,r5,r6
 2006848:	1021883a 	mov	r16,r2
 200684c:	3825883a 	mov	r18,r7
 2006850:	003f0a06 	br	200647c <__alt_mem_pic_mem+0xfe00247c>
 2006854:	1023883a 	mov	r17,r2
 2006858:	003f0d06 	br	2006490 <__alt_mem_pic_mem+0xfe002490>
 200685c:	0007883a 	mov	r3,zero
 2006860:	000b883a 	mov	r5,zero
 2006864:	0023883a 	mov	r17,zero
 2006868:	003f2706 	br	2006508 <__alt_mem_pic_mem+0xfe002508>
 200686c:	0027883a 	mov	r19,zero
 2006870:	003fb706 	br	2006750 <__alt_mem_pic_mem+0xfe002750>
 2006874:	0011883a 	mov	r8,zero
 2006878:	003fc206 	br	2006784 <__alt_mem_pic_mem+0xfe002784>
 200687c:	2c44b03a 	or	r2,r5,r17
 2006880:	8000871e 	bne	r16,zero,2006aa0 <__adddf3+0x794>
 2006884:	1000b126 	beq	r2,zero,2006b4c <__adddf3+0x840>
 2006888:	4184b03a 	or	r2,r8,r6
 200688c:	103ebe26 	beq	r2,zero,2006388 <__alt_mem_pic_mem+0xfe002388>
 2006890:	3445883a 	add	r2,r6,r17
 2006894:	1463803a 	cmpltu	r17,r2,r17
 2006898:	414b883a 	add	r5,r8,r5
 200689c:	2c4b883a 	add	r5,r5,r17
 20068a0:	28c0202c 	andhi	r3,r5,128
 20068a4:	1023883a 	mov	r17,r2
 20068a8:	183f6326 	beq	r3,zero,2006638 <__alt_mem_pic_mem+0xfe002638>
 20068ac:	00bfe034 	movhi	r2,65408
 20068b0:	10bfffc4 	addi	r2,r2,-1
 20068b4:	2021883a 	mov	r16,r4
 20068b8:	288a703a 	and	r5,r5,r2
 20068bc:	003eb206 	br	2006388 <__alt_mem_pic_mem+0xfe002388>
 20068c0:	2c44b03a 	or	r2,r5,r17
 20068c4:	8000251e 	bne	r16,zero,200695c <__adddf3+0x650>
 20068c8:	10004b1e 	bne	r2,zero,20069f8 <__adddf3+0x6ec>
 20068cc:	4184b03a 	or	r2,r8,r6
 20068d0:	103fe226 	beq	r2,zero,200685c <__alt_mem_pic_mem+0xfe00285c>
 20068d4:	400b883a 	mov	r5,r8
 20068d8:	3023883a 	mov	r17,r6
 20068dc:	3825883a 	mov	r18,r7
 20068e0:	003ea906 	br	2006388 <__alt_mem_pic_mem+0xfe002388>
 20068e4:	20bff804 	addi	r2,r4,-32
 20068e8:	01c00804 	movi	r7,32
 20068ec:	4084d83a 	srl	r2,r8,r2
 20068f0:	21c07e26 	beq	r4,r7,2006aec <__adddf3+0x7e0>
 20068f4:	01c01004 	movi	r7,64
 20068f8:	3909c83a 	sub	r4,r7,r4
 20068fc:	4110983a 	sll	r8,r8,r4
 2006900:	418cb03a 	or	r6,r8,r6
 2006904:	300cc03a 	cmpne	r6,r6,zero
 2006908:	308cb03a 	or	r6,r6,r2
 200690c:	0011883a 	mov	r8,zero
 2006910:	003f1b06 	br	2006580 <__alt_mem_pic_mem+0xfe002580>
 2006914:	0101ffc4 	movi	r4,2047
 2006918:	113fa41e 	bne	r2,r4,20067ac <__alt_mem_pic_mem+0xfe0027ac>
 200691c:	400b883a 	mov	r5,r8
 2006920:	3023883a 	mov	r17,r6
 2006924:	1021883a 	mov	r16,r2
 2006928:	3825883a 	mov	r18,r7
 200692c:	003e9606 	br	2006388 <__alt_mem_pic_mem+0xfe002388>
 2006930:	80001a1e 	bne	r16,zero,200699c <__adddf3+0x690>
 2006934:	2c4eb03a 	or	r7,r5,r17
 2006938:	38005526 	beq	r7,zero,2006a90 <__adddf3+0x784>
 200693c:	0108303a 	nor	r4,zero,r4
 2006940:	2000511e 	bne	r4,zero,2006a88 <__adddf3+0x77c>
 2006944:	89a3883a 	add	r17,r17,r6
 2006948:	414b883a 	add	r5,r8,r5
 200694c:	898d803a 	cmpltu	r6,r17,r6
 2006950:	298b883a 	add	r5,r5,r6
 2006954:	1021883a 	mov	r16,r2
 2006958:	003f0e06 	br	2006594 <__alt_mem_pic_mem+0xfe002594>
 200695c:	1000341e 	bne	r2,zero,2006a30 <__adddf3+0x724>
 2006960:	4184b03a 	or	r2,r8,r6
 2006964:	10006f26 	beq	r2,zero,2006b24 <__adddf3+0x818>
 2006968:	400b883a 	mov	r5,r8
 200696c:	3023883a 	mov	r17,r6
 2006970:	3825883a 	mov	r18,r7
 2006974:	0401ffc4 	movi	r16,2047
 2006978:	003e8306 	br	2006388 <__alt_mem_pic_mem+0xfe002388>
 200697c:	2c62b03a 	or	r17,r5,r17
 2006980:	8822c03a 	cmpne	r17,r17,zero
 2006984:	0007883a 	mov	r3,zero
 2006988:	003f9506 	br	20067e0 <__alt_mem_pic_mem+0xfe0027e0>
 200698c:	1021883a 	mov	r16,r2
 2006990:	000b883a 	mov	r5,zero
 2006994:	0023883a 	mov	r17,zero
 2006998:	003edb06 	br	2006508 <__alt_mem_pic_mem+0xfe002508>
 200699c:	01c1ffc4 	movi	r7,2047
 20069a0:	11c03b26 	beq	r2,r7,2006a90 <__adddf3+0x784>
 20069a4:	0109c83a 	sub	r4,zero,r4
 20069a8:	29402034 	orhi	r5,r5,128
 20069ac:	01c00e04 	movi	r7,56
 20069b0:	39006216 	blt	r7,r4,2006b3c <__adddf3+0x830>
 20069b4:	01c007c4 	movi	r7,31
 20069b8:	39006b16 	blt	r7,r4,2006b68 <__adddf3+0x85c>
 20069bc:	01c00804 	movi	r7,32
 20069c0:	390fc83a 	sub	r7,r7,r4
 20069c4:	29d4983a 	sll	r10,r5,r7
 20069c8:	8912d83a 	srl	r9,r17,r4
 20069cc:	89ce983a 	sll	r7,r17,r7
 20069d0:	2908d83a 	srl	r4,r5,r4
 20069d4:	5262b03a 	or	r17,r10,r9
 20069d8:	380ac03a 	cmpne	r5,r7,zero
 20069dc:	8962b03a 	or	r17,r17,r5
 20069e0:	89a3883a 	add	r17,r17,r6
 20069e4:	2211883a 	add	r8,r4,r8
 20069e8:	898d803a 	cmpltu	r6,r17,r6
 20069ec:	418b883a 	add	r5,r8,r6
 20069f0:	1021883a 	mov	r16,r2
 20069f4:	003ee706 	br	2006594 <__alt_mem_pic_mem+0xfe002594>
 20069f8:	4184b03a 	or	r2,r8,r6
 20069fc:	103e6226 	beq	r2,zero,2006388 <__alt_mem_pic_mem+0xfe002388>
 2006a00:	8987c83a 	sub	r3,r17,r6
 2006a04:	88c9803a 	cmpltu	r4,r17,r3
 2006a08:	2a05c83a 	sub	r2,r5,r8
 2006a0c:	1105c83a 	sub	r2,r2,r4
 2006a10:	1100202c 	andhi	r4,r2,128
 2006a14:	203f0426 	beq	r4,zero,2006628 <__alt_mem_pic_mem+0xfe002628>
 2006a18:	3463c83a 	sub	r17,r6,r17
 2006a1c:	414bc83a 	sub	r5,r8,r5
 2006a20:	344d803a 	cmpltu	r6,r6,r17
 2006a24:	298bc83a 	sub	r5,r5,r6
 2006a28:	3825883a 	mov	r18,r7
 2006a2c:	003e5606 	br	2006388 <__alt_mem_pic_mem+0xfe002388>
 2006a30:	4184b03a 	or	r2,r8,r6
 2006a34:	10002b26 	beq	r2,zero,2006ae4 <__adddf3+0x7d8>
 2006a38:	2804d0fa 	srli	r2,r5,3
 2006a3c:	8822d0fa 	srli	r17,r17,3
 2006a40:	280a977a 	slli	r5,r5,29
 2006a44:	10c0022c 	andhi	r3,r2,8
 2006a48:	2c62b03a 	or	r17,r5,r17
 2006a4c:	18000826 	beq	r3,zero,2006a70 <__adddf3+0x764>
 2006a50:	4008d0fa 	srli	r4,r8,3
 2006a54:	20c0022c 	andhi	r3,r4,8
 2006a58:	1800051e 	bne	r3,zero,2006a70 <__adddf3+0x764>
 2006a5c:	300cd0fa 	srli	r6,r6,3
 2006a60:	4010977a 	slli	r8,r8,29
 2006a64:	2005883a 	mov	r2,r4
 2006a68:	3825883a 	mov	r18,r7
 2006a6c:	41a2b03a 	or	r17,r8,r6
 2006a70:	880ad77a 	srli	r5,r17,29
 2006a74:	100490fa 	slli	r2,r2,3
 2006a78:	882290fa 	slli	r17,r17,3
 2006a7c:	0401ffc4 	movi	r16,2047
 2006a80:	288ab03a 	or	r5,r5,r2
 2006a84:	003e4006 	br	2006388 <__alt_mem_pic_mem+0xfe002388>
 2006a88:	01c1ffc4 	movi	r7,2047
 2006a8c:	11ffc71e 	bne	r2,r7,20069ac <__alt_mem_pic_mem+0xfe0029ac>
 2006a90:	400b883a 	mov	r5,r8
 2006a94:	3023883a 	mov	r17,r6
 2006a98:	1021883a 	mov	r16,r2
 2006a9c:	003e3a06 	br	2006388 <__alt_mem_pic_mem+0xfe002388>
 2006aa0:	10002d26 	beq	r2,zero,2006b58 <__adddf3+0x84c>
 2006aa4:	4184b03a 	or	r2,r8,r6
 2006aa8:	10000e26 	beq	r2,zero,2006ae4 <__adddf3+0x7d8>
 2006aac:	2804d0fa 	srli	r2,r5,3
 2006ab0:	8822d0fa 	srli	r17,r17,3
 2006ab4:	280a977a 	slli	r5,r5,29
 2006ab8:	10c0022c 	andhi	r3,r2,8
 2006abc:	2c62b03a 	or	r17,r5,r17
 2006ac0:	183feb26 	beq	r3,zero,2006a70 <__alt_mem_pic_mem+0xfe002a70>
 2006ac4:	4008d0fa 	srli	r4,r8,3
 2006ac8:	20c0022c 	andhi	r3,r4,8
 2006acc:	183fe81e 	bne	r3,zero,2006a70 <__alt_mem_pic_mem+0xfe002a70>
 2006ad0:	300cd0fa 	srli	r6,r6,3
 2006ad4:	4010977a 	slli	r8,r8,29
 2006ad8:	2005883a 	mov	r2,r4
 2006adc:	41a2b03a 	or	r17,r8,r6
 2006ae0:	003fe306 	br	2006a70 <__alt_mem_pic_mem+0xfe002a70>
 2006ae4:	0401ffc4 	movi	r16,2047
 2006ae8:	003e2706 	br	2006388 <__alt_mem_pic_mem+0xfe002388>
 2006aec:	0011883a 	mov	r8,zero
 2006af0:	003f8306 	br	2006900 <__alt_mem_pic_mem+0xfe002900>
 2006af4:	193ff804 	addi	r4,r3,-32
 2006af8:	02400804 	movi	r9,32
 2006afc:	2908d83a 	srl	r4,r5,r4
 2006b00:	1a402526 	beq	r3,r9,2006b98 <__adddf3+0x88c>
 2006b04:	02401004 	movi	r9,64
 2006b08:	48c7c83a 	sub	r3,r9,r3
 2006b0c:	28ca983a 	sll	r5,r5,r3
 2006b10:	2c62b03a 	or	r17,r5,r17
 2006b14:	8822c03a 	cmpne	r17,r17,zero
 2006b18:	8922b03a 	or	r17,r17,r4
 2006b1c:	0007883a 	mov	r3,zero
 2006b20:	003f2f06 	br	20067e0 <__alt_mem_pic_mem+0xfe0027e0>
 2006b24:	01402034 	movhi	r5,128
 2006b28:	0007883a 	mov	r3,zero
 2006b2c:	297fffc4 	addi	r5,r5,-1
 2006b30:	047ffe04 	movi	r17,-8
 2006b34:	0401ffc4 	movi	r16,2047
 2006b38:	003e7306 	br	2006508 <__alt_mem_pic_mem+0xfe002508>
 2006b3c:	2c62b03a 	or	r17,r5,r17
 2006b40:	8822c03a 	cmpne	r17,r17,zero
 2006b44:	0009883a 	mov	r4,zero
 2006b48:	003fa506 	br	20069e0 <__alt_mem_pic_mem+0xfe0029e0>
 2006b4c:	400b883a 	mov	r5,r8
 2006b50:	3023883a 	mov	r17,r6
 2006b54:	003e0c06 	br	2006388 <__alt_mem_pic_mem+0xfe002388>
 2006b58:	400b883a 	mov	r5,r8
 2006b5c:	3023883a 	mov	r17,r6
 2006b60:	0401ffc4 	movi	r16,2047
 2006b64:	003e0806 	br	2006388 <__alt_mem_pic_mem+0xfe002388>
 2006b68:	21fff804 	addi	r7,r4,-32
 2006b6c:	02400804 	movi	r9,32
 2006b70:	29ced83a 	srl	r7,r5,r7
 2006b74:	22400a26 	beq	r4,r9,2006ba0 <__adddf3+0x894>
 2006b78:	02401004 	movi	r9,64
 2006b7c:	4909c83a 	sub	r4,r9,r4
 2006b80:	290a983a 	sll	r5,r5,r4
 2006b84:	2c62b03a 	or	r17,r5,r17
 2006b88:	8822c03a 	cmpne	r17,r17,zero
 2006b8c:	89e2b03a 	or	r17,r17,r7
 2006b90:	0009883a 	mov	r4,zero
 2006b94:	003f9206 	br	20069e0 <__alt_mem_pic_mem+0xfe0029e0>
 2006b98:	000b883a 	mov	r5,zero
 2006b9c:	003fdc06 	br	2006b10 <__alt_mem_pic_mem+0xfe002b10>
 2006ba0:	000b883a 	mov	r5,zero
 2006ba4:	003ff706 	br	2006b84 <__alt_mem_pic_mem+0xfe002b84>

02006ba8 <__divdf3>:
 2006ba8:	defff204 	addi	sp,sp,-56
 2006bac:	dd000815 	stw	r20,32(sp)
 2006bb0:	2828d53a 	srli	r20,r5,20
 2006bb4:	dd800a15 	stw	r22,40(sp)
 2006bb8:	282cd7fa 	srli	r22,r5,31
 2006bbc:	dc000415 	stw	r16,16(sp)
 2006bc0:	04000434 	movhi	r16,16
 2006bc4:	df000c15 	stw	fp,48(sp)
 2006bc8:	dcc00715 	stw	r19,28(sp)
 2006bcc:	dc800615 	stw	r18,24(sp)
 2006bd0:	dc400515 	stw	r17,20(sp)
 2006bd4:	843fffc4 	addi	r16,r16,-1
 2006bd8:	dfc00d15 	stw	ra,52(sp)
 2006bdc:	ddc00b15 	stw	r23,44(sp)
 2006be0:	dd400915 	stw	r21,36(sp)
 2006be4:	a501ffcc 	andi	r20,r20,2047
 2006be8:	2025883a 	mov	r18,r4
 2006bec:	2027883a 	mov	r19,r4
 2006bf0:	2c22703a 	and	r17,r5,r16
 2006bf4:	b7003fcc 	andi	fp,r22,255
 2006bf8:	a0005e26 	beq	r20,zero,2006d74 <__divdf3+0x1cc>
 2006bfc:	0081ffc4 	movi	r2,2047
 2006c00:	a0803526 	beq	r20,r2,2006cd8 <__divdf3+0x130>
 2006c04:	8c000434 	orhi	r16,r17,16
 2006c08:	2004d77a 	srli	r2,r4,29
 2006c0c:	802090fa 	slli	r16,r16,3
 2006c10:	202690fa 	slli	r19,r4,3
 2006c14:	a53f0044 	addi	r20,r20,-1023
 2006c18:	80a2b03a 	or	r17,r16,r2
 2006c1c:	0025883a 	mov	r18,zero
 2006c20:	0011883a 	mov	r8,zero
 2006c24:	380ad53a 	srli	r5,r7,20
 2006c28:	382ed7fa 	srli	r23,r7,31
 2006c2c:	04000434 	movhi	r16,16
 2006c30:	843fffc4 	addi	r16,r16,-1
 2006c34:	2941ffcc 	andi	r5,r5,2047
 2006c38:	302b883a 	mov	r21,r6
 2006c3c:	3c20703a 	and	r16,r7,r16
 2006c40:	ba403fcc 	andi	r9,r23,255
 2006c44:	28006726 	beq	r5,zero,2006de4 <__divdf3+0x23c>
 2006c48:	0081ffc4 	movi	r2,2047
 2006c4c:	28805f26 	beq	r5,r2,2006dcc <__divdf3+0x224>
 2006c50:	84000434 	orhi	r16,r16,16
 2006c54:	3004d77a 	srli	r2,r6,29
 2006c58:	802090fa 	slli	r16,r16,3
 2006c5c:	302a90fa 	slli	r21,r6,3
 2006c60:	297f0044 	addi	r5,r5,-1023
 2006c64:	80a0b03a 	or	r16,r16,r2
 2006c68:	000f883a 	mov	r7,zero
 2006c6c:	3c86b03a 	or	r3,r7,r18
 2006c70:	180690ba 	slli	r3,r3,2
 2006c74:	00808034 	movhi	r2,512
 2006c78:	109b2604 	addi	r2,r2,27800
 2006c7c:	1887883a 	add	r3,r3,r2
 2006c80:	18c00017 	ldw	r3,0(r3)
 2006c84:	b5c8f03a 	xor	r4,r22,r23
 2006c88:	200d883a 	mov	r6,r4
 2006c8c:	24803fcc 	andi	r18,r4,255
 2006c90:	a169c83a 	sub	r20,r20,r5
 2006c94:	1800683a 	jmp	r3
 2006c98:	02006ee0 	cmpeqi	r8,zero,443
 2006c9c:	02006d10 	cmplti	r8,zero,436
 2006ca0:	02006ea4 	muli	r8,zero,442
 2006ca4:	02006cf4 	movhi	r8,435
 2006ca8:	02006ea4 	muli	r8,zero,442
 2006cac:	02006e78 	rdprs	r8,zero,441
 2006cb0:	02006ea4 	muli	r8,zero,442
 2006cb4:	02006cf4 	movhi	r8,435
 2006cb8:	02006d10 	cmplti	r8,zero,436
 2006cbc:	02006d10 	cmplti	r8,zero,436
 2006cc0:	02006e78 	rdprs	r8,zero,441
 2006cc4:	02006cf4 	movhi	r8,435
 2006cc8:	02006d04 	movi	r8,436
 2006ccc:	02006d04 	movi	r8,436
 2006cd0:	02006d04 	movi	r8,436
 2006cd4:	02006eb4 	movhi	r8,442
 2006cd8:	8904b03a 	or	r2,r17,r4
 2006cdc:	1000631e 	bne	r2,zero,2006e6c <__divdf3+0x2c4>
 2006ce0:	04800204 	movi	r18,8
 2006ce4:	0023883a 	mov	r17,zero
 2006ce8:	0027883a 	mov	r19,zero
 2006cec:	02000084 	movi	r8,2
 2006cf0:	003fcc06 	br	2006c24 <__alt_mem_pic_mem+0xfe002c24>
 2006cf4:	8023883a 	mov	r17,r16
 2006cf8:	a827883a 	mov	r19,r21
 2006cfc:	4839883a 	mov	fp,r9
 2006d00:	3811883a 	mov	r8,r7
 2006d04:	00800084 	movi	r2,2
 2006d08:	40812a1e 	bne	r8,r2,20071b4 <__divdf3+0x60c>
 2006d0c:	e025883a 	mov	r18,fp
 2006d10:	9180004c 	andi	r6,r18,1
 2006d14:	0101ffc4 	movi	r4,2047
 2006d18:	000b883a 	mov	r5,zero
 2006d1c:	0027883a 	mov	r19,zero
 2006d20:	2008953a 	slli	r4,r4,20
 2006d24:	30c03fcc 	andi	r3,r6,255
 2006d28:	04000434 	movhi	r16,16
 2006d2c:	180697fa 	slli	r3,r3,31
 2006d30:	843fffc4 	addi	r16,r16,-1
 2006d34:	2c20703a 	and	r16,r5,r16
 2006d38:	8120b03a 	or	r16,r16,r4
 2006d3c:	80c6b03a 	or	r3,r16,r3
 2006d40:	9805883a 	mov	r2,r19
 2006d44:	dfc00d17 	ldw	ra,52(sp)
 2006d48:	df000c17 	ldw	fp,48(sp)
 2006d4c:	ddc00b17 	ldw	r23,44(sp)
 2006d50:	dd800a17 	ldw	r22,40(sp)
 2006d54:	dd400917 	ldw	r21,36(sp)
 2006d58:	dd000817 	ldw	r20,32(sp)
 2006d5c:	dcc00717 	ldw	r19,28(sp)
 2006d60:	dc800617 	ldw	r18,24(sp)
 2006d64:	dc400517 	ldw	r17,20(sp)
 2006d68:	dc000417 	ldw	r16,16(sp)
 2006d6c:	dec00e04 	addi	sp,sp,56
 2006d70:	f800283a 	ret
 2006d74:	8904b03a 	or	r2,r17,r4
 2006d78:	10003726 	beq	r2,zero,2006e58 <__divdf3+0x2b0>
 2006d7c:	88011c26 	beq	r17,zero,20071f0 <__divdf3+0x648>
 2006d80:	8809883a 	mov	r4,r17
 2006d84:	d9800315 	stw	r6,12(sp)
 2006d88:	d9c00115 	stw	r7,4(sp)
 2006d8c:	20086a00 	call	20086a0 <__clzsi2>
 2006d90:	d9800317 	ldw	r6,12(sp)
 2006d94:	d9c00117 	ldw	r7,4(sp)
 2006d98:	1007883a 	mov	r3,r2
 2006d9c:	01000a04 	movi	r4,40
 2006da0:	1cfffe04 	addi	r19,r3,-8
 2006da4:	20c9c83a 	sub	r4,r4,r3
 2006da8:	8cca983a 	sll	r5,r17,r19
 2006dac:	9108d83a 	srl	r4,r18,r4
 2006db0:	94e6983a 	sll	r19,r18,r19
 2006db4:	2162b03a 	or	r17,r4,r5
 2006db8:	053f0344 	movi	r20,-1011
 2006dbc:	a0e9c83a 	sub	r20,r20,r3
 2006dc0:	0025883a 	mov	r18,zero
 2006dc4:	0011883a 	mov	r8,zero
 2006dc8:	003f9606 	br	2006c24 <__alt_mem_pic_mem+0xfe002c24>
 2006dcc:	8184b03a 	or	r2,r16,r6
 2006dd0:	10001f1e 	bne	r2,zero,2006e50 <__divdf3+0x2a8>
 2006dd4:	0021883a 	mov	r16,zero
 2006dd8:	002b883a 	mov	r21,zero
 2006ddc:	01c00084 	movi	r7,2
 2006de0:	003fa206 	br	2006c6c <__alt_mem_pic_mem+0xfe002c6c>
 2006de4:	8184b03a 	or	r2,r16,r6
 2006de8:	10001526 	beq	r2,zero,2006e40 <__divdf3+0x298>
 2006dec:	80010c26 	beq	r16,zero,2007220 <__divdf3+0x678>
 2006df0:	8009883a 	mov	r4,r16
 2006df4:	d9800315 	stw	r6,12(sp)
 2006df8:	da000215 	stw	r8,8(sp)
 2006dfc:	da400015 	stw	r9,0(sp)
 2006e00:	20086a00 	call	20086a0 <__clzsi2>
 2006e04:	d9800317 	ldw	r6,12(sp)
 2006e08:	da000217 	ldw	r8,8(sp)
 2006e0c:	da400017 	ldw	r9,0(sp)
 2006e10:	1007883a 	mov	r3,r2
 2006e14:	01000a04 	movi	r4,40
 2006e18:	1d7ffe04 	addi	r21,r3,-8
 2006e1c:	20c9c83a 	sub	r4,r4,r3
 2006e20:	8560983a 	sll	r16,r16,r21
 2006e24:	3108d83a 	srl	r4,r6,r4
 2006e28:	356a983a 	sll	r21,r6,r21
 2006e2c:	2420b03a 	or	r16,r4,r16
 2006e30:	017f0344 	movi	r5,-1011
 2006e34:	28cbc83a 	sub	r5,r5,r3
 2006e38:	000f883a 	mov	r7,zero
 2006e3c:	003f8b06 	br	2006c6c <__alt_mem_pic_mem+0xfe002c6c>
 2006e40:	0021883a 	mov	r16,zero
 2006e44:	002b883a 	mov	r21,zero
 2006e48:	01c00044 	movi	r7,1
 2006e4c:	003f8706 	br	2006c6c <__alt_mem_pic_mem+0xfe002c6c>
 2006e50:	01c000c4 	movi	r7,3
 2006e54:	003f8506 	br	2006c6c <__alt_mem_pic_mem+0xfe002c6c>
 2006e58:	04800104 	movi	r18,4
 2006e5c:	0023883a 	mov	r17,zero
 2006e60:	0027883a 	mov	r19,zero
 2006e64:	02000044 	movi	r8,1
 2006e68:	003f6e06 	br	2006c24 <__alt_mem_pic_mem+0xfe002c24>
 2006e6c:	04800304 	movi	r18,12
 2006e70:	020000c4 	movi	r8,3
 2006e74:	003f6b06 	br	2006c24 <__alt_mem_pic_mem+0xfe002c24>
 2006e78:	01400434 	movhi	r5,16
 2006e7c:	000d883a 	mov	r6,zero
 2006e80:	297fffc4 	addi	r5,r5,-1
 2006e84:	04ffffc4 	movi	r19,-1
 2006e88:	0101ffc4 	movi	r4,2047
 2006e8c:	003fa406 	br	2006d20 <__alt_mem_pic_mem+0xfe002d20>
 2006e90:	043f0084 	movi	r16,-1022
 2006e94:	8521c83a 	sub	r16,r16,r20
 2006e98:	00800e04 	movi	r2,56
 2006e9c:	1401200e 	bge	r2,r16,2007320 <__divdf3+0x778>
 2006ea0:	9180004c 	andi	r6,r18,1
 2006ea4:	0009883a 	mov	r4,zero
 2006ea8:	000b883a 	mov	r5,zero
 2006eac:	0027883a 	mov	r19,zero
 2006eb0:	003f9b06 	br	2006d20 <__alt_mem_pic_mem+0xfe002d20>
 2006eb4:	8880022c 	andhi	r2,r17,8
 2006eb8:	1000c726 	beq	r2,zero,20071d8 <__divdf3+0x630>
 2006ebc:	8080022c 	andhi	r2,r16,8
 2006ec0:	1000c51e 	bne	r2,zero,20071d8 <__divdf3+0x630>
 2006ec4:	00800434 	movhi	r2,16
 2006ec8:	81400234 	orhi	r5,r16,8
 2006ecc:	10bfffc4 	addi	r2,r2,-1
 2006ed0:	b80d883a 	mov	r6,r23
 2006ed4:	288a703a 	and	r5,r5,r2
 2006ed8:	a827883a 	mov	r19,r21
 2006edc:	003fea06 	br	2006e88 <__alt_mem_pic_mem+0xfe002e88>
 2006ee0:	8440ea36 	bltu	r16,r17,200728c <__divdf3+0x6e4>
 2006ee4:	8c00e826 	beq	r17,r16,2007288 <__divdf3+0x6e0>
 2006ee8:	a53fffc4 	addi	r20,r20,-1
 2006eec:	882d883a 	mov	r22,r17
 2006ef0:	000d883a 	mov	r6,zero
 2006ef4:	a804d63a 	srli	r2,r21,24
 2006ef8:	8020923a 	slli	r16,r16,8
 2006efc:	b009883a 	mov	r4,r22
 2006f00:	d9800315 	stw	r6,12(sp)
 2006f04:	1420b03a 	or	r16,r2,r16
 2006f08:	802ed43a 	srli	r23,r16,16
 2006f0c:	873fffcc 	andi	fp,r16,65535
 2006f10:	a82a923a 	slli	r21,r21,8
 2006f14:	b80b883a 	mov	r5,r23
 2006f18:	20062fc0 	call	20062fc <__udivsi3>
 2006f1c:	b009883a 	mov	r4,r22
 2006f20:	b80b883a 	mov	r5,r23
 2006f24:	1023883a 	mov	r17,r2
 2006f28:	20063040 	call	2006304 <__umodsi3>
 2006f2c:	1004943a 	slli	r2,r2,16
 2006f30:	9808d43a 	srli	r4,r19,16
 2006f34:	8f2d383a 	mul	r22,r17,fp
 2006f38:	d9800317 	ldw	r6,12(sp)
 2006f3c:	1106b03a 	or	r3,r2,r4
 2006f40:	1d80062e 	bgeu	r3,r22,2006f5c <__divdf3+0x3b4>
 2006f44:	1c07883a 	add	r3,r3,r16
 2006f48:	88bfffc4 	addi	r2,r17,-1
 2006f4c:	1c00dc36 	bltu	r3,r16,20072c0 <__divdf3+0x718>
 2006f50:	1d80db2e 	bgeu	r3,r22,20072c0 <__divdf3+0x718>
 2006f54:	8c7fff84 	addi	r17,r17,-2
 2006f58:	1c07883a 	add	r3,r3,r16
 2006f5c:	1dadc83a 	sub	r22,r3,r22
 2006f60:	b009883a 	mov	r4,r22
 2006f64:	b80b883a 	mov	r5,r23
 2006f68:	d9800315 	stw	r6,12(sp)
 2006f6c:	20062fc0 	call	20062fc <__udivsi3>
 2006f70:	b009883a 	mov	r4,r22
 2006f74:	b80b883a 	mov	r5,r23
 2006f78:	d8800015 	stw	r2,0(sp)
 2006f7c:	20063040 	call	2006304 <__umodsi3>
 2006f80:	da400017 	ldw	r9,0(sp)
 2006f84:	1004943a 	slli	r2,r2,16
 2006f88:	9cffffcc 	andi	r19,r19,65535
 2006f8c:	4f07383a 	mul	r3,r9,fp
 2006f90:	14c8b03a 	or	r4,r2,r19
 2006f94:	d9800317 	ldw	r6,12(sp)
 2006f98:	20c0062e 	bgeu	r4,r3,2006fb4 <__divdf3+0x40c>
 2006f9c:	2409883a 	add	r4,r4,r16
 2006fa0:	48bfffc4 	addi	r2,r9,-1
 2006fa4:	2400c436 	bltu	r4,r16,20072b8 <__divdf3+0x710>
 2006fa8:	20c0c32e 	bgeu	r4,r3,20072b8 <__divdf3+0x710>
 2006fac:	4a7fff84 	addi	r9,r9,-2
 2006fb0:	2409883a 	add	r4,r4,r16
 2006fb4:	8822943a 	slli	r17,r17,16
 2006fb8:	a80ed43a 	srli	r7,r21,16
 2006fbc:	aa3fffcc 	andi	r8,r21,65535
 2006fc0:	4c62b03a 	or	r17,r9,r17
 2006fc4:	8816d43a 	srli	r11,r17,16
 2006fc8:	897fffcc 	andi	r5,r17,65535
 2006fcc:	2a15383a 	mul	r10,r5,r8
 2006fd0:	5a19383a 	mul	r12,r11,r8
 2006fd4:	29cb383a 	mul	r5,r5,r7
 2006fd8:	5012d43a 	srli	r9,r10,16
 2006fdc:	20c5c83a 	sub	r2,r4,r3
 2006fe0:	614b883a 	add	r5,r12,r5
 2006fe4:	2a4b883a 	add	r5,r5,r9
 2006fe8:	59c7383a 	mul	r3,r11,r7
 2006fec:	2b00022e 	bgeu	r5,r12,2006ff8 <__divdf3+0x450>
 2006ff0:	01000074 	movhi	r4,1
 2006ff4:	1907883a 	add	r3,r3,r4
 2006ff8:	2808d43a 	srli	r4,r5,16
 2006ffc:	280a943a 	slli	r5,r5,16
 2007000:	54ffffcc 	andi	r19,r10,65535
 2007004:	1907883a 	add	r3,r3,r4
 2007008:	2ccb883a 	add	r5,r5,r19
 200700c:	10c09336 	bltu	r2,r3,200725c <__divdf3+0x6b4>
 2007010:	10c0ad26 	beq	r2,r3,20072c8 <__divdf3+0x720>
 2007014:	10c7c83a 	sub	r3,r2,r3
 2007018:	3167c83a 	sub	r19,r6,r5
 200701c:	34ed803a 	cmpltu	r22,r6,r19
 2007020:	1dadc83a 	sub	r22,r3,r22
 2007024:	b400b226 	beq	r22,r16,20072f0 <__divdf3+0x748>
 2007028:	b009883a 	mov	r4,r22
 200702c:	b80b883a 	mov	r5,r23
 2007030:	d9c00115 	stw	r7,4(sp)
 2007034:	da000215 	stw	r8,8(sp)
 2007038:	20062fc0 	call	20062fc <__udivsi3>
 200703c:	b009883a 	mov	r4,r22
 2007040:	b80b883a 	mov	r5,r23
 2007044:	d8800315 	stw	r2,12(sp)
 2007048:	20063040 	call	2006304 <__umodsi3>
 200704c:	d9800317 	ldw	r6,12(sp)
 2007050:	1004943a 	slli	r2,r2,16
 2007054:	9808d43a 	srli	r4,r19,16
 2007058:	372d383a 	mul	r22,r6,fp
 200705c:	d9c00117 	ldw	r7,4(sp)
 2007060:	1106b03a 	or	r3,r2,r4
 2007064:	da000217 	ldw	r8,8(sp)
 2007068:	1d80062e 	bgeu	r3,r22,2007084 <__divdf3+0x4dc>
 200706c:	1c07883a 	add	r3,r3,r16
 2007070:	30bfffc4 	addi	r2,r6,-1
 2007074:	1c00a036 	bltu	r3,r16,20072f8 <__divdf3+0x750>
 2007078:	1d809f2e 	bgeu	r3,r22,20072f8 <__divdf3+0x750>
 200707c:	31bfff84 	addi	r6,r6,-2
 2007080:	1c07883a 	add	r3,r3,r16
 2007084:	1dadc83a 	sub	r22,r3,r22
 2007088:	b009883a 	mov	r4,r22
 200708c:	b80b883a 	mov	r5,r23
 2007090:	d9800315 	stw	r6,12(sp)
 2007094:	d9c00115 	stw	r7,4(sp)
 2007098:	da000215 	stw	r8,8(sp)
 200709c:	20062fc0 	call	20062fc <__udivsi3>
 20070a0:	b009883a 	mov	r4,r22
 20070a4:	b80b883a 	mov	r5,r23
 20070a8:	d8800015 	stw	r2,0(sp)
 20070ac:	20063040 	call	2006304 <__umodsi3>
 20070b0:	da400017 	ldw	r9,0(sp)
 20070b4:	1004943a 	slli	r2,r2,16
 20070b8:	993fffcc 	andi	r4,r19,65535
 20070bc:	4f39383a 	mul	fp,r9,fp
 20070c0:	1106b03a 	or	r3,r2,r4
 20070c4:	d9800317 	ldw	r6,12(sp)
 20070c8:	d9c00117 	ldw	r7,4(sp)
 20070cc:	da000217 	ldw	r8,8(sp)
 20070d0:	1f00062e 	bgeu	r3,fp,20070ec <__divdf3+0x544>
 20070d4:	1c07883a 	add	r3,r3,r16
 20070d8:	48bfffc4 	addi	r2,r9,-1
 20070dc:	1c008836 	bltu	r3,r16,2007300 <__divdf3+0x758>
 20070e0:	1f00872e 	bgeu	r3,fp,2007300 <__divdf3+0x758>
 20070e4:	4a7fff84 	addi	r9,r9,-2
 20070e8:	1c07883a 	add	r3,r3,r16
 20070ec:	3008943a 	slli	r4,r6,16
 20070f0:	1f07c83a 	sub	r3,r3,fp
 20070f4:	4926b03a 	or	r19,r9,r4
 20070f8:	993fffcc 	andi	r4,r19,65535
 20070fc:	980cd43a 	srli	r6,r19,16
 2007100:	220b383a 	mul	r5,r4,r8
 2007104:	21c5383a 	mul	r2,r4,r7
 2007108:	3211383a 	mul	r8,r6,r8
 200710c:	2808d43a 	srli	r4,r5,16
 2007110:	31cf383a 	mul	r7,r6,r7
 2007114:	4085883a 	add	r2,r8,r2
 2007118:	1105883a 	add	r2,r2,r4
 200711c:	1200022e 	bgeu	r2,r8,2007128 <__divdf3+0x580>
 2007120:	01000074 	movhi	r4,1
 2007124:	390f883a 	add	r7,r7,r4
 2007128:	1008d43a 	srli	r4,r2,16
 200712c:	1004943a 	slli	r2,r2,16
 2007130:	297fffcc 	andi	r5,r5,65535
 2007134:	390f883a 	add	r7,r7,r4
 2007138:	1145883a 	add	r2,r2,r5
 200713c:	19c06536 	bltu	r3,r7,20072d4 <__divdf3+0x72c>
 2007140:	19c09f26 	beq	r3,r7,20073c0 <__divdf3+0x818>
 2007144:	9cc00054 	ori	r19,r19,1
 2007148:	a100ffc4 	addi	r4,r20,1023
 200714c:	013f500e 	bge	zero,r4,2006e90 <__alt_mem_pic_mem+0xfe002e90>
 2007150:	988001cc 	andi	r2,r19,7
 2007154:	10000726 	beq	r2,zero,2007174 <__divdf3+0x5cc>
 2007158:	98c003cc 	andi	r3,r19,15
 200715c:	00800104 	movi	r2,4
 2007160:	18800426 	beq	r3,r2,2007174 <__divdf3+0x5cc>
 2007164:	9885883a 	add	r2,r19,r2
 2007168:	14e1803a 	cmpltu	r16,r2,r19
 200716c:	8c23883a 	add	r17,r17,r16
 2007170:	1027883a 	mov	r19,r2
 2007174:	8880402c 	andhi	r2,r17,256
 2007178:	10000426 	beq	r2,zero,200718c <__divdf3+0x5e4>
 200717c:	00bfc034 	movhi	r2,65280
 2007180:	10bfffc4 	addi	r2,r2,-1
 2007184:	a1010004 	addi	r4,r20,1024
 2007188:	88a2703a 	and	r17,r17,r2
 200718c:	0081ff84 	movi	r2,2046
 2007190:	113edf16 	blt	r2,r4,2006d10 <__alt_mem_pic_mem+0xfe002d10>
 2007194:	9826d0fa 	srli	r19,r19,3
 2007198:	8804977a 	slli	r2,r17,29
 200719c:	8820927a 	slli	r16,r17,9
 20071a0:	2101ffcc 	andi	r4,r4,2047
 20071a4:	14e6b03a 	or	r19,r2,r19
 20071a8:	800ad33a 	srli	r5,r16,12
 20071ac:	9180004c 	andi	r6,r18,1
 20071b0:	003edb06 	br	2006d20 <__alt_mem_pic_mem+0xfe002d20>
 20071b4:	008000c4 	movi	r2,3
 20071b8:	4080a826 	beq	r8,r2,200745c <__divdf3+0x8b4>
 20071bc:	00800044 	movi	r2,1
 20071c0:	4080551e 	bne	r8,r2,2007318 <__divdf3+0x770>
 20071c4:	e00d883a 	mov	r6,fp
 20071c8:	0009883a 	mov	r4,zero
 20071cc:	000b883a 	mov	r5,zero
 20071d0:	0027883a 	mov	r19,zero
 20071d4:	003ed206 	br	2006d20 <__alt_mem_pic_mem+0xfe002d20>
 20071d8:	00800434 	movhi	r2,16
 20071dc:	89400234 	orhi	r5,r17,8
 20071e0:	10bfffc4 	addi	r2,r2,-1
 20071e4:	b00d883a 	mov	r6,r22
 20071e8:	288a703a 	and	r5,r5,r2
 20071ec:	003f2606 	br	2006e88 <__alt_mem_pic_mem+0xfe002e88>
 20071f0:	d9800315 	stw	r6,12(sp)
 20071f4:	d9c00115 	stw	r7,4(sp)
 20071f8:	20086a00 	call	20086a0 <__clzsi2>
 20071fc:	10c00804 	addi	r3,r2,32
 2007200:	010009c4 	movi	r4,39
 2007204:	d9800317 	ldw	r6,12(sp)
 2007208:	d9c00117 	ldw	r7,4(sp)
 200720c:	20fee30e 	bge	r4,r3,2006d9c <__alt_mem_pic_mem+0xfe002d9c>
 2007210:	117ffe04 	addi	r5,r2,-8
 2007214:	9162983a 	sll	r17,r18,r5
 2007218:	0027883a 	mov	r19,zero
 200721c:	003ee606 	br	2006db8 <__alt_mem_pic_mem+0xfe002db8>
 2007220:	3009883a 	mov	r4,r6
 2007224:	d9800315 	stw	r6,12(sp)
 2007228:	da000215 	stw	r8,8(sp)
 200722c:	da400015 	stw	r9,0(sp)
 2007230:	20086a00 	call	20086a0 <__clzsi2>
 2007234:	10c00804 	addi	r3,r2,32
 2007238:	010009c4 	movi	r4,39
 200723c:	d9800317 	ldw	r6,12(sp)
 2007240:	da000217 	ldw	r8,8(sp)
 2007244:	da400017 	ldw	r9,0(sp)
 2007248:	20fef20e 	bge	r4,r3,2006e14 <__alt_mem_pic_mem+0xfe002e14>
 200724c:	10bffe04 	addi	r2,r2,-8
 2007250:	a8a0983a 	sll	r16,r21,r2
 2007254:	002b883a 	mov	r21,zero
 2007258:	003ef506 	br	2006e30 <__alt_mem_pic_mem+0xfe002e30>
 200725c:	354d883a 	add	r6,r6,r21
 2007260:	3549803a 	cmpltu	r4,r6,r21
 2007264:	2409883a 	add	r4,r4,r16
 2007268:	2089883a 	add	r4,r4,r2
 200726c:	88bfffc4 	addi	r2,r17,-1
 2007270:	81000c2e 	bgeu	r16,r4,20072a4 <__divdf3+0x6fc>
 2007274:	20c04436 	bltu	r4,r3,2007388 <__divdf3+0x7e0>
 2007278:	19006f26 	beq	r3,r4,2007438 <__divdf3+0x890>
 200727c:	20c7c83a 	sub	r3,r4,r3
 2007280:	1023883a 	mov	r17,r2
 2007284:	003f6406 	br	2007018 <__alt_mem_pic_mem+0xfe003018>
 2007288:	9d7f1736 	bltu	r19,r21,2006ee8 <__alt_mem_pic_mem+0xfe002ee8>
 200728c:	9806d07a 	srli	r3,r19,1
 2007290:	880497fa 	slli	r2,r17,31
 2007294:	980c97fa 	slli	r6,r19,31
 2007298:	882cd07a 	srli	r22,r17,1
 200729c:	18a6b03a 	or	r19,r3,r2
 20072a0:	003f1406 	br	2006ef4 <__alt_mem_pic_mem+0xfe002ef4>
 20072a4:	243ff51e 	bne	r4,r16,200727c <__alt_mem_pic_mem+0xfe00327c>
 20072a8:	357ff22e 	bgeu	r6,r21,2007274 <__alt_mem_pic_mem+0xfe003274>
 20072ac:	80c7c83a 	sub	r3,r16,r3
 20072b0:	1023883a 	mov	r17,r2
 20072b4:	003f5806 	br	2007018 <__alt_mem_pic_mem+0xfe003018>
 20072b8:	1013883a 	mov	r9,r2
 20072bc:	003f3d06 	br	2006fb4 <__alt_mem_pic_mem+0xfe002fb4>
 20072c0:	1023883a 	mov	r17,r2
 20072c4:	003f2506 	br	2006f5c <__alt_mem_pic_mem+0xfe002f5c>
 20072c8:	317fe436 	bltu	r6,r5,200725c <__alt_mem_pic_mem+0xfe00325c>
 20072cc:	0007883a 	mov	r3,zero
 20072d0:	003f5106 	br	2007018 <__alt_mem_pic_mem+0xfe003018>
 20072d4:	1c07883a 	add	r3,r3,r16
 20072d8:	993fffc4 	addi	r4,r19,-1
 20072dc:	1c000a2e 	bgeu	r3,r16,2007308 <__divdf3+0x760>
 20072e0:	2027883a 	mov	r19,r4
 20072e4:	19ff971e 	bne	r3,r7,2007144 <__alt_mem_pic_mem+0xfe003144>
 20072e8:	a8bf961e 	bne	r21,r2,2007144 <__alt_mem_pic_mem+0xfe003144>
 20072ec:	003f9606 	br	2007148 <__alt_mem_pic_mem+0xfe003148>
 20072f0:	04ffffc4 	movi	r19,-1
 20072f4:	003f9406 	br	2007148 <__alt_mem_pic_mem+0xfe003148>
 20072f8:	100d883a 	mov	r6,r2
 20072fc:	003f6106 	br	2007084 <__alt_mem_pic_mem+0xfe003084>
 2007300:	1013883a 	mov	r9,r2
 2007304:	003f7906 	br	20070ec <__alt_mem_pic_mem+0xfe0030ec>
 2007308:	19c02636 	bltu	r3,r7,20073a4 <__divdf3+0x7fc>
 200730c:	38c04d26 	beq	r7,r3,2007444 <__divdf3+0x89c>
 2007310:	2027883a 	mov	r19,r4
 2007314:	003f8b06 	br	2007144 <__alt_mem_pic_mem+0xfe003144>
 2007318:	e025883a 	mov	r18,fp
 200731c:	003f8a06 	br	2007148 <__alt_mem_pic_mem+0xfe003148>
 2007320:	008007c4 	movi	r2,31
 2007324:	14002a16 	blt	r2,r16,20073d0 <__divdf3+0x828>
 2007328:	a5010784 	addi	r20,r20,1054
 200732c:	8d04983a 	sll	r2,r17,r20
 2007330:	9c06d83a 	srl	r3,r19,r16
 2007334:	9d28983a 	sll	r20,r19,r20
 2007338:	8c20d83a 	srl	r16,r17,r16
 200733c:	1886b03a 	or	r3,r3,r2
 2007340:	a004c03a 	cmpne	r2,r20,zero
 2007344:	1884b03a 	or	r2,r3,r2
 2007348:	10c001cc 	andi	r3,r2,7
 200734c:	18000726 	beq	r3,zero,200736c <__divdf3+0x7c4>
 2007350:	110003cc 	andi	r4,r2,15
 2007354:	00c00104 	movi	r3,4
 2007358:	20c00426 	beq	r4,r3,200736c <__divdf3+0x7c4>
 200735c:	10c00104 	addi	r3,r2,4
 2007360:	1885803a 	cmpltu	r2,r3,r2
 2007364:	80a1883a 	add	r16,r16,r2
 2007368:	1805883a 	mov	r2,r3
 200736c:	80c0202c 	andhi	r3,r16,128
 2007370:	18002d26 	beq	r3,zero,2007428 <__divdf3+0x880>
 2007374:	9180004c 	andi	r6,r18,1
 2007378:	01000044 	movi	r4,1
 200737c:	000b883a 	mov	r5,zero
 2007380:	0027883a 	mov	r19,zero
 2007384:	003e6606 	br	2006d20 <__alt_mem_pic_mem+0xfe002d20>
 2007388:	354d883a 	add	r6,r6,r21
 200738c:	356d803a 	cmpltu	r22,r6,r21
 2007390:	b42d883a 	add	r22,r22,r16
 2007394:	b12d883a 	add	r22,r22,r4
 2007398:	8c7fff84 	addi	r17,r17,-2
 200739c:	b0c7c83a 	sub	r3,r22,r3
 20073a0:	003f1d06 	br	2007018 <__alt_mem_pic_mem+0xfe003018>
 20073a4:	ad4b883a 	add	r5,r21,r21
 20073a8:	2d6b803a 	cmpltu	r21,r5,r21
 20073ac:	ac2b883a 	add	r21,r21,r16
 20073b0:	1d47883a 	add	r3,r3,r21
 20073b4:	993fff84 	addi	r4,r19,-2
 20073b8:	282b883a 	mov	r21,r5
 20073bc:	003fc806 	br	20072e0 <__alt_mem_pic_mem+0xfe0032e0>
 20073c0:	103fc41e 	bne	r2,zero,20072d4 <__alt_mem_pic_mem+0xfe0032d4>
 20073c4:	002b883a 	mov	r21,zero
 20073c8:	a8bf5e1e 	bne	r21,r2,2007144 <__alt_mem_pic_mem+0xfe003144>
 20073cc:	003f5e06 	br	2007148 <__alt_mem_pic_mem+0xfe003148>
 20073d0:	00bef884 	movi	r2,-1054
 20073d4:	1505c83a 	sub	r2,r2,r20
 20073d8:	00c00804 	movi	r3,32
 20073dc:	8884d83a 	srl	r2,r17,r2
 20073e0:	80c01c26 	beq	r16,r3,2007454 <__divdf3+0x8ac>
 20073e4:	a0c10f84 	addi	r3,r20,1086
 20073e8:	88c6983a 	sll	r3,r17,r3
 20073ec:	1cc6b03a 	or	r3,r3,r19
 20073f0:	1806c03a 	cmpne	r3,r3,zero
 20073f4:	1884b03a 	or	r2,r3,r2
 20073f8:	140001cc 	andi	r16,r2,7
 20073fc:	8000061e 	bne	r16,zero,2007418 <__divdf3+0x870>
 2007400:	000b883a 	mov	r5,zero
 2007404:	1004d0fa 	srli	r2,r2,3
 2007408:	9180004c 	andi	r6,r18,1
 200740c:	0009883a 	mov	r4,zero
 2007410:	1426b03a 	or	r19,r2,r16
 2007414:	003e4206 	br	2006d20 <__alt_mem_pic_mem+0xfe002d20>
 2007418:	110003cc 	andi	r4,r2,15
 200741c:	00c00104 	movi	r3,4
 2007420:	0021883a 	mov	r16,zero
 2007424:	20ffcd1e 	bne	r4,r3,200735c <__alt_mem_pic_mem+0xfe00335c>
 2007428:	800a927a 	slli	r5,r16,9
 200742c:	8020977a 	slli	r16,r16,29
 2007430:	280ad33a 	srli	r5,r5,12
 2007434:	003ff306 	br	2007404 <__alt_mem_pic_mem+0xfe003404>
 2007438:	317fd336 	bltu	r6,r5,2007388 <__alt_mem_pic_mem+0xfe003388>
 200743c:	1023883a 	mov	r17,r2
 2007440:	003fa206 	br	20072cc <__alt_mem_pic_mem+0xfe0032cc>
 2007444:	a8bfd736 	bltu	r21,r2,20073a4 <__alt_mem_pic_mem+0xfe0033a4>
 2007448:	2027883a 	mov	r19,r4
 200744c:	a8bf3d1e 	bne	r21,r2,2007144 <__alt_mem_pic_mem+0xfe003144>
 2007450:	003f3d06 	br	2007148 <__alt_mem_pic_mem+0xfe003148>
 2007454:	0007883a 	mov	r3,zero
 2007458:	003fe406 	br	20073ec <__alt_mem_pic_mem+0xfe0033ec>
 200745c:	00800434 	movhi	r2,16
 2007460:	89400234 	orhi	r5,r17,8
 2007464:	10bfffc4 	addi	r2,r2,-1
 2007468:	e00d883a 	mov	r6,fp
 200746c:	288a703a 	and	r5,r5,r2
 2007470:	003e8506 	br	2006e88 <__alt_mem_pic_mem+0xfe002e88>

02007474 <__ledf2>:
 2007474:	2804d53a 	srli	r2,r5,20
 2007478:	3810d53a 	srli	r8,r7,20
 200747c:	00c00434 	movhi	r3,16
 2007480:	18ffffc4 	addi	r3,r3,-1
 2007484:	0241ffc4 	movi	r9,2047
 2007488:	1081ffcc 	andi	r2,r2,2047
 200748c:	28d4703a 	and	r10,r5,r3
 2007490:	4250703a 	and	r8,r8,r9
 2007494:	38c6703a 	and	r3,r7,r3
 2007498:	280ad7fa 	srli	r5,r5,31
 200749c:	380ed7fa 	srli	r7,r7,31
 20074a0:	12400b26 	beq	r2,r9,20074d0 <__ledf2+0x5c>
 20074a4:	42401926 	beq	r8,r9,200750c <__ledf2+0x98>
 20074a8:	10000c1e 	bne	r2,zero,20074dc <__ledf2+0x68>
 20074ac:	5112b03a 	or	r9,r10,r4
 20074b0:	4813003a 	cmpeq	r9,r9,zero
 20074b4:	4817883a 	mov	r11,r9
 20074b8:	40000f26 	beq	r8,zero,20074f8 <__ledf2+0x84>
 20074bc:	39c03fcc 	andi	r7,r7,255
 20074c0:	58001826 	beq	r11,zero,2007524 <__ledf2+0xb0>
 20074c4:	38000a1e 	bne	r7,zero,20074f0 <__ledf2+0x7c>
 20074c8:	00bfffc4 	movi	r2,-1
 20074cc:	f800283a 	ret
 20074d0:	5112b03a 	or	r9,r10,r4
 20074d4:	48000f1e 	bne	r9,zero,2007514 <__ledf2+0xa0>
 20074d8:	40800c26 	beq	r8,r2,200750c <__ledf2+0x98>
 20074dc:	4000101e 	bne	r8,zero,2007520 <__ledf2+0xac>
 20074e0:	1992b03a 	or	r9,r3,r6
 20074e4:	0017883a 	mov	r11,zero
 20074e8:	483ff41e 	bne	r9,zero,20074bc <__alt_mem_pic_mem+0xfe0034bc>
 20074ec:	283ff61e 	bne	r5,zero,20074c8 <__alt_mem_pic_mem+0xfe0034c8>
 20074f0:	00800044 	movi	r2,1
 20074f4:	f800283a 	ret
 20074f8:	1998b03a 	or	r12,r3,r6
 20074fc:	603fef1e 	bne	r12,zero,20074bc <__alt_mem_pic_mem+0xfe0034bc>
 2007500:	483ffa26 	beq	r9,zero,20074ec <__alt_mem_pic_mem+0xfe0034ec>
 2007504:	0005883a 	mov	r2,zero
 2007508:	f800283a 	ret
 200750c:	1992b03a 	or	r9,r3,r6
 2007510:	48000226 	beq	r9,zero,200751c <__ledf2+0xa8>
 2007514:	00800084 	movi	r2,2
 2007518:	f800283a 	ret
 200751c:	103fe326 	beq	r2,zero,20074ac <__alt_mem_pic_mem+0xfe0034ac>
 2007520:	39c03fcc 	andi	r7,r7,255
 2007524:	29fff11e 	bne	r5,r7,20074ec <__alt_mem_pic_mem+0xfe0034ec>
 2007528:	40bff016 	blt	r8,r2,20074ec <__alt_mem_pic_mem+0xfe0034ec>
 200752c:	12000316 	blt	r2,r8,200753c <__ledf2+0xc8>
 2007530:	1abfee36 	bltu	r3,r10,20074ec <__alt_mem_pic_mem+0xfe0034ec>
 2007534:	50c00326 	beq	r10,r3,2007544 <__ledf2+0xd0>
 2007538:	50fff22e 	bgeu	r10,r3,2007504 <__alt_mem_pic_mem+0xfe003504>
 200753c:	283fe226 	beq	r5,zero,20074c8 <__alt_mem_pic_mem+0xfe0034c8>
 2007540:	003feb06 	br	20074f0 <__alt_mem_pic_mem+0xfe0034f0>
 2007544:	313fe936 	bltu	r6,r4,20074ec <__alt_mem_pic_mem+0xfe0034ec>
 2007548:	21bfee2e 	bgeu	r4,r6,2007504 <__alt_mem_pic_mem+0xfe003504>
 200754c:	283fde26 	beq	r5,zero,20074c8 <__alt_mem_pic_mem+0xfe0034c8>
 2007550:	003fe706 	br	20074f0 <__alt_mem_pic_mem+0xfe0034f0>

02007554 <__muldf3>:
 2007554:	defff204 	addi	sp,sp,-56
 2007558:	2804d53a 	srli	r2,r5,20
 200755c:	dd800a15 	stw	r22,40(sp)
 2007560:	282cd7fa 	srli	r22,r5,31
 2007564:	dc000415 	stw	r16,16(sp)
 2007568:	04000434 	movhi	r16,16
 200756c:	df000c15 	stw	fp,48(sp)
 2007570:	dd000815 	stw	r20,32(sp)
 2007574:	dcc00715 	stw	r19,28(sp)
 2007578:	dc800615 	stw	r18,24(sp)
 200757c:	dc400515 	stw	r17,20(sp)
 2007580:	843fffc4 	addi	r16,r16,-1
 2007584:	dfc00d15 	stw	ra,52(sp)
 2007588:	ddc00b15 	stw	r23,44(sp)
 200758c:	dd400915 	stw	r21,36(sp)
 2007590:	1501ffcc 	andi	r20,r2,2047
 2007594:	2023883a 	mov	r17,r4
 2007598:	2025883a 	mov	r18,r4
 200759c:	2c20703a 	and	r16,r5,r16
 20075a0:	b027883a 	mov	r19,r22
 20075a4:	b7003fcc 	andi	fp,r22,255
 20075a8:	a0005926 	beq	r20,zero,2007710 <__muldf3+0x1bc>
 20075ac:	0081ffc4 	movi	r2,2047
 20075b0:	a0803426 	beq	r20,r2,2007684 <__muldf3+0x130>
 20075b4:	84000434 	orhi	r16,r16,16
 20075b8:	2004d77a 	srli	r2,r4,29
 20075bc:	802090fa 	slli	r16,r16,3
 20075c0:	202490fa 	slli	r18,r4,3
 20075c4:	a53f0044 	addi	r20,r20,-1023
 20075c8:	80a0b03a 	or	r16,r16,r2
 20075cc:	002b883a 	mov	r21,zero
 20075d0:	0015883a 	mov	r10,zero
 20075d4:	3812d53a 	srli	r9,r7,20
 20075d8:	3806d7fa 	srli	r3,r7,31
 20075dc:	02000434 	movhi	r8,16
 20075e0:	423fffc4 	addi	r8,r8,-1
 20075e4:	4941ffcc 	andi	r5,r9,2047
 20075e8:	302f883a 	mov	r23,r6
 20075ec:	3a22703a 	and	r17,r7,r8
 20075f0:	1ac03fcc 	andi	r11,r3,255
 20075f4:	28006226 	beq	r5,zero,2007780 <__muldf3+0x22c>
 20075f8:	0081ffc4 	movi	r2,2047
 20075fc:	28805a26 	beq	r5,r2,2007768 <__muldf3+0x214>
 2007600:	8a000434 	orhi	r8,r17,16
 2007604:	3004d77a 	srli	r2,r6,29
 2007608:	401090fa 	slli	r8,r8,3
 200760c:	302e90fa 	slli	r23,r6,3
 2007610:	297f0044 	addi	r5,r5,-1023
 2007614:	40a2b03a 	or	r17,r8,r2
 2007618:	0013883a 	mov	r9,zero
 200761c:	4d4cb03a 	or	r6,r9,r21
 2007620:	300c90ba 	slli	r6,r6,2
 2007624:	02008034 	movhi	r8,512
 2007628:	421d9104 	addi	r8,r8,30276
 200762c:	320d883a 	add	r6,r6,r8
 2007630:	31800017 	ldw	r6,0(r6)
 2007634:	a14b883a 	add	r5,r20,r5
 2007638:	1dacf03a 	xor	r22,r3,r22
 200763c:	2b000044 	addi	r12,r5,1
 2007640:	3000683a 	jmp	r6
 2007644:	02007880 	call	200788 <__reset-0x1dff878>
 2007648:	0200786c 	andhi	r8,zero,481
 200764c:	0200786c 	andhi	r8,zero,481
 2007650:	02007858 	cmpnei	r8,zero,481
 2007654:	020076a0 	cmpeqi	r8,zero,474
 2007658:	020076a0 	cmpeqi	r8,zero,474
 200765c:	02007840 	call	200784 <__reset-0x1dff87c>
 2007660:	02007858 	cmpnei	r8,zero,481
 2007664:	020076a0 	cmpeqi	r8,zero,474
 2007668:	02007840 	call	200784 <__reset-0x1dff87c>
 200766c:	020076a0 	cmpeqi	r8,zero,474
 2007670:	02007858 	cmpnei	r8,zero,481
 2007674:	020076a4 	muli	r8,zero,474
 2007678:	020076a4 	muli	r8,zero,474
 200767c:	020076a4 	muli	r8,zero,474
 2007680:	02007a7c 	xorhi	r8,zero,489
 2007684:	8104b03a 	or	r2,r16,r4
 2007688:	10006a1e 	bne	r2,zero,2007834 <__muldf3+0x2e0>
 200768c:	05400204 	movi	r21,8
 2007690:	0021883a 	mov	r16,zero
 2007694:	0025883a 	mov	r18,zero
 2007698:	02800084 	movi	r10,2
 200769c:	003fcd06 	br	20075d4 <__alt_mem_pic_mem+0xfe0035d4>
 20076a0:	b039883a 	mov	fp,r22
 20076a4:	00800084 	movi	r2,2
 20076a8:	50804e1e 	bne	r10,r2,20077e4 <__muldf3+0x290>
 20076ac:	e4c0004c 	andi	r19,fp,1
 20076b0:	0101ffc4 	movi	r4,2047
 20076b4:	0021883a 	mov	r16,zero
 20076b8:	0025883a 	mov	r18,zero
 20076bc:	2008953a 	slli	r4,r4,20
 20076c0:	98c03fcc 	andi	r3,r19,255
 20076c4:	01400434 	movhi	r5,16
 20076c8:	297fffc4 	addi	r5,r5,-1
 20076cc:	180697fa 	slli	r3,r3,31
 20076d0:	8160703a 	and	r16,r16,r5
 20076d4:	8120b03a 	or	r16,r16,r4
 20076d8:	80c6b03a 	or	r3,r16,r3
 20076dc:	9005883a 	mov	r2,r18
 20076e0:	dfc00d17 	ldw	ra,52(sp)
 20076e4:	df000c17 	ldw	fp,48(sp)
 20076e8:	ddc00b17 	ldw	r23,44(sp)
 20076ec:	dd800a17 	ldw	r22,40(sp)
 20076f0:	dd400917 	ldw	r21,36(sp)
 20076f4:	dd000817 	ldw	r20,32(sp)
 20076f8:	dcc00717 	ldw	r19,28(sp)
 20076fc:	dc800617 	ldw	r18,24(sp)
 2007700:	dc400517 	ldw	r17,20(sp)
 2007704:	dc000417 	ldw	r16,16(sp)
 2007708:	dec00e04 	addi	sp,sp,56
 200770c:	f800283a 	ret
 2007710:	8104b03a 	or	r2,r16,r4
 2007714:	10004226 	beq	r2,zero,2007820 <__muldf3+0x2cc>
 2007718:	8000f926 	beq	r16,zero,2007b00 <__muldf3+0x5ac>
 200771c:	8009883a 	mov	r4,r16
 2007720:	d9800315 	stw	r6,12(sp)
 2007724:	d9c00015 	stw	r7,0(sp)
 2007728:	20086a00 	call	20086a0 <__clzsi2>
 200772c:	d9800317 	ldw	r6,12(sp)
 2007730:	d9c00017 	ldw	r7,0(sp)
 2007734:	1007883a 	mov	r3,r2
 2007738:	01000a04 	movi	r4,40
 200773c:	18bffe04 	addi	r2,r3,-8
 2007740:	20c9c83a 	sub	r4,r4,r3
 2007744:	80a0983a 	sll	r16,r16,r2
 2007748:	8908d83a 	srl	r4,r17,r4
 200774c:	88a4983a 	sll	r18,r17,r2
 2007750:	2420b03a 	or	r16,r4,r16
 2007754:	017f0344 	movi	r5,-1011
 2007758:	28e9c83a 	sub	r20,r5,r3
 200775c:	002b883a 	mov	r21,zero
 2007760:	0015883a 	mov	r10,zero
 2007764:	003f9b06 	br	20075d4 <__alt_mem_pic_mem+0xfe0035d4>
 2007768:	8984b03a 	or	r2,r17,r6
 200776c:	10002a1e 	bne	r2,zero,2007818 <__muldf3+0x2c4>
 2007770:	0023883a 	mov	r17,zero
 2007774:	002f883a 	mov	r23,zero
 2007778:	02400084 	movi	r9,2
 200777c:	003fa706 	br	200761c <__alt_mem_pic_mem+0xfe00361c>
 2007780:	8984b03a 	or	r2,r17,r6
 2007784:	10002026 	beq	r2,zero,2007808 <__muldf3+0x2b4>
 2007788:	8800cc26 	beq	r17,zero,2007abc <__muldf3+0x568>
 200778c:	8809883a 	mov	r4,r17
 2007790:	d8c00215 	stw	r3,8(sp)
 2007794:	d9800315 	stw	r6,12(sp)
 2007798:	da800015 	stw	r10,0(sp)
 200779c:	dac00115 	stw	r11,4(sp)
 20077a0:	20086a00 	call	20086a0 <__clzsi2>
 20077a4:	d8c00217 	ldw	r3,8(sp)
 20077a8:	d9800317 	ldw	r6,12(sp)
 20077ac:	da800017 	ldw	r10,0(sp)
 20077b0:	dac00117 	ldw	r11,4(sp)
 20077b4:	1009883a 	mov	r4,r2
 20077b8:	01400a04 	movi	r5,40
 20077bc:	25fffe04 	addi	r23,r4,-8
 20077c0:	290bc83a 	sub	r5,r5,r4
 20077c4:	8dd0983a 	sll	r8,r17,r23
 20077c8:	314ad83a 	srl	r5,r6,r5
 20077cc:	35ee983a 	sll	r23,r6,r23
 20077d0:	2a22b03a 	or	r17,r5,r8
 20077d4:	017f0344 	movi	r5,-1011
 20077d8:	290bc83a 	sub	r5,r5,r4
 20077dc:	0013883a 	mov	r9,zero
 20077e0:	003f8e06 	br	200761c <__alt_mem_pic_mem+0xfe00361c>
 20077e4:	008000c4 	movi	r2,3
 20077e8:	50811d26 	beq	r10,r2,2007c60 <__muldf3+0x70c>
 20077ec:	00800044 	movi	r2,1
 20077f0:	5080e01e 	bne	r10,r2,2007b74 <__muldf3+0x620>
 20077f4:	e0a6703a 	and	r19,fp,r2
 20077f8:	0009883a 	mov	r4,zero
 20077fc:	0021883a 	mov	r16,zero
 2007800:	0025883a 	mov	r18,zero
 2007804:	003fad06 	br	20076bc <__alt_mem_pic_mem+0xfe0036bc>
 2007808:	0023883a 	mov	r17,zero
 200780c:	002f883a 	mov	r23,zero
 2007810:	02400044 	movi	r9,1
 2007814:	003f8106 	br	200761c <__alt_mem_pic_mem+0xfe00361c>
 2007818:	024000c4 	movi	r9,3
 200781c:	003f7f06 	br	200761c <__alt_mem_pic_mem+0xfe00361c>
 2007820:	05400104 	movi	r21,4
 2007824:	0021883a 	mov	r16,zero
 2007828:	0025883a 	mov	r18,zero
 200782c:	02800044 	movi	r10,1
 2007830:	003f6806 	br	20075d4 <__alt_mem_pic_mem+0xfe0035d4>
 2007834:	05400304 	movi	r21,12
 2007838:	028000c4 	movi	r10,3
 200783c:	003f6506 	br	20075d4 <__alt_mem_pic_mem+0xfe0035d4>
 2007840:	04000434 	movhi	r16,16
 2007844:	0027883a 	mov	r19,zero
 2007848:	843fffc4 	addi	r16,r16,-1
 200784c:	04bfffc4 	movi	r18,-1
 2007850:	0101ffc4 	movi	r4,2047
 2007854:	003f9906 	br	20076bc <__alt_mem_pic_mem+0xfe0036bc>
 2007858:	8821883a 	mov	r16,r17
 200785c:	b825883a 	mov	r18,r23
 2007860:	5839883a 	mov	fp,r11
 2007864:	4815883a 	mov	r10,r9
 2007868:	003f8e06 	br	20076a4 <__alt_mem_pic_mem+0xfe0036a4>
 200786c:	8821883a 	mov	r16,r17
 2007870:	b825883a 	mov	r18,r23
 2007874:	b039883a 	mov	fp,r22
 2007878:	4815883a 	mov	r10,r9
 200787c:	003f8906 	br	20076a4 <__alt_mem_pic_mem+0xfe0036a4>
 2007880:	b80cd43a 	srli	r6,r23,16
 2007884:	9006d43a 	srli	r3,r18,16
 2007888:	90bfffcc 	andi	r2,r18,65535
 200788c:	bdffffcc 	andi	r23,r23,65535
 2007890:	b891383a 	mul	r8,r23,r2
 2007894:	b8c9383a 	mul	r4,r23,r3
 2007898:	309b383a 	mul	r13,r6,r2
 200789c:	400ed43a 	srli	r7,r8,16
 20078a0:	30df383a 	mul	r15,r6,r3
 20078a4:	235b883a 	add	r13,r4,r13
 20078a8:	69db883a 	add	r13,r13,r7
 20078ac:	6900022e 	bgeu	r13,r4,20078b8 <__muldf3+0x364>
 20078b0:	01000074 	movhi	r4,1
 20078b4:	791f883a 	add	r15,r15,r4
 20078b8:	8828d43a 	srli	r20,r17,16
 20078bc:	8c7fffcc 	andi	r17,r17,65535
 20078c0:	888f383a 	mul	r7,r17,r2
 20078c4:	88d3383a 	mul	r9,r17,r3
 20078c8:	a0a5383a 	mul	r18,r20,r2
 20078cc:	3816d43a 	srli	r11,r7,16
 20078d0:	6814943a 	slli	r10,r13,16
 20078d4:	4ca5883a 	add	r18,r9,r18
 20078d8:	423fffcc 	andi	r8,r8,65535
 20078dc:	92e5883a 	add	r18,r18,r11
 20078e0:	6808d43a 	srli	r4,r13,16
 20078e4:	5215883a 	add	r10,r10,r8
 20078e8:	a0c7383a 	mul	r3,r20,r3
 20078ec:	9240022e 	bgeu	r18,r9,20078f8 <__muldf3+0x3a4>
 20078f0:	00800074 	movhi	r2,1
 20078f4:	1887883a 	add	r3,r3,r2
 20078f8:	802ad43a 	srli	r21,r16,16
 20078fc:	80bfffcc 	andi	r2,r16,65535
 2007900:	b893383a 	mul	r9,r23,r2
 2007904:	3091383a 	mul	r8,r6,r2
 2007908:	bd6f383a 	mul	r23,r23,r21
 200790c:	9026943a 	slli	r19,r18,16
 2007910:	481ad43a 	srli	r13,r9,16
 2007914:	9024d43a 	srli	r18,r18,16
 2007918:	39ffffcc 	andi	r7,r7,65535
 200791c:	ba11883a 	add	r8,r23,r8
 2007920:	99e7883a 	add	r19,r19,r7
 2007924:	4351883a 	add	r8,r8,r13
 2007928:	1c97883a 	add	r11,r3,r18
 200792c:	354d383a 	mul	r6,r6,r21
 2007930:	9925883a 	add	r18,r19,r4
 2007934:	45c0022e 	bgeu	r8,r23,2007940 <__muldf3+0x3ec>
 2007938:	00c00074 	movhi	r3,1
 200793c:	30cd883a 	add	r6,r6,r3
 2007940:	8889383a 	mul	r4,r17,r2
 2007944:	8d63383a 	mul	r17,r17,r21
 2007948:	a085383a 	mul	r2,r20,r2
 200794c:	200ed43a 	srli	r7,r4,16
 2007950:	401cd43a 	srli	r14,r8,16
 2007954:	401a943a 	slli	r13,r8,16
 2007958:	8885883a 	add	r2,r17,r2
 200795c:	4a3fffcc 	andi	r8,r9,65535
 2007960:	11c5883a 	add	r2,r2,r7
 2007964:	339d883a 	add	r14,r6,r14
 2007968:	6a11883a 	add	r8,r13,r8
 200796c:	a561383a 	mul	r16,r20,r21
 2007970:	1440022e 	bgeu	r2,r17,200797c <__muldf3+0x428>
 2007974:	00c00074 	movhi	r3,1
 2007978:	80e1883a 	add	r16,r16,r3
 200797c:	1006943a 	slli	r3,r2,16
 2007980:	213fffcc 	andi	r4,r4,65535
 2007984:	93db883a 	add	r13,r18,r15
 2007988:	1909883a 	add	r4,r3,r4
 200798c:	22c7883a 	add	r3,r4,r11
 2007990:	6cd3803a 	cmpltu	r9,r13,r19
 2007994:	6a09883a 	add	r4,r13,r8
 2007998:	1a5b883a 	add	r13,r3,r9
 200799c:	2211803a 	cmpltu	r8,r4,r8
 20079a0:	734d883a 	add	r6,r14,r13
 20079a4:	100ed43a 	srli	r7,r2,16
 20079a8:	6a53803a 	cmpltu	r9,r13,r9
 20079ac:	3205883a 	add	r2,r6,r8
 20079b0:	1ac7803a 	cmpltu	r3,r3,r11
 20079b4:	1211803a 	cmpltu	r8,r2,r8
 20079b8:	48c6b03a 	or	r3,r9,r3
 20079bc:	338d803a 	cmpltu	r6,r6,r14
 20079c0:	19c7883a 	add	r3,r3,r7
 20079c4:	418cb03a 	or	r6,r8,r6
 20079c8:	1987883a 	add	r3,r3,r6
 20079cc:	2024927a 	slli	r18,r4,9
 20079d0:	1c07883a 	add	r3,r3,r16
 20079d4:	1806927a 	slli	r3,r3,9
 20079d8:	1020d5fa 	srli	r16,r2,23
 20079dc:	2008d5fa 	srli	r4,r4,23
 20079e0:	9294b03a 	or	r10,r18,r10
 20079e4:	1004927a 	slli	r2,r2,9
 20079e8:	5024c03a 	cmpne	r18,r10,zero
 20079ec:	1c20b03a 	or	r16,r3,r16
 20079f0:	9108b03a 	or	r4,r18,r4
 20079f4:	80c0402c 	andhi	r3,r16,256
 20079f8:	20a4b03a 	or	r18,r4,r2
 20079fc:	18000726 	beq	r3,zero,2007a1c <__muldf3+0x4c8>
 2007a00:	9006d07a 	srli	r3,r18,1
 2007a04:	800897fa 	slli	r4,r16,31
 2007a08:	9080004c 	andi	r2,r18,1
 2007a0c:	8020d07a 	srli	r16,r16,1
 2007a10:	10c4b03a 	or	r2,r2,r3
 2007a14:	1124b03a 	or	r18,r2,r4
 2007a18:	600b883a 	mov	r5,r12
 2007a1c:	2900ffc4 	addi	r4,r5,1023
 2007a20:	01004b0e 	bge	zero,r4,2007b50 <__muldf3+0x5fc>
 2007a24:	908001cc 	andi	r2,r18,7
 2007a28:	10000726 	beq	r2,zero,2007a48 <__muldf3+0x4f4>
 2007a2c:	90c003cc 	andi	r3,r18,15
 2007a30:	00800104 	movi	r2,4
 2007a34:	18800426 	beq	r3,r2,2007a48 <__muldf3+0x4f4>
 2007a38:	9087883a 	add	r3,r18,r2
 2007a3c:	1c85803a 	cmpltu	r2,r3,r18
 2007a40:	80a1883a 	add	r16,r16,r2
 2007a44:	1825883a 	mov	r18,r3
 2007a48:	8080402c 	andhi	r2,r16,256
 2007a4c:	10000426 	beq	r2,zero,2007a60 <__muldf3+0x50c>
 2007a50:	00bfc034 	movhi	r2,65280
 2007a54:	10bfffc4 	addi	r2,r2,-1
 2007a58:	29010004 	addi	r4,r5,1024
 2007a5c:	80a0703a 	and	r16,r16,r2
 2007a60:	0081ff84 	movi	r2,2046
 2007a64:	1100320e 	bge	r2,r4,2007b30 <__muldf3+0x5dc>
 2007a68:	b4c0004c 	andi	r19,r22,1
 2007a6c:	0101ffc4 	movi	r4,2047
 2007a70:	0021883a 	mov	r16,zero
 2007a74:	0025883a 	mov	r18,zero
 2007a78:	003f1006 	br	20076bc <__alt_mem_pic_mem+0xfe0036bc>
 2007a7c:	8080022c 	andhi	r2,r16,8
 2007a80:	10000926 	beq	r2,zero,2007aa8 <__muldf3+0x554>
 2007a84:	8880022c 	andhi	r2,r17,8
 2007a88:	1000071e 	bne	r2,zero,2007aa8 <__muldf3+0x554>
 2007a8c:	00800434 	movhi	r2,16
 2007a90:	8c000234 	orhi	r16,r17,8
 2007a94:	10bfffc4 	addi	r2,r2,-1
 2007a98:	1827883a 	mov	r19,r3
 2007a9c:	80a0703a 	and	r16,r16,r2
 2007aa0:	b825883a 	mov	r18,r23
 2007aa4:	003f6a06 	br	2007850 <__alt_mem_pic_mem+0xfe003850>
 2007aa8:	00800434 	movhi	r2,16
 2007aac:	84000234 	orhi	r16,r16,8
 2007ab0:	10bfffc4 	addi	r2,r2,-1
 2007ab4:	80a0703a 	and	r16,r16,r2
 2007ab8:	003f6506 	br	2007850 <__alt_mem_pic_mem+0xfe003850>
 2007abc:	3009883a 	mov	r4,r6
 2007ac0:	d8c00215 	stw	r3,8(sp)
 2007ac4:	d9800315 	stw	r6,12(sp)
 2007ac8:	da800015 	stw	r10,0(sp)
 2007acc:	dac00115 	stw	r11,4(sp)
 2007ad0:	20086a00 	call	20086a0 <__clzsi2>
 2007ad4:	11000804 	addi	r4,r2,32
 2007ad8:	014009c4 	movi	r5,39
 2007adc:	d8c00217 	ldw	r3,8(sp)
 2007ae0:	d9800317 	ldw	r6,12(sp)
 2007ae4:	da800017 	ldw	r10,0(sp)
 2007ae8:	dac00117 	ldw	r11,4(sp)
 2007aec:	293f320e 	bge	r5,r4,20077b8 <__alt_mem_pic_mem+0xfe0037b8>
 2007af0:	10bffe04 	addi	r2,r2,-8
 2007af4:	b8a2983a 	sll	r17,r23,r2
 2007af8:	002f883a 	mov	r23,zero
 2007afc:	003f3506 	br	20077d4 <__alt_mem_pic_mem+0xfe0037d4>
 2007b00:	d9800315 	stw	r6,12(sp)
 2007b04:	d9c00015 	stw	r7,0(sp)
 2007b08:	20086a00 	call	20086a0 <__clzsi2>
 2007b0c:	10c00804 	addi	r3,r2,32
 2007b10:	010009c4 	movi	r4,39
 2007b14:	d9800317 	ldw	r6,12(sp)
 2007b18:	d9c00017 	ldw	r7,0(sp)
 2007b1c:	20ff060e 	bge	r4,r3,2007738 <__alt_mem_pic_mem+0xfe003738>
 2007b20:	10bffe04 	addi	r2,r2,-8
 2007b24:	88a0983a 	sll	r16,r17,r2
 2007b28:	0025883a 	mov	r18,zero
 2007b2c:	003f0906 	br	2007754 <__alt_mem_pic_mem+0xfe003754>
 2007b30:	9004d0fa 	srli	r2,r18,3
 2007b34:	8024977a 	slli	r18,r16,29
 2007b38:	8020927a 	slli	r16,r16,9
 2007b3c:	2101ffcc 	andi	r4,r4,2047
 2007b40:	90a4b03a 	or	r18,r18,r2
 2007b44:	8020d33a 	srli	r16,r16,12
 2007b48:	b4c0004c 	andi	r19,r22,1
 2007b4c:	003edb06 	br	20076bc <__alt_mem_pic_mem+0xfe0036bc>
 2007b50:	00ff0084 	movi	r3,-1022
 2007b54:	1947c83a 	sub	r3,r3,r5
 2007b58:	00800e04 	movi	r2,56
 2007b5c:	10c0080e 	bge	r2,r3,2007b80 <__muldf3+0x62c>
 2007b60:	b4c0004c 	andi	r19,r22,1
 2007b64:	0009883a 	mov	r4,zero
 2007b68:	0021883a 	mov	r16,zero
 2007b6c:	0025883a 	mov	r18,zero
 2007b70:	003ed206 	br	20076bc <__alt_mem_pic_mem+0xfe0036bc>
 2007b74:	600b883a 	mov	r5,r12
 2007b78:	e02d883a 	mov	r22,fp
 2007b7c:	003fa706 	br	2007a1c <__alt_mem_pic_mem+0xfe003a1c>
 2007b80:	008007c4 	movi	r2,31
 2007b84:	10c01816 	blt	r2,r3,2007be8 <__muldf3+0x694>
 2007b88:	29410784 	addi	r5,r5,1054
 2007b8c:	8144983a 	sll	r2,r16,r5
 2007b90:	90c8d83a 	srl	r4,r18,r3
 2007b94:	914a983a 	sll	r5,r18,r5
 2007b98:	80c6d83a 	srl	r3,r16,r3
 2007b9c:	2088b03a 	or	r4,r4,r2
 2007ba0:	2804c03a 	cmpne	r2,r5,zero
 2007ba4:	2084b03a 	or	r2,r4,r2
 2007ba8:	110001cc 	andi	r4,r2,7
 2007bac:	20000726 	beq	r4,zero,2007bcc <__muldf3+0x678>
 2007bb0:	114003cc 	andi	r5,r2,15
 2007bb4:	01000104 	movi	r4,4
 2007bb8:	29000426 	beq	r5,r4,2007bcc <__muldf3+0x678>
 2007bbc:	11000104 	addi	r4,r2,4
 2007bc0:	2085803a 	cmpltu	r2,r4,r2
 2007bc4:	1887883a 	add	r3,r3,r2
 2007bc8:	2005883a 	mov	r2,r4
 2007bcc:	1900202c 	andhi	r4,r3,128
 2007bd0:	20001826 	beq	r4,zero,2007c34 <__muldf3+0x6e0>
 2007bd4:	b4c0004c 	andi	r19,r22,1
 2007bd8:	01000044 	movi	r4,1
 2007bdc:	0021883a 	mov	r16,zero
 2007be0:	0025883a 	mov	r18,zero
 2007be4:	003eb506 	br	20076bc <__alt_mem_pic_mem+0xfe0036bc>
 2007be8:	00bef884 	movi	r2,-1054
 2007bec:	1145c83a 	sub	r2,r2,r5
 2007bf0:	8088d83a 	srl	r4,r16,r2
 2007bf4:	00800804 	movi	r2,32
 2007bf8:	18801726 	beq	r3,r2,2007c58 <__muldf3+0x704>
 2007bfc:	28810f84 	addi	r2,r5,1086
 2007c00:	8084983a 	sll	r2,r16,r2
 2007c04:	1484b03a 	or	r2,r2,r18
 2007c08:	1004c03a 	cmpne	r2,r2,zero
 2007c0c:	1104b03a 	or	r2,r2,r4
 2007c10:	10c001cc 	andi	r3,r2,7
 2007c14:	18000b1e 	bne	r3,zero,2007c44 <__muldf3+0x6f0>
 2007c18:	0021883a 	mov	r16,zero
 2007c1c:	1004d0fa 	srli	r2,r2,3
 2007c20:	b4c0004c 	andi	r19,r22,1
 2007c24:	0009883a 	mov	r4,zero
 2007c28:	10e4b03a 	or	r18,r2,r3
 2007c2c:	003ea306 	br	20076bc <__alt_mem_pic_mem+0xfe0036bc>
 2007c30:	0007883a 	mov	r3,zero
 2007c34:	1820927a 	slli	r16,r3,9
 2007c38:	1806977a 	slli	r3,r3,29
 2007c3c:	8020d33a 	srli	r16,r16,12
 2007c40:	003ff606 	br	2007c1c <__alt_mem_pic_mem+0xfe003c1c>
 2007c44:	110003cc 	andi	r4,r2,15
 2007c48:	00c00104 	movi	r3,4
 2007c4c:	20fff826 	beq	r4,r3,2007c30 <__alt_mem_pic_mem+0xfe003c30>
 2007c50:	0007883a 	mov	r3,zero
 2007c54:	003fd906 	br	2007bbc <__alt_mem_pic_mem+0xfe003bbc>
 2007c58:	0005883a 	mov	r2,zero
 2007c5c:	003fe906 	br	2007c04 <__alt_mem_pic_mem+0xfe003c04>
 2007c60:	00800434 	movhi	r2,16
 2007c64:	84000234 	orhi	r16,r16,8
 2007c68:	10bfffc4 	addi	r2,r2,-1
 2007c6c:	e4c0004c 	andi	r19,fp,1
 2007c70:	80a0703a 	and	r16,r16,r2
 2007c74:	003ef606 	br	2007850 <__alt_mem_pic_mem+0xfe003850>

02007c78 <__subdf3>:
 2007c78:	00c00434 	movhi	r3,16
 2007c7c:	18ffffc4 	addi	r3,r3,-1
 2007c80:	defffb04 	addi	sp,sp,-20
 2007c84:	28d2703a 	and	r9,r5,r3
 2007c88:	3814d53a 	srli	r10,r7,20
 2007c8c:	38c6703a 	and	r3,r7,r3
 2007c90:	3004d77a 	srli	r2,r6,29
 2007c94:	dc800215 	stw	r18,8(sp)
 2007c98:	dc000015 	stw	r16,0(sp)
 2007c9c:	2824d7fa 	srli	r18,r5,31
 2007ca0:	2820d53a 	srli	r16,r5,20
 2007ca4:	481290fa 	slli	r9,r9,3
 2007ca8:	200ad77a 	srli	r5,r4,29
 2007cac:	180690fa 	slli	r3,r3,3
 2007cb0:	dc400115 	stw	r17,4(sp)
 2007cb4:	dfc00415 	stw	ra,16(sp)
 2007cb8:	202290fa 	slli	r17,r4,3
 2007cbc:	dcc00315 	stw	r19,12(sp)
 2007cc0:	5281ffcc 	andi	r10,r10,2047
 2007cc4:	0101ffc4 	movi	r4,2047
 2007cc8:	9011883a 	mov	r8,r18
 2007ccc:	8401ffcc 	andi	r16,r16,2047
 2007cd0:	94803fcc 	andi	r18,r18,255
 2007cd4:	494ab03a 	or	r5,r9,r5
 2007cd8:	380ed7fa 	srli	r7,r7,31
 2007cdc:	1886b03a 	or	r3,r3,r2
 2007ce0:	300c90fa 	slli	r6,r6,3
 2007ce4:	51009026 	beq	r10,r4,2007f28 <__subdf3+0x2b0>
 2007ce8:	39c0005c 	xori	r7,r7,1
 2007cec:	8285c83a 	sub	r2,r16,r10
 2007cf0:	91c06f26 	beq	r18,r7,2007eb0 <__subdf3+0x238>
 2007cf4:	0080b10e 	bge	zero,r2,2007fbc <__subdf3+0x344>
 2007cf8:	50002a1e 	bne	r10,zero,2007da4 <__subdf3+0x12c>
 2007cfc:	1988b03a 	or	r4,r3,r6
 2007d00:	2000941e 	bne	r4,zero,2007f54 <__subdf3+0x2dc>
 2007d04:	888001cc 	andi	r2,r17,7
 2007d08:	10005b26 	beq	r2,zero,2007e78 <__subdf3+0x200>
 2007d0c:	88c003cc 	andi	r3,r17,15
 2007d10:	00800104 	movi	r2,4
 2007d14:	18805826 	beq	r3,r2,2007e78 <__subdf3+0x200>
 2007d18:	88c00104 	addi	r3,r17,4
 2007d1c:	1c63803a 	cmpltu	r17,r3,r17
 2007d20:	2c4b883a 	add	r5,r5,r17
 2007d24:	2880202c 	andhi	r2,r5,128
 2007d28:	9200004c 	andi	r8,r18,1
 2007d2c:	1823883a 	mov	r17,r3
 2007d30:	10005426 	beq	r2,zero,2007e84 <__subdf3+0x20c>
 2007d34:	84000044 	addi	r16,r16,1
 2007d38:	0081ffc4 	movi	r2,2047
 2007d3c:	8080bf26 	beq	r16,r2,200803c <__subdf3+0x3c4>
 2007d40:	013fe034 	movhi	r4,65408
 2007d44:	213fffc4 	addi	r4,r4,-1
 2007d48:	290a703a 	and	r5,r5,r4
 2007d4c:	2804977a 	slli	r2,r5,29
 2007d50:	280a927a 	slli	r5,r5,9
 2007d54:	8822d0fa 	srli	r17,r17,3
 2007d58:	8401ffcc 	andi	r16,r16,2047
 2007d5c:	2808d33a 	srli	r4,r5,12
 2007d60:	1444b03a 	or	r2,r2,r17
 2007d64:	8401ffcc 	andi	r16,r16,2047
 2007d68:	800a953a 	slli	r5,r16,20
 2007d6c:	40c03fcc 	andi	r3,r8,255
 2007d70:	04000434 	movhi	r16,16
 2007d74:	180697fa 	slli	r3,r3,31
 2007d78:	843fffc4 	addi	r16,r16,-1
 2007d7c:	2420703a 	and	r16,r4,r16
 2007d80:	8160b03a 	or	r16,r16,r5
 2007d84:	80c6b03a 	or	r3,r16,r3
 2007d88:	dfc00417 	ldw	ra,16(sp)
 2007d8c:	dcc00317 	ldw	r19,12(sp)
 2007d90:	dc800217 	ldw	r18,8(sp)
 2007d94:	dc400117 	ldw	r17,4(sp)
 2007d98:	dc000017 	ldw	r16,0(sp)
 2007d9c:	dec00504 	addi	sp,sp,20
 2007da0:	f800283a 	ret
 2007da4:	0101ffc4 	movi	r4,2047
 2007da8:	813fd626 	beq	r16,r4,2007d04 <__alt_mem_pic_mem+0xfe003d04>
 2007dac:	18c02034 	orhi	r3,r3,128
 2007db0:	01000e04 	movi	r4,56
 2007db4:	2080a416 	blt	r4,r2,2008048 <__subdf3+0x3d0>
 2007db8:	010007c4 	movi	r4,31
 2007dbc:	2080c716 	blt	r4,r2,20080dc <__subdf3+0x464>
 2007dc0:	01000804 	movi	r4,32
 2007dc4:	2089c83a 	sub	r4,r4,r2
 2007dc8:	1910983a 	sll	r8,r3,r4
 2007dcc:	308ed83a 	srl	r7,r6,r2
 2007dd0:	3108983a 	sll	r4,r6,r4
 2007dd4:	1884d83a 	srl	r2,r3,r2
 2007dd8:	41ccb03a 	or	r6,r8,r7
 2007ddc:	2008c03a 	cmpne	r4,r4,zero
 2007de0:	310cb03a 	or	r6,r6,r4
 2007de4:	898dc83a 	sub	r6,r17,r6
 2007de8:	89a3803a 	cmpltu	r17,r17,r6
 2007dec:	288bc83a 	sub	r5,r5,r2
 2007df0:	2c4bc83a 	sub	r5,r5,r17
 2007df4:	3023883a 	mov	r17,r6
 2007df8:	2880202c 	andhi	r2,r5,128
 2007dfc:	10006b26 	beq	r2,zero,2007fac <__subdf3+0x334>
 2007e00:	04c02034 	movhi	r19,128
 2007e04:	9cffffc4 	addi	r19,r19,-1
 2007e08:	2ce6703a 	and	r19,r5,r19
 2007e0c:	98007c26 	beq	r19,zero,2008000 <__subdf3+0x388>
 2007e10:	9809883a 	mov	r4,r19
 2007e14:	20086a00 	call	20086a0 <__clzsi2>
 2007e18:	10fffe04 	addi	r3,r2,-8
 2007e1c:	010007c4 	movi	r4,31
 2007e20:	20c07d16 	blt	r4,r3,2008018 <__subdf3+0x3a0>
 2007e24:	01400a04 	movi	r5,40
 2007e28:	2885c83a 	sub	r2,r5,r2
 2007e2c:	888ad83a 	srl	r5,r17,r2
 2007e30:	98e6983a 	sll	r19,r19,r3
 2007e34:	88e2983a 	sll	r17,r17,r3
 2007e38:	2ce6b03a 	or	r19,r5,r19
 2007e3c:	1c007a16 	blt	r3,r16,2008028 <__subdf3+0x3b0>
 2007e40:	1c21c83a 	sub	r16,r3,r16
 2007e44:	81400044 	addi	r5,r16,1
 2007e48:	00c007c4 	movi	r3,31
 2007e4c:	19409616 	blt	r3,r5,20080a8 <__subdf3+0x430>
 2007e50:	1c21c83a 	sub	r16,r3,r16
 2007e54:	8c08983a 	sll	r4,r17,r16
 2007e58:	8946d83a 	srl	r3,r17,r5
 2007e5c:	9c20983a 	sll	r16,r19,r16
 2007e60:	2008c03a 	cmpne	r4,r4,zero
 2007e64:	994ad83a 	srl	r5,r19,r5
 2007e68:	1c06b03a 	or	r3,r3,r16
 2007e6c:	1922b03a 	or	r17,r3,r4
 2007e70:	0021883a 	mov	r16,zero
 2007e74:	003fa306 	br	2007d04 <__alt_mem_pic_mem+0xfe003d04>
 2007e78:	2880202c 	andhi	r2,r5,128
 2007e7c:	9200004c 	andi	r8,r18,1
 2007e80:	103fac1e 	bne	r2,zero,2007d34 <__alt_mem_pic_mem+0xfe003d34>
 2007e84:	2804977a 	slli	r2,r5,29
 2007e88:	8822d0fa 	srli	r17,r17,3
 2007e8c:	00c1ffc4 	movi	r3,2047
 2007e90:	280ad0fa 	srli	r5,r5,3
 2007e94:	1444b03a 	or	r2,r2,r17
 2007e98:	80c02726 	beq	r16,r3,2007f38 <__subdf3+0x2c0>
 2007e9c:	01000434 	movhi	r4,16
 2007ea0:	213fffc4 	addi	r4,r4,-1
 2007ea4:	80e0703a 	and	r16,r16,r3
 2007ea8:	2908703a 	and	r4,r5,r4
 2007eac:	003fad06 	br	2007d64 <__alt_mem_pic_mem+0xfe003d64>
 2007eb0:	0080690e 	bge	zero,r2,2008058 <__subdf3+0x3e0>
 2007eb4:	50002f26 	beq	r10,zero,2007f74 <__subdf3+0x2fc>
 2007eb8:	0101ffc4 	movi	r4,2047
 2007ebc:	813f9126 	beq	r16,r4,2007d04 <__alt_mem_pic_mem+0xfe003d04>
 2007ec0:	18c02034 	orhi	r3,r3,128
 2007ec4:	01000e04 	movi	r4,56
 2007ec8:	2080b00e 	bge	r4,r2,200818c <__subdf3+0x514>
 2007ecc:	198cb03a 	or	r6,r3,r6
 2007ed0:	300ec03a 	cmpne	r7,r6,zero
 2007ed4:	0005883a 	mov	r2,zero
 2007ed8:	3c4f883a 	add	r7,r7,r17
 2007edc:	3c63803a 	cmpltu	r17,r7,r17
 2007ee0:	114b883a 	add	r5,r2,r5
 2007ee4:	2c4b883a 	add	r5,r5,r17
 2007ee8:	3823883a 	mov	r17,r7
 2007eec:	2880202c 	andhi	r2,r5,128
 2007ef0:	10002e26 	beq	r2,zero,2007fac <__subdf3+0x334>
 2007ef4:	84000044 	addi	r16,r16,1
 2007ef8:	0081ffc4 	movi	r2,2047
 2007efc:	8080de26 	beq	r16,r2,2008278 <__subdf3+0x600>
 2007f00:	00bfe034 	movhi	r2,65408
 2007f04:	10bfffc4 	addi	r2,r2,-1
 2007f08:	288a703a 	and	r5,r5,r2
 2007f0c:	880cd07a 	srli	r6,r17,1
 2007f10:	280897fa 	slli	r4,r5,31
 2007f14:	88c0004c 	andi	r3,r17,1
 2007f18:	30e2b03a 	or	r17,r6,r3
 2007f1c:	280ad07a 	srli	r5,r5,1
 2007f20:	8922b03a 	or	r17,r17,r4
 2007f24:	003f7706 	br	2007d04 <__alt_mem_pic_mem+0xfe003d04>
 2007f28:	1984b03a 	or	r2,r3,r6
 2007f2c:	103f6e26 	beq	r2,zero,2007ce8 <__alt_mem_pic_mem+0xfe003ce8>
 2007f30:	39c03fcc 	andi	r7,r7,255
 2007f34:	003f6d06 	br	2007cec <__alt_mem_pic_mem+0xfe003cec>
 2007f38:	1146b03a 	or	r3,r2,r5
 2007f3c:	18003f26 	beq	r3,zero,200803c <__subdf3+0x3c4>
 2007f40:	00c00434 	movhi	r3,16
 2007f44:	29000234 	orhi	r4,r5,8
 2007f48:	18ffffc4 	addi	r3,r3,-1
 2007f4c:	20c8703a 	and	r4,r4,r3
 2007f50:	003f8406 	br	2007d64 <__alt_mem_pic_mem+0xfe003d64>
 2007f54:	10bfffc4 	addi	r2,r2,-1
 2007f58:	1000501e 	bne	r2,zero,200809c <__subdf3+0x424>
 2007f5c:	898fc83a 	sub	r7,r17,r6
 2007f60:	89e3803a 	cmpltu	r17,r17,r7
 2007f64:	28cbc83a 	sub	r5,r5,r3
 2007f68:	2c4bc83a 	sub	r5,r5,r17
 2007f6c:	3823883a 	mov	r17,r7
 2007f70:	003fa106 	br	2007df8 <__alt_mem_pic_mem+0xfe003df8>
 2007f74:	1988b03a 	or	r4,r3,r6
 2007f78:	203f6226 	beq	r4,zero,2007d04 <__alt_mem_pic_mem+0xfe003d04>
 2007f7c:	10bfffc4 	addi	r2,r2,-1
 2007f80:	10009b1e 	bne	r2,zero,20081f0 <__subdf3+0x578>
 2007f84:	344d883a 	add	r6,r6,r17
 2007f88:	3463803a 	cmpltu	r17,r6,r17
 2007f8c:	194b883a 	add	r5,r3,r5
 2007f90:	2c4b883a 	add	r5,r5,r17
 2007f94:	3023883a 	mov	r17,r6
 2007f98:	003fd406 	br	2007eec <__alt_mem_pic_mem+0xfe003eec>
 2007f9c:	1106b03a 	or	r3,r2,r4
 2007fa0:	1800b426 	beq	r3,zero,2008274 <__subdf3+0x5fc>
 2007fa4:	100b883a 	mov	r5,r2
 2007fa8:	2023883a 	mov	r17,r4
 2007fac:	888001cc 	andi	r2,r17,7
 2007fb0:	103f561e 	bne	r2,zero,2007d0c <__alt_mem_pic_mem+0xfe003d0c>
 2007fb4:	9200004c 	andi	r8,r18,1
 2007fb8:	003fb206 	br	2007e84 <__alt_mem_pic_mem+0xfe003e84>
 2007fbc:	1000531e 	bne	r2,zero,200810c <__subdf3+0x494>
 2007fc0:	80800044 	addi	r2,r16,1
 2007fc4:	1081ffcc 	andi	r2,r2,2047
 2007fc8:	01000044 	movi	r4,1
 2007fcc:	2080a00e 	bge	r4,r2,2008250 <__subdf3+0x5d8>
 2007fd0:	8985c83a 	sub	r2,r17,r6
 2007fd4:	8889803a 	cmpltu	r4,r17,r2
 2007fd8:	28e7c83a 	sub	r19,r5,r3
 2007fdc:	9927c83a 	sub	r19,r19,r4
 2007fe0:	9900202c 	andhi	r4,r19,128
 2007fe4:	20006226 	beq	r4,zero,2008170 <__subdf3+0x4f8>
 2007fe8:	3463c83a 	sub	r17,r6,r17
 2007fec:	194bc83a 	sub	r5,r3,r5
 2007ff0:	344d803a 	cmpltu	r6,r6,r17
 2007ff4:	29a7c83a 	sub	r19,r5,r6
 2007ff8:	3825883a 	mov	r18,r7
 2007ffc:	983f841e 	bne	r19,zero,2007e10 <__alt_mem_pic_mem+0xfe003e10>
 2008000:	8809883a 	mov	r4,r17
 2008004:	20086a00 	call	20086a0 <__clzsi2>
 2008008:	10800804 	addi	r2,r2,32
 200800c:	10fffe04 	addi	r3,r2,-8
 2008010:	010007c4 	movi	r4,31
 2008014:	20ff830e 	bge	r4,r3,2007e24 <__alt_mem_pic_mem+0xfe003e24>
 2008018:	14fff604 	addi	r19,r2,-40
 200801c:	8ce6983a 	sll	r19,r17,r19
 2008020:	0023883a 	mov	r17,zero
 2008024:	1c3f860e 	bge	r3,r16,2007e40 <__alt_mem_pic_mem+0xfe003e40>
 2008028:	017fe034 	movhi	r5,65408
 200802c:	297fffc4 	addi	r5,r5,-1
 2008030:	80e1c83a 	sub	r16,r16,r3
 2008034:	994a703a 	and	r5,r19,r5
 2008038:	003f3206 	br	2007d04 <__alt_mem_pic_mem+0xfe003d04>
 200803c:	0009883a 	mov	r4,zero
 2008040:	0005883a 	mov	r2,zero
 2008044:	003f4706 	br	2007d64 <__alt_mem_pic_mem+0xfe003d64>
 2008048:	198cb03a 	or	r6,r3,r6
 200804c:	300cc03a 	cmpne	r6,r6,zero
 2008050:	0005883a 	mov	r2,zero
 2008054:	003f6306 	br	2007de4 <__alt_mem_pic_mem+0xfe003de4>
 2008058:	10009d1e 	bne	r2,zero,20082d0 <__subdf3+0x658>
 200805c:	81c00044 	addi	r7,r16,1
 2008060:	3881ffcc 	andi	r2,r7,2047
 2008064:	02400044 	movi	r9,1
 2008068:	4880680e 	bge	r9,r2,200820c <__subdf3+0x594>
 200806c:	0081ffc4 	movi	r2,2047
 2008070:	3880ae26 	beq	r7,r2,200832c <__subdf3+0x6b4>
 2008074:	344d883a 	add	r6,r6,r17
 2008078:	3463803a 	cmpltu	r17,r6,r17
 200807c:	194b883a 	add	r5,r3,r5
 2008080:	2c4b883a 	add	r5,r5,r17
 2008084:	282297fa 	slli	r17,r5,31
 2008088:	300cd07a 	srli	r6,r6,1
 200808c:	280ad07a 	srli	r5,r5,1
 2008090:	3821883a 	mov	r16,r7
 2008094:	89a2b03a 	or	r17,r17,r6
 2008098:	003f1a06 	br	2007d04 <__alt_mem_pic_mem+0xfe003d04>
 200809c:	0101ffc4 	movi	r4,2047
 20080a0:	813f431e 	bne	r16,r4,2007db0 <__alt_mem_pic_mem+0xfe003db0>
 20080a4:	003f1706 	br	2007d04 <__alt_mem_pic_mem+0xfe003d04>
 20080a8:	80bff844 	addi	r2,r16,-31
 20080ac:	00c00804 	movi	r3,32
 20080b0:	9884d83a 	srl	r2,r19,r2
 20080b4:	28c05126 	beq	r5,r3,20081fc <__subdf3+0x584>
 20080b8:	00c00fc4 	movi	r3,63
 20080bc:	1c21c83a 	sub	r16,r3,r16
 20080c0:	9c26983a 	sll	r19,r19,r16
 20080c4:	9c62b03a 	or	r17,r19,r17
 20080c8:	8822c03a 	cmpne	r17,r17,zero
 20080cc:	88a2b03a 	or	r17,r17,r2
 20080d0:	000b883a 	mov	r5,zero
 20080d4:	0021883a 	mov	r16,zero
 20080d8:	003fb406 	br	2007fac <__alt_mem_pic_mem+0xfe003fac>
 20080dc:	113ff804 	addi	r4,r2,-32
 20080e0:	01c00804 	movi	r7,32
 20080e4:	1908d83a 	srl	r4,r3,r4
 20080e8:	11c04626 	beq	r2,r7,2008204 <__subdf3+0x58c>
 20080ec:	01c01004 	movi	r7,64
 20080f0:	3885c83a 	sub	r2,r7,r2
 20080f4:	1884983a 	sll	r2,r3,r2
 20080f8:	118cb03a 	or	r6,r2,r6
 20080fc:	300cc03a 	cmpne	r6,r6,zero
 2008100:	310cb03a 	or	r6,r6,r4
 2008104:	0005883a 	mov	r2,zero
 2008108:	003f3606 	br	2007de4 <__alt_mem_pic_mem+0xfe003de4>
 200810c:	80002b26 	beq	r16,zero,20081bc <__subdf3+0x544>
 2008110:	0101ffc4 	movi	r4,2047
 2008114:	51006926 	beq	r10,r4,20082bc <__subdf3+0x644>
 2008118:	0085c83a 	sub	r2,zero,r2
 200811c:	29402034 	orhi	r5,r5,128
 2008120:	01000e04 	movi	r4,56
 2008124:	20807d16 	blt	r4,r2,200831c <__subdf3+0x6a4>
 2008128:	010007c4 	movi	r4,31
 200812c:	2080d916 	blt	r4,r2,2008494 <__subdf3+0x81c>
 2008130:	01000804 	movi	r4,32
 2008134:	2089c83a 	sub	r4,r4,r2
 2008138:	2912983a 	sll	r9,r5,r4
 200813c:	8890d83a 	srl	r8,r17,r2
 2008140:	8908983a 	sll	r4,r17,r4
 2008144:	2884d83a 	srl	r2,r5,r2
 2008148:	4a22b03a 	or	r17,r9,r8
 200814c:	2008c03a 	cmpne	r4,r4,zero
 2008150:	8922b03a 	or	r17,r17,r4
 2008154:	3463c83a 	sub	r17,r6,r17
 2008158:	1885c83a 	sub	r2,r3,r2
 200815c:	344d803a 	cmpltu	r6,r6,r17
 2008160:	118bc83a 	sub	r5,r2,r6
 2008164:	5021883a 	mov	r16,r10
 2008168:	3825883a 	mov	r18,r7
 200816c:	003f2206 	br	2007df8 <__alt_mem_pic_mem+0xfe003df8>
 2008170:	9886b03a 	or	r3,r19,r2
 2008174:	18001c1e 	bne	r3,zero,20081e8 <__subdf3+0x570>
 2008178:	0011883a 	mov	r8,zero
 200817c:	000b883a 	mov	r5,zero
 2008180:	0023883a 	mov	r17,zero
 2008184:	0021883a 	mov	r16,zero
 2008188:	003f3e06 	br	2007e84 <__alt_mem_pic_mem+0xfe003e84>
 200818c:	010007c4 	movi	r4,31
 2008190:	20803c16 	blt	r4,r2,2008284 <__subdf3+0x60c>
 2008194:	01000804 	movi	r4,32
 2008198:	2089c83a 	sub	r4,r4,r2
 200819c:	1912983a 	sll	r9,r3,r4
 20081a0:	308ed83a 	srl	r7,r6,r2
 20081a4:	3108983a 	sll	r4,r6,r4
 20081a8:	1884d83a 	srl	r2,r3,r2
 20081ac:	49ceb03a 	or	r7,r9,r7
 20081b0:	2008c03a 	cmpne	r4,r4,zero
 20081b4:	390eb03a 	or	r7,r7,r4
 20081b8:	003f4706 	br	2007ed8 <__alt_mem_pic_mem+0xfe003ed8>
 20081bc:	2c48b03a 	or	r4,r5,r17
 20081c0:	20003e26 	beq	r4,zero,20082bc <__subdf3+0x644>
 20081c4:	0084303a 	nor	r2,zero,r2
 20081c8:	10003a1e 	bne	r2,zero,20082b4 <__subdf3+0x63c>
 20081cc:	3463c83a 	sub	r17,r6,r17
 20081d0:	194bc83a 	sub	r5,r3,r5
 20081d4:	344d803a 	cmpltu	r6,r6,r17
 20081d8:	298bc83a 	sub	r5,r5,r6
 20081dc:	5021883a 	mov	r16,r10
 20081e0:	3825883a 	mov	r18,r7
 20081e4:	003f0406 	br	2007df8 <__alt_mem_pic_mem+0xfe003df8>
 20081e8:	1023883a 	mov	r17,r2
 20081ec:	003f0706 	br	2007e0c <__alt_mem_pic_mem+0xfe003e0c>
 20081f0:	0101ffc4 	movi	r4,2047
 20081f4:	813f331e 	bne	r16,r4,2007ec4 <__alt_mem_pic_mem+0xfe003ec4>
 20081f8:	003ec206 	br	2007d04 <__alt_mem_pic_mem+0xfe003d04>
 20081fc:	0027883a 	mov	r19,zero
 2008200:	003fb006 	br	20080c4 <__alt_mem_pic_mem+0xfe0040c4>
 2008204:	0005883a 	mov	r2,zero
 2008208:	003fbb06 	br	20080f8 <__alt_mem_pic_mem+0xfe0040f8>
 200820c:	2c44b03a 	or	r2,r5,r17
 2008210:	80008b1e 	bne	r16,zero,2008440 <__subdf3+0x7c8>
 2008214:	1000b526 	beq	r2,zero,20084ec <__subdf3+0x874>
 2008218:	1984b03a 	or	r2,r3,r6
 200821c:	103eb926 	beq	r2,zero,2007d04 <__alt_mem_pic_mem+0xfe003d04>
 2008220:	3449883a 	add	r4,r6,r17
 2008224:	2463803a 	cmpltu	r17,r4,r17
 2008228:	194b883a 	add	r5,r3,r5
 200822c:	2c4b883a 	add	r5,r5,r17
 2008230:	2880202c 	andhi	r2,r5,128
 2008234:	2023883a 	mov	r17,r4
 2008238:	103f5c26 	beq	r2,zero,2007fac <__alt_mem_pic_mem+0xfe003fac>
 200823c:	00bfe034 	movhi	r2,65408
 2008240:	10bfffc4 	addi	r2,r2,-1
 2008244:	4821883a 	mov	r16,r9
 2008248:	288a703a 	and	r5,r5,r2
 200824c:	003ead06 	br	2007d04 <__alt_mem_pic_mem+0xfe003d04>
 2008250:	2c44b03a 	or	r2,r5,r17
 2008254:	8000291e 	bne	r16,zero,20082fc <__subdf3+0x684>
 2008258:	10004f1e 	bne	r2,zero,2008398 <__subdf3+0x720>
 200825c:	1984b03a 	or	r2,r3,r6
 2008260:	10000426 	beq	r2,zero,2008274 <__subdf3+0x5fc>
 2008264:	180b883a 	mov	r5,r3
 2008268:	3023883a 	mov	r17,r6
 200826c:	3825883a 	mov	r18,r7
 2008270:	003ea406 	br	2007d04 <__alt_mem_pic_mem+0xfe003d04>
 2008274:	0011883a 	mov	r8,zero
 2008278:	000b883a 	mov	r5,zero
 200827c:	0023883a 	mov	r17,zero
 2008280:	003f0006 	br	2007e84 <__alt_mem_pic_mem+0xfe003e84>
 2008284:	11fff804 	addi	r7,r2,-32
 2008288:	19c8d83a 	srl	r4,r3,r7
 200828c:	01c00804 	movi	r7,32
 2008290:	11c07e26 	beq	r2,r7,200848c <__subdf3+0x814>
 2008294:	01c01004 	movi	r7,64
 2008298:	3885c83a 	sub	r2,r7,r2
 200829c:	1884983a 	sll	r2,r3,r2
 20082a0:	118cb03a 	or	r6,r2,r6
 20082a4:	300ec03a 	cmpne	r7,r6,zero
 20082a8:	390eb03a 	or	r7,r7,r4
 20082ac:	0005883a 	mov	r2,zero
 20082b0:	003f0906 	br	2007ed8 <__alt_mem_pic_mem+0xfe003ed8>
 20082b4:	0101ffc4 	movi	r4,2047
 20082b8:	513f991e 	bne	r10,r4,2008120 <__alt_mem_pic_mem+0xfe004120>
 20082bc:	180b883a 	mov	r5,r3
 20082c0:	3023883a 	mov	r17,r6
 20082c4:	5021883a 	mov	r16,r10
 20082c8:	3825883a 	mov	r18,r7
 20082cc:	003e8d06 	br	2007d04 <__alt_mem_pic_mem+0xfe003d04>
 20082d0:	80001a1e 	bne	r16,zero,200833c <__subdf3+0x6c4>
 20082d4:	2c48b03a 	or	r4,r5,r17
 20082d8:	20005526 	beq	r4,zero,2008430 <__subdf3+0x7b8>
 20082dc:	0084303a 	nor	r2,zero,r2
 20082e0:	1000511e 	bne	r2,zero,2008428 <__subdf3+0x7b0>
 20082e4:	89a3883a 	add	r17,r17,r6
 20082e8:	194b883a 	add	r5,r3,r5
 20082ec:	898d803a 	cmpltu	r6,r17,r6
 20082f0:	298b883a 	add	r5,r5,r6
 20082f4:	5021883a 	mov	r16,r10
 20082f8:	003efc06 	br	2007eec <__alt_mem_pic_mem+0xfe003eec>
 20082fc:	1000341e 	bne	r2,zero,20083d0 <__subdf3+0x758>
 2008300:	1984b03a 	or	r2,r3,r6
 2008304:	10006f26 	beq	r2,zero,20084c4 <__subdf3+0x84c>
 2008308:	180b883a 	mov	r5,r3
 200830c:	3023883a 	mov	r17,r6
 2008310:	3825883a 	mov	r18,r7
 2008314:	0401ffc4 	movi	r16,2047
 2008318:	003e7a06 	br	2007d04 <__alt_mem_pic_mem+0xfe003d04>
 200831c:	2c62b03a 	or	r17,r5,r17
 2008320:	8822c03a 	cmpne	r17,r17,zero
 2008324:	0005883a 	mov	r2,zero
 2008328:	003f8a06 	br	2008154 <__alt_mem_pic_mem+0xfe004154>
 200832c:	3821883a 	mov	r16,r7
 2008330:	000b883a 	mov	r5,zero
 2008334:	0023883a 	mov	r17,zero
 2008338:	003ed206 	br	2007e84 <__alt_mem_pic_mem+0xfe003e84>
 200833c:	0101ffc4 	movi	r4,2047
 2008340:	51003b26 	beq	r10,r4,2008430 <__subdf3+0x7b8>
 2008344:	0085c83a 	sub	r2,zero,r2
 2008348:	29402034 	orhi	r5,r5,128
 200834c:	01000e04 	movi	r4,56
 2008350:	20806216 	blt	r4,r2,20084dc <__subdf3+0x864>
 2008354:	010007c4 	movi	r4,31
 2008358:	20806b16 	blt	r4,r2,2008508 <__subdf3+0x890>
 200835c:	01000804 	movi	r4,32
 2008360:	2089c83a 	sub	r4,r4,r2
 2008364:	2912983a 	sll	r9,r5,r4
 2008368:	888ed83a 	srl	r7,r17,r2
 200836c:	8908983a 	sll	r4,r17,r4
 2008370:	2884d83a 	srl	r2,r5,r2
 2008374:	49e2b03a 	or	r17,r9,r7
 2008378:	2008c03a 	cmpne	r4,r4,zero
 200837c:	8922b03a 	or	r17,r17,r4
 2008380:	89a3883a 	add	r17,r17,r6
 2008384:	10c5883a 	add	r2,r2,r3
 2008388:	898d803a 	cmpltu	r6,r17,r6
 200838c:	118b883a 	add	r5,r2,r6
 2008390:	5021883a 	mov	r16,r10
 2008394:	003ed506 	br	2007eec <__alt_mem_pic_mem+0xfe003eec>
 2008398:	1984b03a 	or	r2,r3,r6
 200839c:	103e5926 	beq	r2,zero,2007d04 <__alt_mem_pic_mem+0xfe003d04>
 20083a0:	8989c83a 	sub	r4,r17,r6
 20083a4:	8911803a 	cmpltu	r8,r17,r4
 20083a8:	28c5c83a 	sub	r2,r5,r3
 20083ac:	1205c83a 	sub	r2,r2,r8
 20083b0:	1200202c 	andhi	r8,r2,128
 20083b4:	403ef926 	beq	r8,zero,2007f9c <__alt_mem_pic_mem+0xfe003f9c>
 20083b8:	3463c83a 	sub	r17,r6,r17
 20083bc:	194bc83a 	sub	r5,r3,r5
 20083c0:	344d803a 	cmpltu	r6,r6,r17
 20083c4:	298bc83a 	sub	r5,r5,r6
 20083c8:	3825883a 	mov	r18,r7
 20083cc:	003e4d06 	br	2007d04 <__alt_mem_pic_mem+0xfe003d04>
 20083d0:	1984b03a 	or	r2,r3,r6
 20083d4:	10002b26 	beq	r2,zero,2008484 <__subdf3+0x80c>
 20083d8:	2808d0fa 	srli	r4,r5,3
 20083dc:	8822d0fa 	srli	r17,r17,3
 20083e0:	280a977a 	slli	r5,r5,29
 20083e4:	2080022c 	andhi	r2,r4,8
 20083e8:	2c62b03a 	or	r17,r5,r17
 20083ec:	10000826 	beq	r2,zero,2008410 <__subdf3+0x798>
 20083f0:	1810d0fa 	srli	r8,r3,3
 20083f4:	4080022c 	andhi	r2,r8,8
 20083f8:	1000051e 	bne	r2,zero,2008410 <__subdf3+0x798>
 20083fc:	300cd0fa 	srli	r6,r6,3
 2008400:	1804977a 	slli	r2,r3,29
 2008404:	4009883a 	mov	r4,r8
 2008408:	3825883a 	mov	r18,r7
 200840c:	11a2b03a 	or	r17,r2,r6
 2008410:	880ad77a 	srli	r5,r17,29
 2008414:	200890fa 	slli	r4,r4,3
 2008418:	882290fa 	slli	r17,r17,3
 200841c:	0401ffc4 	movi	r16,2047
 2008420:	290ab03a 	or	r5,r5,r4
 2008424:	003e3706 	br	2007d04 <__alt_mem_pic_mem+0xfe003d04>
 2008428:	0101ffc4 	movi	r4,2047
 200842c:	513fc71e 	bne	r10,r4,200834c <__alt_mem_pic_mem+0xfe00434c>
 2008430:	180b883a 	mov	r5,r3
 2008434:	3023883a 	mov	r17,r6
 2008438:	5021883a 	mov	r16,r10
 200843c:	003e3106 	br	2007d04 <__alt_mem_pic_mem+0xfe003d04>
 2008440:	10002d26 	beq	r2,zero,20084f8 <__subdf3+0x880>
 2008444:	1984b03a 	or	r2,r3,r6
 2008448:	10000e26 	beq	r2,zero,2008484 <__subdf3+0x80c>
 200844c:	2808d0fa 	srli	r4,r5,3
 2008450:	8822d0fa 	srli	r17,r17,3
 2008454:	280a977a 	slli	r5,r5,29
 2008458:	2080022c 	andhi	r2,r4,8
 200845c:	2c62b03a 	or	r17,r5,r17
 2008460:	103feb26 	beq	r2,zero,2008410 <__alt_mem_pic_mem+0xfe004410>
 2008464:	180ed0fa 	srli	r7,r3,3
 2008468:	3880022c 	andhi	r2,r7,8
 200846c:	103fe81e 	bne	r2,zero,2008410 <__alt_mem_pic_mem+0xfe004410>
 2008470:	300cd0fa 	srli	r6,r6,3
 2008474:	1804977a 	slli	r2,r3,29
 2008478:	3809883a 	mov	r4,r7
 200847c:	11a2b03a 	or	r17,r2,r6
 2008480:	003fe306 	br	2008410 <__alt_mem_pic_mem+0xfe004410>
 2008484:	0401ffc4 	movi	r16,2047
 2008488:	003e1e06 	br	2007d04 <__alt_mem_pic_mem+0xfe003d04>
 200848c:	0005883a 	mov	r2,zero
 2008490:	003f8306 	br	20082a0 <__alt_mem_pic_mem+0xfe0042a0>
 2008494:	113ff804 	addi	r4,r2,-32
 2008498:	02000804 	movi	r8,32
 200849c:	2908d83a 	srl	r4,r5,r4
 20084a0:	12002526 	beq	r2,r8,2008538 <__subdf3+0x8c0>
 20084a4:	02001004 	movi	r8,64
 20084a8:	4085c83a 	sub	r2,r8,r2
 20084ac:	288a983a 	sll	r5,r5,r2
 20084b0:	2c62b03a 	or	r17,r5,r17
 20084b4:	8822c03a 	cmpne	r17,r17,zero
 20084b8:	8922b03a 	or	r17,r17,r4
 20084bc:	0005883a 	mov	r2,zero
 20084c0:	003f2406 	br	2008154 <__alt_mem_pic_mem+0xfe004154>
 20084c4:	01402034 	movhi	r5,128
 20084c8:	0011883a 	mov	r8,zero
 20084cc:	297fffc4 	addi	r5,r5,-1
 20084d0:	047ffe04 	movi	r17,-8
 20084d4:	0401ffc4 	movi	r16,2047
 20084d8:	003e6a06 	br	2007e84 <__alt_mem_pic_mem+0xfe003e84>
 20084dc:	2c62b03a 	or	r17,r5,r17
 20084e0:	8822c03a 	cmpne	r17,r17,zero
 20084e4:	0005883a 	mov	r2,zero
 20084e8:	003fa506 	br	2008380 <__alt_mem_pic_mem+0xfe004380>
 20084ec:	180b883a 	mov	r5,r3
 20084f0:	3023883a 	mov	r17,r6
 20084f4:	003e0306 	br	2007d04 <__alt_mem_pic_mem+0xfe003d04>
 20084f8:	180b883a 	mov	r5,r3
 20084fc:	3023883a 	mov	r17,r6
 2008500:	0401ffc4 	movi	r16,2047
 2008504:	003dff06 	br	2007d04 <__alt_mem_pic_mem+0xfe003d04>
 2008508:	113ff804 	addi	r4,r2,-32
 200850c:	01c00804 	movi	r7,32
 2008510:	2908d83a 	srl	r4,r5,r4
 2008514:	11c00a26 	beq	r2,r7,2008540 <__subdf3+0x8c8>
 2008518:	01c01004 	movi	r7,64
 200851c:	3885c83a 	sub	r2,r7,r2
 2008520:	288a983a 	sll	r5,r5,r2
 2008524:	2c62b03a 	or	r17,r5,r17
 2008528:	8822c03a 	cmpne	r17,r17,zero
 200852c:	8922b03a 	or	r17,r17,r4
 2008530:	0005883a 	mov	r2,zero
 2008534:	003f9206 	br	2008380 <__alt_mem_pic_mem+0xfe004380>
 2008538:	000b883a 	mov	r5,zero
 200853c:	003fdc06 	br	20084b0 <__alt_mem_pic_mem+0xfe0044b0>
 2008540:	000b883a 	mov	r5,zero
 2008544:	003ff706 	br	2008524 <__alt_mem_pic_mem+0xfe004524>

02008548 <__fixdfsi>:
 2008548:	2806d53a 	srli	r3,r5,20
 200854c:	00800434 	movhi	r2,16
 2008550:	10bfffc4 	addi	r2,r2,-1
 2008554:	18c1ffcc 	andi	r3,r3,2047
 2008558:	0180ff84 	movi	r6,1022
 200855c:	2884703a 	and	r2,r5,r2
 2008560:	280ad7fa 	srli	r5,r5,31
 2008564:	30c0130e 	bge	r6,r3,20085b4 <__fixdfsi+0x6c>
 2008568:	01810744 	movi	r6,1053
 200856c:	30c00d16 	blt	r6,r3,20085a4 <__fixdfsi+0x5c>
 2008570:	01810cc4 	movi	r6,1075
 2008574:	30cdc83a 	sub	r6,r6,r3
 2008578:	01c007c4 	movi	r7,31
 200857c:	10800434 	orhi	r2,r2,16
 2008580:	39800e0e 	bge	r7,r6,20085bc <__fixdfsi+0x74>
 2008584:	010104c4 	movi	r4,1043
 2008588:	20c7c83a 	sub	r3,r4,r3
 200858c:	10c6d83a 	srl	r3,r2,r3
 2008590:	29403fcc 	andi	r5,r5,255
 2008594:	0145c83a 	sub	r2,zero,r5
 2008598:	1884f03a 	xor	r2,r3,r2
 200859c:	1145883a 	add	r2,r2,r5
 20085a0:	f800283a 	ret
 20085a4:	00a00034 	movhi	r2,32768
 20085a8:	10bfffc4 	addi	r2,r2,-1
 20085ac:	2885883a 	add	r2,r5,r2
 20085b0:	f800283a 	ret
 20085b4:	0005883a 	mov	r2,zero
 20085b8:	f800283a 	ret
 20085bc:	18fefb44 	addi	r3,r3,-1043
 20085c0:	2188d83a 	srl	r4,r4,r6
 20085c4:	10c6983a 	sll	r3,r2,r3
 20085c8:	20c6b03a 	or	r3,r4,r3
 20085cc:	003ff006 	br	2008590 <__alt_mem_pic_mem+0xfe004590>

020085d0 <__floatsidf>:
 20085d0:	defffd04 	addi	sp,sp,-12
 20085d4:	dc400115 	stw	r17,4(sp)
 20085d8:	dfc00215 	stw	ra,8(sp)
 20085dc:	dc000015 	stw	r16,0(sp)
 20085e0:	2023883a 	mov	r17,r4
 20085e4:	20001426 	beq	r4,zero,2008638 <__floatsidf+0x68>
 20085e8:	2020d7fa 	srli	r16,r4,31
 20085ec:	80000126 	beq	r16,zero,20085f4 <__floatsidf+0x24>
 20085f0:	0123c83a 	sub	r17,zero,r4
 20085f4:	8809883a 	mov	r4,r17
 20085f8:	20086a00 	call	20086a0 <__clzsi2>
 20085fc:	01410784 	movi	r5,1054
 2008600:	00c00284 	movi	r3,10
 2008604:	288bc83a 	sub	r5,r5,r2
 2008608:	18801c16 	blt	r3,r2,200867c <__floatsidf+0xac>
 200860c:	00c002c4 	movi	r3,11
 2008610:	1887c83a 	sub	r3,r3,r2
 2008614:	88c8d83a 	srl	r4,r17,r3
 2008618:	00c00434 	movhi	r3,16
 200861c:	18ffffc4 	addi	r3,r3,-1
 2008620:	10800544 	addi	r2,r2,21
 2008624:	20c8703a 	and	r4,r4,r3
 2008628:	8884983a 	sll	r2,r17,r2
 200862c:	28c1ffcc 	andi	r3,r5,2047
 2008630:	800d883a 	mov	r6,r16
 2008634:	00000406 	br	2008648 <__floatsidf+0x78>
 2008638:	000d883a 	mov	r6,zero
 200863c:	0007883a 	mov	r3,zero
 2008640:	0009883a 	mov	r4,zero
 2008644:	0005883a 	mov	r2,zero
 2008648:	180a953a 	slli	r5,r3,20
 200864c:	31803fcc 	andi	r6,r6,255
 2008650:	00c00434 	movhi	r3,16
 2008654:	300c97fa 	slli	r6,r6,31
 2008658:	18ffffc4 	addi	r3,r3,-1
 200865c:	20c6703a 	and	r3,r4,r3
 2008660:	1946b03a 	or	r3,r3,r5
 2008664:	1986b03a 	or	r3,r3,r6
 2008668:	dfc00217 	ldw	ra,8(sp)
 200866c:	dc400117 	ldw	r17,4(sp)
 2008670:	dc000017 	ldw	r16,0(sp)
 2008674:	dec00304 	addi	sp,sp,12
 2008678:	f800283a 	ret
 200867c:	10fffd44 	addi	r3,r2,-11
 2008680:	88c8983a 	sll	r4,r17,r3
 2008684:	00800434 	movhi	r2,16
 2008688:	10bfffc4 	addi	r2,r2,-1
 200868c:	2088703a 	and	r4,r4,r2
 2008690:	28c1ffcc 	andi	r3,r5,2047
 2008694:	800d883a 	mov	r6,r16
 2008698:	0005883a 	mov	r2,zero
 200869c:	003fea06 	br	2008648 <__alt_mem_pic_mem+0xfe004648>

020086a0 <__clzsi2>:
 20086a0:	00bfffd4 	movui	r2,65535
 20086a4:	11000b36 	bltu	r2,r4,20086d4 <__clzsi2+0x34>
 20086a8:	00803fc4 	movi	r2,255
 20086ac:	1100122e 	bgeu	r2,r4,20086f8 <__clzsi2+0x58>
 20086b0:	00c00204 	movi	r3,8
 20086b4:	01400604 	movi	r5,24
 20086b8:	20c8d83a 	srl	r4,r4,r3
 20086bc:	008080b4 	movhi	r2,514
 20086c0:	10973844 	addi	r2,r2,23777
 20086c4:	1109883a 	add	r4,r2,r4
 20086c8:	20800003 	ldbu	r2,0(r4)
 20086cc:	2885c83a 	sub	r2,r5,r2
 20086d0:	f800283a 	ret
 20086d4:	00804034 	movhi	r2,256
 20086d8:	10bfffc4 	addi	r2,r2,-1
 20086dc:	11000336 	bltu	r2,r4,20086ec <__clzsi2+0x4c>
 20086e0:	00c00404 	movi	r3,16
 20086e4:	180b883a 	mov	r5,r3
 20086e8:	003ff306 	br	20086b8 <__alt_mem_pic_mem+0xfe0046b8>
 20086ec:	00c00604 	movi	r3,24
 20086f0:	01400204 	movi	r5,8
 20086f4:	003ff006 	br	20086b8 <__alt_mem_pic_mem+0xfe0046b8>
 20086f8:	0007883a 	mov	r3,zero
 20086fc:	01400804 	movi	r5,32
 2008700:	003fed06 	br	20086b8 <__alt_mem_pic_mem+0xfe0046b8>

02008704 <__errno>:
 2008704:	008080f4 	movhi	r2,515
 2008708:	10a02304 	addi	r2,r2,-32628
 200870c:	10800017 	ldw	r2,0(r2)
 2008710:	f800283a 	ret

02008714 <malloc>:
 2008714:	008080f4 	movhi	r2,515
 2008718:	10a02304 	addi	r2,r2,-32628
 200871c:	200b883a 	mov	r5,r4
 2008720:	11000017 	ldw	r4,0(r2)
 2008724:	200873c1 	jmpi	200873c <_malloc_r>

02008728 <free>:
 2008728:	008080f4 	movhi	r2,515
 200872c:	10a02304 	addi	r2,r2,-32628
 2008730:	200b883a 	mov	r5,r4
 2008734:	11000017 	ldw	r4,0(r2)
 2008738:	2009d641 	jmpi	2009d64 <_free_r>

0200873c <_malloc_r>:
 200873c:	defff604 	addi	sp,sp,-40
 2008740:	dfc00915 	stw	ra,36(sp)
 2008744:	df000815 	stw	fp,32(sp)
 2008748:	ddc00715 	stw	r23,28(sp)
 200874c:	dd800615 	stw	r22,24(sp)
 2008750:	dd400515 	stw	r21,20(sp)
 2008754:	dd000415 	stw	r20,16(sp)
 2008758:	dcc00315 	stw	r19,12(sp)
 200875c:	dc800215 	stw	r18,8(sp)
 2008760:	dc400115 	stw	r17,4(sp)
 2008764:	dc000015 	stw	r16,0(sp)
 2008768:	288002c4 	addi	r2,r5,11
 200876c:	00c00584 	movi	r3,22
 2008770:	1880042e 	bgeu	r3,r2,2008784 <_malloc_r+0x48>
 2008774:	047ffe04 	movi	r17,-8
 2008778:	1462703a 	and	r17,r2,r17
 200877c:	8800020e 	bge	r17,zero,2008788 <_malloc_r+0x4c>
 2008780:	00000206 	br	200878c <_malloc_r+0x50>
 2008784:	04400404 	movi	r17,16
 2008788:	8940032e 	bgeu	r17,r5,2008798 <_malloc_r+0x5c>
 200878c:	00800304 	movi	r2,12
 2008790:	20800015 	stw	r2,0(r4)
 2008794:	00017206 	br	2008d60 <_malloc_r+0x624>
 2008798:	2027883a 	mov	r19,r4
 200879c:	200a7480 	call	200a748 <__malloc_lock>
 20087a0:	048080b4 	movhi	r18,514
 20087a4:	00807dc4 	movi	r2,503
 20087a8:	949ea804 	addi	r18,r18,31392
 20087ac:	14401536 	bltu	r2,r17,2008804 <_malloc_r+0xc8>
 20087b0:	8804d0fa 	srli	r2,r17,3
 20087b4:	1087883a 	add	r3,r2,r2
 20087b8:	18c7883a 	add	r3,r3,r3
 20087bc:	18c7883a 	add	r3,r3,r3
 20087c0:	90c7883a 	add	r3,r18,r3
 20087c4:	1c000317 	ldw	r16,12(r3)
 20087c8:	80c0031e 	bne	r16,r3,20087d8 <_malloc_r+0x9c>
 20087cc:	80c00204 	addi	r3,r16,8
 20087d0:	84000517 	ldw	r16,20(r16)
 20087d4:	80c00926 	beq	r16,r3,20087fc <_malloc_r+0xc0>
 20087d8:	80c00117 	ldw	r3,4(r16)
 20087dc:	00bfff04 	movi	r2,-4
 20087e0:	81000217 	ldw	r4,8(r16)
 20087e4:	1884703a 	and	r2,r3,r2
 20087e8:	80c00317 	ldw	r3,12(r16)
 20087ec:	8085883a 	add	r2,r16,r2
 20087f0:	20c00315 	stw	r3,12(r4)
 20087f4:	19000215 	stw	r4,8(r3)
 20087f8:	00002d06 	br	20088b0 <_malloc_r+0x174>
 20087fc:	10800084 	addi	r2,r2,2
 2008800:	00003506 	br	20088d8 <_malloc_r+0x19c>
 2008804:	8804d27a 	srli	r2,r17,9
 2008808:	10001826 	beq	r2,zero,200886c <_malloc_r+0x130>
 200880c:	00c00104 	movi	r3,4
 2008810:	18800336 	bltu	r3,r2,2008820 <_malloc_r+0xe4>
 2008814:	8804d1ba 	srli	r2,r17,6
 2008818:	10800e04 	addi	r2,r2,56
 200881c:	00001606 	br	2008878 <_malloc_r+0x13c>
 2008820:	00c00504 	movi	r3,20
 2008824:	18800236 	bltu	r3,r2,2008830 <_malloc_r+0xf4>
 2008828:	108016c4 	addi	r2,r2,91
 200882c:	00001206 	br	2008878 <_malloc_r+0x13c>
 2008830:	00c01504 	movi	r3,84
 2008834:	18800336 	bltu	r3,r2,2008844 <_malloc_r+0x108>
 2008838:	8804d33a 	srli	r2,r17,12
 200883c:	10801b84 	addi	r2,r2,110
 2008840:	00000d06 	br	2008878 <_malloc_r+0x13c>
 2008844:	00c05504 	movi	r3,340
 2008848:	18800336 	bltu	r3,r2,2008858 <_malloc_r+0x11c>
 200884c:	8804d3fa 	srli	r2,r17,15
 2008850:	10801dc4 	addi	r2,r2,119
 2008854:	00000806 	br	2008878 <_malloc_r+0x13c>
 2008858:	00c15504 	movi	r3,1364
 200885c:	18800536 	bltu	r3,r2,2008874 <_malloc_r+0x138>
 2008860:	8804d4ba 	srli	r2,r17,18
 2008864:	10801f04 	addi	r2,r2,124
 2008868:	00000306 	br	2008878 <_malloc_r+0x13c>
 200886c:	00800fc4 	movi	r2,63
 2008870:	00000106 	br	2008878 <_malloc_r+0x13c>
 2008874:	00801f84 	movi	r2,126
 2008878:	1087883a 	add	r3,r2,r2
 200887c:	18c7883a 	add	r3,r3,r3
 2008880:	18c7883a 	add	r3,r3,r3
 2008884:	90c7883a 	add	r3,r18,r3
 2008888:	1c000317 	ldw	r16,12(r3)
 200888c:	01bfff04 	movi	r6,-4
 2008890:	01c003c4 	movi	r7,15
 2008894:	00000906 	br	20088bc <_malloc_r+0x180>
 2008898:	28000716 	blt	r5,zero,20088b8 <_malloc_r+0x17c>
 200889c:	80800317 	ldw	r2,12(r16)
 20088a0:	80c00217 	ldw	r3,8(r16)
 20088a4:	18800315 	stw	r2,12(r3)
 20088a8:	10c00215 	stw	r3,8(r2)
 20088ac:	8105883a 	add	r2,r16,r4
 20088b0:	10c00117 	ldw	r3,4(r2)
 20088b4:	00013106 	br	2008d7c <_malloc_r+0x640>
 20088b8:	84000317 	ldw	r16,12(r16)
 20088bc:	80c00526 	beq	r16,r3,20088d4 <_malloc_r+0x198>
 20088c0:	81000117 	ldw	r4,4(r16)
 20088c4:	2188703a 	and	r4,r4,r6
 20088c8:	244bc83a 	sub	r5,r4,r17
 20088cc:	397ff20e 	bge	r7,r5,2008898 <__alt_mem_pic_mem+0xfe004898>
 20088d0:	10bfffc4 	addi	r2,r2,-1
 20088d4:	10800044 	addi	r2,r2,1
 20088d8:	010080b4 	movhi	r4,514
 20088dc:	94000417 	ldw	r16,16(r18)
 20088e0:	211ea804 	addi	r4,r4,31392
 20088e4:	21800204 	addi	r6,r4,8
 20088e8:	81805c26 	beq	r16,r6,2008a5c <_malloc_r+0x320>
 20088ec:	81400117 	ldw	r5,4(r16)
 20088f0:	00ffff04 	movi	r3,-4
 20088f4:	01c003c4 	movi	r7,15
 20088f8:	28c6703a 	and	r3,r5,r3
 20088fc:	1c4bc83a 	sub	r5,r3,r17
 2008900:	3940060e 	bge	r7,r5,200891c <_malloc_r+0x1e0>
 2008904:	88800054 	ori	r2,r17,1
 2008908:	8447883a 	add	r3,r16,r17
 200890c:	80800115 	stw	r2,4(r16)
 2008910:	20c00515 	stw	r3,20(r4)
 2008914:	20c00415 	stw	r3,16(r4)
 2008918:	00007706 	br	2008af8 <_malloc_r+0x3bc>
 200891c:	21800515 	stw	r6,20(r4)
 2008920:	21800415 	stw	r6,16(r4)
 2008924:	28000516 	blt	r5,zero,200893c <_malloc_r+0x200>
 2008928:	80c7883a 	add	r3,r16,r3
 200892c:	18800117 	ldw	r2,4(r3)
 2008930:	10800054 	ori	r2,r2,1
 2008934:	18800115 	stw	r2,4(r3)
 2008938:	00011206 	br	2008d84 <_malloc_r+0x648>
 200893c:	01407fc4 	movi	r5,511
 2008940:	28c01136 	bltu	r5,r3,2008988 <_malloc_r+0x24c>
 2008944:	1806d0fa 	srli	r3,r3,3
 2008948:	01400044 	movi	r5,1
 200894c:	180fd0ba 	srai	r7,r3,2
 2008950:	18c7883a 	add	r3,r3,r3
 2008954:	18c7883a 	add	r3,r3,r3
 2008958:	29ce983a 	sll	r7,r5,r7
 200895c:	21400117 	ldw	r5,4(r4)
 2008960:	18c7883a 	add	r3,r3,r3
 2008964:	394ab03a 	or	r5,r7,r5
 2008968:	21400115 	stw	r5,4(r4)
 200896c:	1909883a 	add	r4,r3,r4
 2008970:	20c00217 	ldw	r3,8(r4)
 2008974:	81000315 	stw	r4,12(r16)
 2008978:	80c00215 	stw	r3,8(r16)
 200897c:	24000215 	stw	r16,8(r4)
 2008980:	1c000315 	stw	r16,12(r3)
 2008984:	00003506 	br	2008a5c <_malloc_r+0x320>
 2008988:	180ad27a 	srli	r5,r3,9
 200898c:	01000104 	movi	r4,4
 2008990:	21400336 	bltu	r4,r5,20089a0 <_malloc_r+0x264>
 2008994:	180ad1ba 	srli	r5,r3,6
 2008998:	29400e04 	addi	r5,r5,56
 200899c:	00001406 	br	20089f0 <_malloc_r+0x2b4>
 20089a0:	01000504 	movi	r4,20
 20089a4:	21400236 	bltu	r4,r5,20089b0 <_malloc_r+0x274>
 20089a8:	294016c4 	addi	r5,r5,91
 20089ac:	00001006 	br	20089f0 <_malloc_r+0x2b4>
 20089b0:	01001504 	movi	r4,84
 20089b4:	21400336 	bltu	r4,r5,20089c4 <_malloc_r+0x288>
 20089b8:	180ad33a 	srli	r5,r3,12
 20089bc:	29401b84 	addi	r5,r5,110
 20089c0:	00000b06 	br	20089f0 <_malloc_r+0x2b4>
 20089c4:	01005504 	movi	r4,340
 20089c8:	21400336 	bltu	r4,r5,20089d8 <_malloc_r+0x29c>
 20089cc:	180ad3fa 	srli	r5,r3,15
 20089d0:	29401dc4 	addi	r5,r5,119
 20089d4:	00000606 	br	20089f0 <_malloc_r+0x2b4>
 20089d8:	01015504 	movi	r4,1364
 20089dc:	21400336 	bltu	r4,r5,20089ec <_malloc_r+0x2b0>
 20089e0:	180ad4ba 	srli	r5,r3,18
 20089e4:	29401f04 	addi	r5,r5,124
 20089e8:	00000106 	br	20089f0 <_malloc_r+0x2b4>
 20089ec:	01401f84 	movi	r5,126
 20089f0:	2949883a 	add	r4,r5,r5
 20089f4:	2109883a 	add	r4,r4,r4
 20089f8:	2109883a 	add	r4,r4,r4
 20089fc:	9109883a 	add	r4,r18,r4
 2008a00:	21c00217 	ldw	r7,8(r4)
 2008a04:	020080b4 	movhi	r8,514
 2008a08:	421ea804 	addi	r8,r8,31392
 2008a0c:	3900081e 	bne	r7,r4,2008a30 <_malloc_r+0x2f4>
 2008a10:	280bd0ba 	srai	r5,r5,2
 2008a14:	00c00044 	movi	r3,1
 2008a18:	194a983a 	sll	r5,r3,r5
 2008a1c:	40c00117 	ldw	r3,4(r8)
 2008a20:	28cab03a 	or	r5,r5,r3
 2008a24:	41400115 	stw	r5,4(r8)
 2008a28:	3807883a 	mov	r3,r7
 2008a2c:	00000706 	br	2008a4c <_malloc_r+0x310>
 2008a30:	023fff04 	movi	r8,-4
 2008a34:	39400117 	ldw	r5,4(r7)
 2008a38:	2a0a703a 	and	r5,r5,r8
 2008a3c:	1940022e 	bgeu	r3,r5,2008a48 <_malloc_r+0x30c>
 2008a40:	39c00217 	ldw	r7,8(r7)
 2008a44:	393ffb1e 	bne	r7,r4,2008a34 <__alt_mem_pic_mem+0xfe004a34>
 2008a48:	38c00317 	ldw	r3,12(r7)
 2008a4c:	80c00315 	stw	r3,12(r16)
 2008a50:	81c00215 	stw	r7,8(r16)
 2008a54:	1c000215 	stw	r16,8(r3)
 2008a58:	3c000315 	stw	r16,12(r7)
 2008a5c:	1007d0ba 	srai	r3,r2,2
 2008a60:	02000044 	movi	r8,1
 2008a64:	40d0983a 	sll	r8,r8,r3
 2008a68:	90c00117 	ldw	r3,4(r18)
 2008a6c:	1a004d36 	bltu	r3,r8,2008ba4 <_malloc_r+0x468>
 2008a70:	40c8703a 	and	r4,r8,r3
 2008a74:	2000061e 	bne	r4,zero,2008a90 <_malloc_r+0x354>
 2008a78:	013fff04 	movi	r4,-4
 2008a7c:	1104703a 	and	r2,r2,r4
 2008a80:	4211883a 	add	r8,r8,r8
 2008a84:	40c8703a 	and	r4,r8,r3
 2008a88:	10800104 	addi	r2,r2,4
 2008a8c:	203ffc26 	beq	r4,zero,2008a80 <__alt_mem_pic_mem+0xfe004a80>
 2008a90:	02bfff04 	movi	r10,-4
 2008a94:	02c003c4 	movi	r11,15
 2008a98:	1087883a 	add	r3,r2,r2
 2008a9c:	18c7883a 	add	r3,r3,r3
 2008aa0:	18c7883a 	add	r3,r3,r3
 2008aa4:	90c7883a 	add	r3,r18,r3
 2008aa8:	19c00304 	addi	r7,r3,12
 2008aac:	1013883a 	mov	r9,r2
 2008ab0:	3b3ffd04 	addi	r12,r7,-12
 2008ab4:	3c000017 	ldw	r16,0(r7)
 2008ab8:	00000106 	br	2008ac0 <_malloc_r+0x384>
 2008abc:	84000317 	ldw	r16,12(r16)
 2008ac0:	83001e26 	beq	r16,r12,2008b3c <_malloc_r+0x400>
 2008ac4:	81000117 	ldw	r4,4(r16)
 2008ac8:	2288703a 	and	r4,r4,r10
 2008acc:	244bc83a 	sub	r5,r4,r17
 2008ad0:	5940100e 	bge	r11,r5,2008b14 <_malloc_r+0x3d8>
 2008ad4:	88800054 	ori	r2,r17,1
 2008ad8:	80800115 	stw	r2,4(r16)
 2008adc:	81000217 	ldw	r4,8(r16)
 2008ae0:	80800317 	ldw	r2,12(r16)
 2008ae4:	8447883a 	add	r3,r16,r17
 2008ae8:	20800315 	stw	r2,12(r4)
 2008aec:	11000215 	stw	r4,8(r2)
 2008af0:	90c00515 	stw	r3,20(r18)
 2008af4:	90c00415 	stw	r3,16(r18)
 2008af8:	28800054 	ori	r2,r5,1
 2008afc:	19800315 	stw	r6,12(r3)
 2008b00:	19800215 	stw	r6,8(r3)
 2008b04:	18800115 	stw	r2,4(r3)
 2008b08:	1947883a 	add	r3,r3,r5
 2008b0c:	19400015 	stw	r5,0(r3)
 2008b10:	00009c06 	br	2008d84 <_malloc_r+0x648>
 2008b14:	283fe916 	blt	r5,zero,2008abc <__alt_mem_pic_mem+0xfe004abc>
 2008b18:	8105883a 	add	r2,r16,r4
 2008b1c:	10c00117 	ldw	r3,4(r2)
 2008b20:	18c00054 	ori	r3,r3,1
 2008b24:	10c00115 	stw	r3,4(r2)
 2008b28:	80800317 	ldw	r2,12(r16)
 2008b2c:	80c00217 	ldw	r3,8(r16)
 2008b30:	18800315 	stw	r2,12(r3)
 2008b34:	10c00215 	stw	r3,8(r2)
 2008b38:	00009206 	br	2008d84 <_malloc_r+0x648>
 2008b3c:	4a400044 	addi	r9,r9,1
 2008b40:	490000cc 	andi	r4,r9,3
 2008b44:	39c00204 	addi	r7,r7,8
 2008b48:	203fd91e 	bne	r4,zero,2008ab0 <__alt_mem_pic_mem+0xfe004ab0>
 2008b4c:	110000cc 	andi	r4,r2,3
 2008b50:	2000051e 	bne	r4,zero,2008b68 <_malloc_r+0x42c>
 2008b54:	90c00117 	ldw	r3,4(r18)
 2008b58:	0204303a 	nor	r2,zero,r8
 2008b5c:	10c4703a 	and	r2,r2,r3
 2008b60:	90800115 	stw	r2,4(r18)
 2008b64:	00000406 	br	2008b78 <_malloc_r+0x43c>
 2008b68:	193ffe04 	addi	r4,r3,-8
 2008b6c:	18c00017 	ldw	r3,0(r3)
 2008b70:	10bfffc4 	addi	r2,r2,-1
 2008b74:	193ff526 	beq	r3,r4,2008b4c <__alt_mem_pic_mem+0xfe004b4c>
 2008b78:	90800117 	ldw	r2,4(r18)
 2008b7c:	4211883a 	add	r8,r8,r8
 2008b80:	12000836 	bltu	r2,r8,2008ba4 <_malloc_r+0x468>
 2008b84:	40000726 	beq	r8,zero,2008ba4 <_malloc_r+0x468>
 2008b88:	4086703a 	and	r3,r8,r2
 2008b8c:	1800031e 	bne	r3,zero,2008b9c <_malloc_r+0x460>
 2008b90:	4a400104 	addi	r9,r9,4
 2008b94:	4211883a 	add	r8,r8,r8
 2008b98:	003ffb06 	br	2008b88 <__alt_mem_pic_mem+0xfe004b88>
 2008b9c:	4805883a 	mov	r2,r9
 2008ba0:	003fbd06 	br	2008a98 <__alt_mem_pic_mem+0xfe004a98>
 2008ba4:	95c00217 	ldw	r23,8(r18)
 2008ba8:	00bfff04 	movi	r2,-4
 2008bac:	bd400117 	ldw	r21,4(r23)
 2008bb0:	a8aa703a 	and	r21,r21,r2
 2008bb4:	ac400336 	bltu	r21,r17,2008bc4 <_malloc_r+0x488>
 2008bb8:	ac47c83a 	sub	r3,r21,r17
 2008bbc:	008003c4 	movi	r2,15
 2008bc0:	10c06916 	blt	r2,r3,2008d68 <_malloc_r+0x62c>
 2008bc4:	d0a8bf17 	ldw	r2,-23812(gp)
 2008bc8:	d0e00517 	ldw	r3,-32748(gp)
 2008bcc:	05bfffc4 	movi	r22,-1
 2008bd0:	bd61883a 	add	r16,r23,r21
 2008bd4:	8885883a 	add	r2,r17,r2
 2008bd8:	1d80021e 	bne	r3,r22,2008be4 <_malloc_r+0x4a8>
 2008bdc:	17000404 	addi	fp,r2,16
 2008be0:	00000306 	br	2008bf0 <_malloc_r+0x4b4>
 2008be4:	108023c4 	addi	r2,r2,143
 2008be8:	073fe004 	movi	fp,-128
 2008bec:	1738703a 	and	fp,r2,fp
 2008bf0:	9809883a 	mov	r4,r19
 2008bf4:	e00b883a 	mov	r5,fp
 2008bf8:	2008f240 	call	2008f24 <_sbrk_r>
 2008bfc:	1029883a 	mov	r20,r2
 2008c00:	15804d26 	beq	r2,r22,2008d38 <_malloc_r+0x5fc>
 2008c04:	1400012e 	bgeu	r2,r16,2008c0c <_malloc_r+0x4d0>
 2008c08:	bc804b1e 	bne	r23,r18,2008d38 <_malloc_r+0x5fc>
 2008c0c:	058080f4 	movhi	r22,515
 2008c10:	b5a8e604 	addi	r22,r22,-23656
 2008c14:	b1000017 	ldw	r4,0(r22)
 2008c18:	e109883a 	add	r4,fp,r4
 2008c1c:	b1000015 	stw	r4,0(r22)
 2008c20:	a400071e 	bne	r20,r16,2008c40 <_malloc_r+0x504>
 2008c24:	a0801fcc 	andi	r2,r20,127
 2008c28:	1000051e 	bne	r2,zero,2008c40 <_malloc_r+0x504>
 2008c2c:	90c00217 	ldw	r3,8(r18)
 2008c30:	e545883a 	add	r2,fp,r21
 2008c34:	10800054 	ori	r2,r2,1
 2008c38:	18800115 	stw	r2,4(r3)
 2008c3c:	00003706 	br	2008d1c <_malloc_r+0x5e0>
 2008c40:	d0e00517 	ldw	r3,-32748(gp)
 2008c44:	00bfffc4 	movi	r2,-1
 2008c48:	1880021e 	bne	r3,r2,2008c54 <_malloc_r+0x518>
 2008c4c:	d5200515 	stw	r20,-32748(gp)
 2008c50:	00000306 	br	2008c60 <_malloc_r+0x524>
 2008c54:	a407c83a 	sub	r3,r20,r16
 2008c58:	20c7883a 	add	r3,r4,r3
 2008c5c:	b0c00015 	stw	r3,0(r22)
 2008c60:	a40001cc 	andi	r16,r20,7
 2008c64:	80000426 	beq	r16,zero,2008c78 <_malloc_r+0x53c>
 2008c68:	00c00204 	movi	r3,8
 2008c6c:	1c21c83a 	sub	r16,r3,r16
 2008c70:	a429883a 	add	r20,r20,r16
 2008c74:	00000106 	br	2008c7c <_malloc_r+0x540>
 2008c78:	0021883a 	mov	r16,zero
 2008c7c:	a705883a 	add	r2,r20,fp
 2008c80:	10801fcc 	andi	r2,r2,127
 2008c84:	84002004 	addi	r16,r16,128
 2008c88:	80a1c83a 	sub	r16,r16,r2
 2008c8c:	9809883a 	mov	r4,r19
 2008c90:	800b883a 	mov	r5,r16
 2008c94:	2008f240 	call	2008f24 <_sbrk_r>
 2008c98:	00ffffc4 	movi	r3,-1
 2008c9c:	10c0021e 	bne	r2,r3,2008ca8 <_malloc_r+0x56c>
 2008ca0:	a005883a 	mov	r2,r20
 2008ca4:	0021883a 	mov	r16,zero
 2008ca8:	b0c00017 	ldw	r3,0(r22)
 2008cac:	1505c83a 	sub	r2,r2,r20
 2008cb0:	95000215 	stw	r20,8(r18)
 2008cb4:	80c7883a 	add	r3,r16,r3
 2008cb8:	1421883a 	add	r16,r2,r16
 2008cbc:	84000054 	ori	r16,r16,1
 2008cc0:	b0c00015 	stw	r3,0(r22)
 2008cc4:	a4000115 	stw	r16,4(r20)
 2008cc8:	bc801426 	beq	r23,r18,2008d1c <_malloc_r+0x5e0>
 2008ccc:	00c003c4 	movi	r3,15
 2008cd0:	1d400336 	bltu	r3,r21,2008ce0 <_malloc_r+0x5a4>
 2008cd4:	00800044 	movi	r2,1
 2008cd8:	a0800115 	stw	r2,4(r20)
 2008cdc:	00001606 	br	2008d38 <_malloc_r+0x5fc>
 2008ce0:	00bffe04 	movi	r2,-8
 2008ce4:	ad7ffd04 	addi	r21,r21,-12
 2008ce8:	a8aa703a 	and	r21,r21,r2
 2008cec:	b8800117 	ldw	r2,4(r23)
 2008cf0:	01000144 	movi	r4,5
 2008cf4:	1080004c 	andi	r2,r2,1
 2008cf8:	a884b03a 	or	r2,r21,r2
 2008cfc:	b8800115 	stw	r2,4(r23)
 2008d00:	bd45883a 	add	r2,r23,r21
 2008d04:	11000115 	stw	r4,4(r2)
 2008d08:	11000215 	stw	r4,8(r2)
 2008d0c:	1d40032e 	bgeu	r3,r21,2008d1c <_malloc_r+0x5e0>
 2008d10:	9809883a 	mov	r4,r19
 2008d14:	b9400204 	addi	r5,r23,8
 2008d18:	2009d640 	call	2009d64 <_free_r>
 2008d1c:	b0800017 	ldw	r2,0(r22)
 2008d20:	d0e8be17 	ldw	r3,-23816(gp)
 2008d24:	1880012e 	bgeu	r3,r2,2008d2c <_malloc_r+0x5f0>
 2008d28:	d0a8be15 	stw	r2,-23816(gp)
 2008d2c:	d0e8bd17 	ldw	r3,-23820(gp)
 2008d30:	1880012e 	bgeu	r3,r2,2008d38 <_malloc_r+0x5fc>
 2008d34:	d0a8bd15 	stw	r2,-23820(gp)
 2008d38:	90800217 	ldw	r2,8(r18)
 2008d3c:	10c00117 	ldw	r3,4(r2)
 2008d40:	00bfff04 	movi	r2,-4
 2008d44:	1884703a 	and	r2,r3,r2
 2008d48:	1447c83a 	sub	r3,r2,r17
 2008d4c:	14400236 	bltu	r2,r17,2008d58 <_malloc_r+0x61c>
 2008d50:	008003c4 	movi	r2,15
 2008d54:	10c00416 	blt	r2,r3,2008d68 <_malloc_r+0x62c>
 2008d58:	9809883a 	mov	r4,r19
 2008d5c:	200a7680 	call	200a768 <__malloc_unlock>
 2008d60:	0005883a 	mov	r2,zero
 2008d64:	00000a06 	br	2008d90 <_malloc_r+0x654>
 2008d68:	94000217 	ldw	r16,8(r18)
 2008d6c:	88800054 	ori	r2,r17,1
 2008d70:	80800115 	stw	r2,4(r16)
 2008d74:	8445883a 	add	r2,r16,r17
 2008d78:	90800215 	stw	r2,8(r18)
 2008d7c:	18c00054 	ori	r3,r3,1
 2008d80:	10c00115 	stw	r3,4(r2)
 2008d84:	9809883a 	mov	r4,r19
 2008d88:	200a7680 	call	200a768 <__malloc_unlock>
 2008d8c:	80800204 	addi	r2,r16,8
 2008d90:	dfc00917 	ldw	ra,36(sp)
 2008d94:	df000817 	ldw	fp,32(sp)
 2008d98:	ddc00717 	ldw	r23,28(sp)
 2008d9c:	dd800617 	ldw	r22,24(sp)
 2008da0:	dd400517 	ldw	r21,20(sp)
 2008da4:	dd000417 	ldw	r20,16(sp)
 2008da8:	dcc00317 	ldw	r19,12(sp)
 2008dac:	dc800217 	ldw	r18,8(sp)
 2008db0:	dc400117 	ldw	r17,4(sp)
 2008db4:	dc000017 	ldw	r16,0(sp)
 2008db8:	dec00a04 	addi	sp,sp,40
 2008dbc:	f800283a 	ret

02008dc0 <memcpy>:
 2008dc0:	2005883a 	mov	r2,r4
 2008dc4:	0007883a 	mov	r3,zero
 2008dc8:	19800626 	beq	r3,r6,2008de4 <memcpy+0x24>
 2008dcc:	28c9883a 	add	r4,r5,r3
 2008dd0:	21c00003 	ldbu	r7,0(r4)
 2008dd4:	10c9883a 	add	r4,r2,r3
 2008dd8:	18c00044 	addi	r3,r3,1
 2008ddc:	21c00005 	stb	r7,0(r4)
 2008de0:	003ff906 	br	2008dc8 <__alt_mem_pic_mem+0xfe004dc8>
 2008de4:	f800283a 	ret

02008de8 <memset>:
 2008de8:	2005883a 	mov	r2,r4
 2008dec:	2007883a 	mov	r3,r4
 2008df0:	218d883a 	add	r6,r4,r6
 2008df4:	19800326 	beq	r3,r6,2008e04 <memset+0x1c>
 2008df8:	19400005 	stb	r5,0(r3)
 2008dfc:	18c00044 	addi	r3,r3,1
 2008e00:	003ffc06 	br	2008df4 <__alt_mem_pic_mem+0xfe004df4>
 2008e04:	f800283a 	ret

02008e08 <_printf_r>:
 2008e08:	defffd04 	addi	sp,sp,-12
 2008e0c:	dfc00015 	stw	ra,0(sp)
 2008e10:	d9800115 	stw	r6,4(sp)
 2008e14:	d9c00215 	stw	r7,8(sp)
 2008e18:	20c00217 	ldw	r3,8(r4)
 2008e1c:	280d883a 	mov	r6,r5
 2008e20:	01408074 	movhi	r5,513
 2008e24:	2967fb04 	addi	r5,r5,-24596
 2008e28:	19400115 	stw	r5,4(r3)
 2008e2c:	21400217 	ldw	r5,8(r4)
 2008e30:	d9c00104 	addi	r7,sp,4
 2008e34:	20096d80 	call	20096d8 <___vfprintf_internal_r>
 2008e38:	dfc00017 	ldw	ra,0(sp)
 2008e3c:	dec00304 	addi	sp,sp,12
 2008e40:	f800283a 	ret

02008e44 <printf>:
 2008e44:	defffc04 	addi	sp,sp,-16
 2008e48:	dfc00015 	stw	ra,0(sp)
 2008e4c:	d9400115 	stw	r5,4(sp)
 2008e50:	d9800215 	stw	r6,8(sp)
 2008e54:	d9c00315 	stw	r7,12(sp)
 2008e58:	008080f4 	movhi	r2,515
 2008e5c:	10a02304 	addi	r2,r2,-32628
 2008e60:	10800017 	ldw	r2,0(r2)
 2008e64:	200b883a 	mov	r5,r4
 2008e68:	01008074 	movhi	r4,513
 2008e6c:	10c00217 	ldw	r3,8(r2)
 2008e70:	2127fb04 	addi	r4,r4,-24596
 2008e74:	d9800104 	addi	r6,sp,4
 2008e78:	19000115 	stw	r4,4(r3)
 2008e7c:	11000217 	ldw	r4,8(r2)
 2008e80:	2009c1c0 	call	2009c1c <__vfprintf_internal>
 2008e84:	dfc00017 	ldw	ra,0(sp)
 2008e88:	dec00404 	addi	sp,sp,16
 2008e8c:	f800283a 	ret

02008e90 <_puts_r>:
 2008e90:	defffd04 	addi	sp,sp,-12
 2008e94:	dc000015 	stw	r16,0(sp)
 2008e98:	2021883a 	mov	r16,r4
 2008e9c:	2809883a 	mov	r4,r5
 2008ea0:	dfc00215 	stw	ra,8(sp)
 2008ea4:	dc400115 	stw	r17,4(sp)
 2008ea8:	2823883a 	mov	r17,r5
 2008eac:	200907c0 	call	200907c <strlen>
 2008eb0:	81400217 	ldw	r5,8(r16)
 2008eb4:	00c08074 	movhi	r3,513
 2008eb8:	18e7fb04 	addi	r3,r3,-24596
 2008ebc:	28c00115 	stw	r3,4(r5)
 2008ec0:	8009883a 	mov	r4,r16
 2008ec4:	880d883a 	mov	r6,r17
 2008ec8:	100f883a 	mov	r7,r2
 2008ecc:	2009fec0 	call	2009fec <__sfvwrite_small_dev>
 2008ed0:	00ffffc4 	movi	r3,-1
 2008ed4:	10c00926 	beq	r2,r3,2008efc <_puts_r+0x6c>
 2008ed8:	81400217 	ldw	r5,8(r16)
 2008edc:	018080b4 	movhi	r6,514
 2008ee0:	8009883a 	mov	r4,r16
 2008ee4:	28800117 	ldw	r2,4(r5)
 2008ee8:	31977904 	addi	r6,r6,24036
 2008eec:	01c00044 	movi	r7,1
 2008ef0:	103ee83a 	callr	r2
 2008ef4:	10bfffe0 	cmpeqi	r2,r2,-1
 2008ef8:	0085c83a 	sub	r2,zero,r2
 2008efc:	dfc00217 	ldw	ra,8(sp)
 2008f00:	dc400117 	ldw	r17,4(sp)
 2008f04:	dc000017 	ldw	r16,0(sp)
 2008f08:	dec00304 	addi	sp,sp,12
 2008f0c:	f800283a 	ret

02008f10 <puts>:
 2008f10:	008080f4 	movhi	r2,515
 2008f14:	10a02304 	addi	r2,r2,-32628
 2008f18:	200b883a 	mov	r5,r4
 2008f1c:	11000017 	ldw	r4,0(r2)
 2008f20:	2008e901 	jmpi	2008e90 <_puts_r>

02008f24 <_sbrk_r>:
 2008f24:	defffd04 	addi	sp,sp,-12
 2008f28:	dc000015 	stw	r16,0(sp)
 2008f2c:	040080f4 	movhi	r16,515
 2008f30:	dc400115 	stw	r17,4(sp)
 2008f34:	8428df04 	addi	r16,r16,-23684
 2008f38:	2023883a 	mov	r17,r4
 2008f3c:	2809883a 	mov	r4,r5
 2008f40:	dfc00215 	stw	ra,8(sp)
 2008f44:	80000015 	stw	zero,0(r16)
 2008f48:	200a7880 	call	200a788 <sbrk>
 2008f4c:	00ffffc4 	movi	r3,-1
 2008f50:	10c0031e 	bne	r2,r3,2008f60 <_sbrk_r+0x3c>
 2008f54:	80c00017 	ldw	r3,0(r16)
 2008f58:	18000126 	beq	r3,zero,2008f60 <_sbrk_r+0x3c>
 2008f5c:	88c00015 	stw	r3,0(r17)
 2008f60:	dfc00217 	ldw	ra,8(sp)
 2008f64:	dc400117 	ldw	r17,4(sp)
 2008f68:	dc000017 	ldw	r16,0(sp)
 2008f6c:	dec00304 	addi	sp,sp,12
 2008f70:	f800283a 	ret

02008f74 <_sprintf_r>:
 2008f74:	defff704 	addi	sp,sp,-36
 2008f78:	dfc00715 	stw	ra,28(sp)
 2008f7c:	d9c00815 	stw	r7,32(sp)
 2008f80:	00808204 	movi	r2,520
 2008f84:	d880000d 	sth	r2,0(sp)
 2008f88:	00a00034 	movhi	r2,32768
 2008f8c:	10bfffc4 	addi	r2,r2,-1
 2008f90:	d8800515 	stw	r2,20(sp)
 2008f94:	d8800315 	stw	r2,12(sp)
 2008f98:	00bfffc4 	movi	r2,-1
 2008f9c:	d880008d 	sth	r2,2(sp)
 2008fa0:	00808074 	movhi	r2,513
 2008fa4:	d9400415 	stw	r5,16(sp)
 2008fa8:	d9400215 	stw	r5,8(sp)
 2008fac:	10a82604 	addi	r2,r2,-24424
 2008fb0:	d80b883a 	mov	r5,sp
 2008fb4:	d9c00804 	addi	r7,sp,32
 2008fb8:	d8800115 	stw	r2,4(sp)
 2008fbc:	d8000615 	stw	zero,24(sp)
 2008fc0:	20091040 	call	2009104 <___svfprintf_internal_r>
 2008fc4:	d8c00417 	ldw	r3,16(sp)
 2008fc8:	18000005 	stb	zero,0(r3)
 2008fcc:	dfc00717 	ldw	ra,28(sp)
 2008fd0:	dec00904 	addi	sp,sp,36
 2008fd4:	f800283a 	ret

02008fd8 <sprintf>:
 2008fd8:	defff604 	addi	sp,sp,-40
 2008fdc:	dfc00715 	stw	ra,28(sp)
 2008fe0:	d9800815 	stw	r6,32(sp)
 2008fe4:	d9c00915 	stw	r7,36(sp)
 2008fe8:	00808204 	movi	r2,520
 2008fec:	d880000d 	sth	r2,0(sp)
 2008ff0:	00a00034 	movhi	r2,32768
 2008ff4:	10bfffc4 	addi	r2,r2,-1
 2008ff8:	d8800515 	stw	r2,20(sp)
 2008ffc:	d8800315 	stw	r2,12(sp)
 2009000:	00bfffc4 	movi	r2,-1
 2009004:	d880008d 	sth	r2,2(sp)
 2009008:	00808074 	movhi	r2,513
 200900c:	10a82604 	addi	r2,r2,-24424
 2009010:	d8800115 	stw	r2,4(sp)
 2009014:	008080f4 	movhi	r2,515
 2009018:	10a02304 	addi	r2,r2,-32628
 200901c:	d9000415 	stw	r4,16(sp)
 2009020:	d9000215 	stw	r4,8(sp)
 2009024:	11000017 	ldw	r4,0(r2)
 2009028:	280d883a 	mov	r6,r5
 200902c:	d9c00804 	addi	r7,sp,32
 2009030:	d80b883a 	mov	r5,sp
 2009034:	d8000615 	stw	zero,24(sp)
 2009038:	20091040 	call	2009104 <___svfprintf_internal_r>
 200903c:	d8c00417 	ldw	r3,16(sp)
 2009040:	18000005 	stb	zero,0(r3)
 2009044:	dfc00717 	ldw	ra,28(sp)
 2009048:	dec00a04 	addi	sp,sp,40
 200904c:	f800283a 	ret

02009050 <strcpy>:
 2009050:	2005883a 	mov	r2,r4
 2009054:	200d883a 	mov	r6,r4
 2009058:	28c00003 	ldbu	r3,0(r5)
 200905c:	31800044 	addi	r6,r6,1
 2009060:	29400044 	addi	r5,r5,1
 2009064:	30ffffc5 	stb	r3,-1(r6)
 2009068:	18c03fcc 	andi	r3,r3,255
 200906c:	18c0201c 	xori	r3,r3,128
 2009070:	18ffe004 	addi	r3,r3,-128
 2009074:	183ff81e 	bne	r3,zero,2009058 <__alt_mem_pic_mem+0xfe005058>
 2009078:	f800283a 	ret

0200907c <strlen>:
 200907c:	2005883a 	mov	r2,r4
 2009080:	10c00007 	ldb	r3,0(r2)
 2009084:	18000226 	beq	r3,zero,2009090 <strlen+0x14>
 2009088:	10800044 	addi	r2,r2,1
 200908c:	003ffc06 	br	2009080 <__alt_mem_pic_mem+0xfe005080>
 2009090:	1105c83a 	sub	r2,r2,r4
 2009094:	f800283a 	ret

02009098 <print_repeat>:
 2009098:	defffb04 	addi	sp,sp,-20
 200909c:	dc800315 	stw	r18,12(sp)
 20090a0:	dc400215 	stw	r17,8(sp)
 20090a4:	dc000115 	stw	r16,4(sp)
 20090a8:	dfc00415 	stw	ra,16(sp)
 20090ac:	2025883a 	mov	r18,r4
 20090b0:	2823883a 	mov	r17,r5
 20090b4:	d9800005 	stb	r6,0(sp)
 20090b8:	3821883a 	mov	r16,r7
 20090bc:	04000a0e 	bge	zero,r16,20090e8 <print_repeat+0x50>
 20090c0:	88800117 	ldw	r2,4(r17)
 20090c4:	9009883a 	mov	r4,r18
 20090c8:	880b883a 	mov	r5,r17
 20090cc:	d80d883a 	mov	r6,sp
 20090d0:	01c00044 	movi	r7,1
 20090d4:	103ee83a 	callr	r2
 20090d8:	843fffc4 	addi	r16,r16,-1
 20090dc:	103ff726 	beq	r2,zero,20090bc <__alt_mem_pic_mem+0xfe0050bc>
 20090e0:	00bfffc4 	movi	r2,-1
 20090e4:	00000106 	br	20090ec <print_repeat+0x54>
 20090e8:	0005883a 	mov	r2,zero
 20090ec:	dfc00417 	ldw	ra,16(sp)
 20090f0:	dc800317 	ldw	r18,12(sp)
 20090f4:	dc400217 	ldw	r17,8(sp)
 20090f8:	dc000117 	ldw	r16,4(sp)
 20090fc:	dec00504 	addi	sp,sp,20
 2009100:	f800283a 	ret

02009104 <___svfprintf_internal_r>:
 2009104:	deffe404 	addi	sp,sp,-112
 2009108:	d8c00804 	addi	r3,sp,32
 200910c:	df001a15 	stw	fp,104(sp)
 2009110:	ddc01915 	stw	r23,100(sp)
 2009114:	dd801815 	stw	r22,96(sp)
 2009118:	dd401715 	stw	r21,92(sp)
 200911c:	dd001615 	stw	r20,88(sp)
 2009120:	dcc01515 	stw	r19,84(sp)
 2009124:	dc801415 	stw	r18,80(sp)
 2009128:	dc401315 	stw	r17,76(sp)
 200912c:	dc001215 	stw	r16,72(sp)
 2009130:	dfc01b15 	stw	ra,108(sp)
 2009134:	2027883a 	mov	r19,r4
 2009138:	2839883a 	mov	fp,r5
 200913c:	382f883a 	mov	r23,r7
 2009140:	d9800f15 	stw	r6,60(sp)
 2009144:	0021883a 	mov	r16,zero
 2009148:	d8000e15 	stw	zero,56(sp)
 200914c:	002d883a 	mov	r22,zero
 2009150:	0029883a 	mov	r20,zero
 2009154:	0025883a 	mov	r18,zero
 2009158:	0023883a 	mov	r17,zero
 200915c:	d8000c15 	stw	zero,48(sp)
 2009160:	d8000b15 	stw	zero,44(sp)
 2009164:	002b883a 	mov	r21,zero
 2009168:	d8c00915 	stw	r3,36(sp)
 200916c:	d8c00f17 	ldw	r3,60(sp)
 2009170:	19000003 	ldbu	r4,0(r3)
 2009174:	20803fcc 	andi	r2,r4,255
 2009178:	1080201c 	xori	r2,r2,128
 200917c:	10bfe004 	addi	r2,r2,-128
 2009180:	10012426 	beq	r2,zero,2009614 <___svfprintf_internal_r+0x510>
 2009184:	00c00044 	movi	r3,1
 2009188:	a8c01426 	beq	r21,r3,20091dc <___svfprintf_internal_r+0xd8>
 200918c:	1d400216 	blt	r3,r21,2009198 <___svfprintf_internal_r+0x94>
 2009190:	a8000626 	beq	r21,zero,20091ac <___svfprintf_internal_r+0xa8>
 2009194:	00011b06 	br	2009604 <___svfprintf_internal_r+0x500>
 2009198:	01400084 	movi	r5,2
 200919c:	a9401d26 	beq	r21,r5,2009214 <___svfprintf_internal_r+0x110>
 20091a0:	014000c4 	movi	r5,3
 20091a4:	a9402926 	beq	r21,r5,200924c <___svfprintf_internal_r+0x148>
 20091a8:	00011606 	br	2009604 <___svfprintf_internal_r+0x500>
 20091ac:	01400944 	movi	r5,37
 20091b0:	11410326 	beq	r2,r5,20095c0 <___svfprintf_internal_r+0x4bc>
 20091b4:	e0800117 	ldw	r2,4(fp)
 20091b8:	d9000005 	stb	r4,0(sp)
 20091bc:	e00b883a 	mov	r5,fp
 20091c0:	9809883a 	mov	r4,r19
 20091c4:	d80d883a 	mov	r6,sp
 20091c8:	01c00044 	movi	r7,1
 20091cc:	103ee83a 	callr	r2
 20091d0:	1000de1e 	bne	r2,zero,200954c <___svfprintf_internal_r+0x448>
 20091d4:	84000044 	addi	r16,r16,1
 20091d8:	00010a06 	br	2009604 <___svfprintf_internal_r+0x500>
 20091dc:	01400c04 	movi	r5,48
 20091e0:	11410026 	beq	r2,r5,20095e4 <___svfprintf_internal_r+0x4e0>
 20091e4:	01400944 	movi	r5,37
 20091e8:	11400a1e 	bne	r2,r5,2009214 <___svfprintf_internal_r+0x110>
 20091ec:	d8800005 	stb	r2,0(sp)
 20091f0:	e0800117 	ldw	r2,4(fp)
 20091f4:	9809883a 	mov	r4,r19
 20091f8:	e00b883a 	mov	r5,fp
 20091fc:	d80d883a 	mov	r6,sp
 2009200:	a80f883a 	mov	r7,r21
 2009204:	103ee83a 	callr	r2
 2009208:	1000d01e 	bne	r2,zero,200954c <___svfprintf_internal_r+0x448>
 200920c:	84000044 	addi	r16,r16,1
 2009210:	0000fb06 	br	2009600 <___svfprintf_internal_r+0x4fc>
 2009214:	217ff404 	addi	r5,r4,-48
 2009218:	29403fcc 	andi	r5,r5,255
 200921c:	00c00244 	movi	r3,9
 2009220:	19400736 	bltu	r3,r5,2009240 <___svfprintf_internal_r+0x13c>
 2009224:	00bfffc4 	movi	r2,-1
 2009228:	88800226 	beq	r17,r2,2009234 <___svfprintf_internal_r+0x130>
 200922c:	8c4002a4 	muli	r17,r17,10
 2009230:	00000106 	br	2009238 <___svfprintf_internal_r+0x134>
 2009234:	0023883a 	mov	r17,zero
 2009238:	8963883a 	add	r17,r17,r5
 200923c:	0000ea06 	br	20095e8 <___svfprintf_internal_r+0x4e4>
 2009240:	01400b84 	movi	r5,46
 2009244:	1140ec26 	beq	r2,r5,20095f8 <___svfprintf_internal_r+0x4f4>
 2009248:	05400084 	movi	r21,2
 200924c:	213ff404 	addi	r4,r4,-48
 2009250:	21003fcc 	andi	r4,r4,255
 2009254:	00c00244 	movi	r3,9
 2009258:	19000736 	bltu	r3,r4,2009278 <___svfprintf_internal_r+0x174>
 200925c:	00bfffc4 	movi	r2,-1
 2009260:	90800226 	beq	r18,r2,200926c <___svfprintf_internal_r+0x168>
 2009264:	948002a4 	muli	r18,r18,10
 2009268:	00000106 	br	2009270 <___svfprintf_internal_r+0x16c>
 200926c:	0025883a 	mov	r18,zero
 2009270:	9125883a 	add	r18,r18,r4
 2009274:	0000e306 	br	2009604 <___svfprintf_internal_r+0x500>
 2009278:	00c01b04 	movi	r3,108
 200927c:	10c0dc26 	beq	r2,r3,20095f0 <___svfprintf_internal_r+0x4ec>
 2009280:	013fffc4 	movi	r4,-1
 2009284:	91000226 	beq	r18,r4,2009290 <___svfprintf_internal_r+0x18c>
 2009288:	d8000b15 	stw	zero,44(sp)
 200928c:	00000106 	br	2009294 <___svfprintf_internal_r+0x190>
 2009290:	04800044 	movi	r18,1
 2009294:	01001a44 	movi	r4,105
 2009298:	11001626 	beq	r2,r4,20092f4 <___svfprintf_internal_r+0x1f0>
 200929c:	20800916 	blt	r4,r2,20092c4 <___svfprintf_internal_r+0x1c0>
 20092a0:	010018c4 	movi	r4,99
 20092a4:	11009226 	beq	r2,r4,20094f0 <___svfprintf_internal_r+0x3ec>
 20092a8:	01001904 	movi	r4,100
 20092ac:	11001126 	beq	r2,r4,20092f4 <___svfprintf_internal_r+0x1f0>
 20092b0:	01001604 	movi	r4,88
 20092b4:	1100d21e 	bne	r2,r4,2009600 <___svfprintf_internal_r+0x4fc>
 20092b8:	00c00044 	movi	r3,1
 20092bc:	d8c00e15 	stw	r3,56(sp)
 20092c0:	00001406 	br	2009314 <___svfprintf_internal_r+0x210>
 20092c4:	01001cc4 	movi	r4,115
 20092c8:	1100a226 	beq	r2,r4,2009554 <___svfprintf_internal_r+0x450>
 20092cc:	20800416 	blt	r4,r2,20092e0 <___svfprintf_internal_r+0x1dc>
 20092d0:	01001bc4 	movi	r4,111
 20092d4:	1100ca1e 	bne	r2,r4,2009600 <___svfprintf_internal_r+0x4fc>
 20092d8:	05000204 	movi	r20,8
 20092dc:	00000e06 	br	2009318 <___svfprintf_internal_r+0x214>
 20092e0:	01001d44 	movi	r4,117
 20092e4:	11000c26 	beq	r2,r4,2009318 <___svfprintf_internal_r+0x214>
 20092e8:	01001e04 	movi	r4,120
 20092ec:	11000926 	beq	r2,r4,2009314 <___svfprintf_internal_r+0x210>
 20092f0:	0000c306 	br	2009600 <___svfprintf_internal_r+0x4fc>
 20092f4:	b8800104 	addi	r2,r23,4
 20092f8:	b0000726 	beq	r22,zero,2009318 <___svfprintf_internal_r+0x214>
 20092fc:	d8800d15 	stw	r2,52(sp)
 2009300:	bdc00017 	ldw	r23,0(r23)
 2009304:	b800080e 	bge	r23,zero,2009328 <___svfprintf_internal_r+0x224>
 2009308:	05efc83a 	sub	r23,zero,r23
 200930c:	02400044 	movi	r9,1
 2009310:	00000606 	br	200932c <___svfprintf_internal_r+0x228>
 2009314:	05000404 	movi	r20,16
 2009318:	b8c00104 	addi	r3,r23,4
 200931c:	d8c00d15 	stw	r3,52(sp)
 2009320:	bdc00017 	ldw	r23,0(r23)
 2009324:	002d883a 	mov	r22,zero
 2009328:	0013883a 	mov	r9,zero
 200932c:	002b883a 	mov	r21,zero
 2009330:	dd4d883a 	add	r6,sp,r21
 2009334:	b8001626 	beq	r23,zero,2009390 <___svfprintf_internal_r+0x28c>
 2009338:	b809883a 	mov	r4,r23
 200933c:	a00b883a 	mov	r5,r20
 2009340:	d9801015 	stw	r6,64(sp)
 2009344:	da401115 	stw	r9,68(sp)
 2009348:	20062fc0 	call	20062fc <__udivsi3>
 200934c:	a089383a 	mul	r4,r20,r2
 2009350:	00c00244 	movi	r3,9
 2009354:	d9801017 	ldw	r6,64(sp)
 2009358:	b92fc83a 	sub	r23,r23,r4
 200935c:	da401117 	ldw	r9,68(sp)
 2009360:	1dc00216 	blt	r3,r23,200936c <___svfprintf_internal_r+0x268>
 2009364:	bdc00c04 	addi	r23,r23,48
 2009368:	00000506 	br	2009380 <___svfprintf_internal_r+0x27c>
 200936c:	d8c00e17 	ldw	r3,56(sp)
 2009370:	18000226 	beq	r3,zero,200937c <___svfprintf_internal_r+0x278>
 2009374:	bdc00dc4 	addi	r23,r23,55
 2009378:	00000106 	br	2009380 <___svfprintf_internal_r+0x27c>
 200937c:	bdc015c4 	addi	r23,r23,87
 2009380:	35c00005 	stb	r23,0(r6)
 2009384:	ad400044 	addi	r21,r21,1
 2009388:	102f883a 	mov	r23,r2
 200938c:	003fe806 	br	2009330 <__alt_mem_pic_mem+0xfe005330>
 2009390:	36c7c83a 	sub	r3,r6,sp
 2009394:	d8c00a15 	stw	r3,40(sp)
 2009398:	90c5c83a 	sub	r2,r18,r3
 200939c:	302f883a 	mov	r23,r6
 20093a0:	00800e0e 	bge	zero,r2,20093dc <___svfprintf_internal_r+0x2d8>
 20093a4:	302b883a 	mov	r21,r6
 20093a8:	3085883a 	add	r2,r6,r2
 20093ac:	01400c04 	movi	r5,48
 20093b0:	d8c00917 	ldw	r3,36(sp)
 20093b4:	a809883a 	mov	r4,r21
 20093b8:	a8c0052e 	bgeu	r21,r3,20093d0 <___svfprintf_internal_r+0x2cc>
 20093bc:	ad400044 	addi	r21,r21,1
 20093c0:	21400005 	stb	r5,0(r4)
 20093c4:	a82f883a 	mov	r23,r21
 20093c8:	a8bff91e 	bne	r21,r2,20093b0 <__alt_mem_pic_mem+0xfe0053b0>
 20093cc:	00000106 	br	20093d4 <___svfprintf_internal_r+0x2d0>
 20093d0:	a82f883a 	mov	r23,r21
 20093d4:	aeebc83a 	sub	r21,r21,sp
 20093d8:	dd400a15 	stw	r21,40(sp)
 20093dc:	d8c00a17 	ldw	r3,40(sp)
 20093e0:	1a51883a 	add	r8,r3,r9
 20093e4:	d8c00b17 	ldw	r3,44(sp)
 20093e8:	8a2bc83a 	sub	r21,r17,r8
 20093ec:	18001726 	beq	r3,zero,200944c <___svfprintf_internal_r+0x348>
 20093f0:	48000a26 	beq	r9,zero,200941c <___svfprintf_internal_r+0x318>
 20093f4:	00800b44 	movi	r2,45
 20093f8:	d8800805 	stb	r2,32(sp)
 20093fc:	e0800117 	ldw	r2,4(fp)
 2009400:	9809883a 	mov	r4,r19
 2009404:	e00b883a 	mov	r5,fp
 2009408:	d9800804 	addi	r6,sp,32
 200940c:	01c00044 	movi	r7,1
 2009410:	103ee83a 	callr	r2
 2009414:	10004d1e 	bne	r2,zero,200954c <___svfprintf_internal_r+0x448>
 2009418:	84000044 	addi	r16,r16,1
 200941c:	0540070e 	bge	zero,r21,200943c <___svfprintf_internal_r+0x338>
 2009420:	9809883a 	mov	r4,r19
 2009424:	e00b883a 	mov	r5,fp
 2009428:	01800c04 	movi	r6,48
 200942c:	a80f883a 	mov	r7,r21
 2009430:	20090980 	call	2009098 <print_repeat>
 2009434:	1000451e 	bne	r2,zero,200954c <___svfprintf_internal_r+0x448>
 2009438:	8561883a 	add	r16,r16,r21
 200943c:	d8c00a17 	ldw	r3,40(sp)
 2009440:	b811883a 	mov	r8,r23
 2009444:	1debc83a 	sub	r21,r3,r23
 2009448:	00002206 	br	20094d4 <___svfprintf_internal_r+0x3d0>
 200944c:	0540090e 	bge	zero,r21,2009474 <___svfprintf_internal_r+0x370>
 2009450:	9809883a 	mov	r4,r19
 2009454:	e00b883a 	mov	r5,fp
 2009458:	01800804 	movi	r6,32
 200945c:	a80f883a 	mov	r7,r21
 2009460:	da401115 	stw	r9,68(sp)
 2009464:	20090980 	call	2009098 <print_repeat>
 2009468:	da401117 	ldw	r9,68(sp)
 200946c:	1000371e 	bne	r2,zero,200954c <___svfprintf_internal_r+0x448>
 2009470:	8561883a 	add	r16,r16,r21
 2009474:	483ff126 	beq	r9,zero,200943c <__alt_mem_pic_mem+0xfe00543c>
 2009478:	00800b44 	movi	r2,45
 200947c:	d8800805 	stb	r2,32(sp)
 2009480:	e0800117 	ldw	r2,4(fp)
 2009484:	9809883a 	mov	r4,r19
 2009488:	e00b883a 	mov	r5,fp
 200948c:	d9800804 	addi	r6,sp,32
 2009490:	01c00044 	movi	r7,1
 2009494:	103ee83a 	callr	r2
 2009498:	10002c1e 	bne	r2,zero,200954c <___svfprintf_internal_r+0x448>
 200949c:	84000044 	addi	r16,r16,1
 20094a0:	003fe606 	br	200943c <__alt_mem_pic_mem+0xfe00543c>
 20094a4:	423fffc4 	addi	r8,r8,-1
 20094a8:	40800003 	ldbu	r2,0(r8)
 20094ac:	9809883a 	mov	r4,r19
 20094b0:	e00b883a 	mov	r5,fp
 20094b4:	d8800805 	stb	r2,32(sp)
 20094b8:	e0800117 	ldw	r2,4(fp)
 20094bc:	d9800804 	addi	r6,sp,32
 20094c0:	da001015 	stw	r8,64(sp)
 20094c4:	01c00044 	movi	r7,1
 20094c8:	103ee83a 	callr	r2
 20094cc:	da001017 	ldw	r8,64(sp)
 20094d0:	10001e1e 	bne	r2,zero,200954c <___svfprintf_internal_r+0x448>
 20094d4:	8205c83a 	sub	r2,r16,r8
 20094d8:	4549883a 	add	r4,r8,r21
 20094dc:	b885883a 	add	r2,r23,r2
 20094e0:	013ff016 	blt	zero,r4,20094a4 <__alt_mem_pic_mem+0xfe0054a4>
 20094e4:	1021883a 	mov	r16,r2
 20094e8:	ddc00d17 	ldw	r23,52(sp)
 20094ec:	00004406 	br	2009600 <___svfprintf_internal_r+0x4fc>
 20094f0:	00800044 	movi	r2,1
 20094f4:	1440080e 	bge	r2,r17,2009518 <___svfprintf_internal_r+0x414>
 20094f8:	8d7fffc4 	addi	r21,r17,-1
 20094fc:	9809883a 	mov	r4,r19
 2009500:	e00b883a 	mov	r5,fp
 2009504:	01800804 	movi	r6,32
 2009508:	a80f883a 	mov	r7,r21
 200950c:	20090980 	call	2009098 <print_repeat>
 2009510:	10000e1e 	bne	r2,zero,200954c <___svfprintf_internal_r+0x448>
 2009514:	8561883a 	add	r16,r16,r21
 2009518:	b8800017 	ldw	r2,0(r23)
 200951c:	9809883a 	mov	r4,r19
 2009520:	e00b883a 	mov	r5,fp
 2009524:	d8800005 	stb	r2,0(sp)
 2009528:	e0800117 	ldw	r2,4(fp)
 200952c:	d80d883a 	mov	r6,sp
 2009530:	01c00044 	movi	r7,1
 2009534:	bd400104 	addi	r21,r23,4
 2009538:	103ee83a 	callr	r2
 200953c:	1000031e 	bne	r2,zero,200954c <___svfprintf_internal_r+0x448>
 2009540:	84000044 	addi	r16,r16,1
 2009544:	a82f883a 	mov	r23,r21
 2009548:	00002d06 	br	2009600 <___svfprintf_internal_r+0x4fc>
 200954c:	00bfffc4 	movi	r2,-1
 2009550:	00003106 	br	2009618 <___svfprintf_internal_r+0x514>
 2009554:	bd400017 	ldw	r21,0(r23)
 2009558:	b8c00104 	addi	r3,r23,4
 200955c:	d8c00a15 	stw	r3,40(sp)
 2009560:	a809883a 	mov	r4,r21
 2009564:	200907c0 	call	200907c <strlen>
 2009568:	8893c83a 	sub	r9,r17,r2
 200956c:	102f883a 	mov	r23,r2
 2009570:	0240090e 	bge	zero,r9,2009598 <___svfprintf_internal_r+0x494>
 2009574:	480f883a 	mov	r7,r9
 2009578:	9809883a 	mov	r4,r19
 200957c:	e00b883a 	mov	r5,fp
 2009580:	01800804 	movi	r6,32
 2009584:	da401115 	stw	r9,68(sp)
 2009588:	20090980 	call	2009098 <print_repeat>
 200958c:	da401117 	ldw	r9,68(sp)
 2009590:	103fee1e 	bne	r2,zero,200954c <__alt_mem_pic_mem+0xfe00554c>
 2009594:	8261883a 	add	r16,r16,r9
 2009598:	e0800117 	ldw	r2,4(fp)
 200959c:	9809883a 	mov	r4,r19
 20095a0:	e00b883a 	mov	r5,fp
 20095a4:	a80d883a 	mov	r6,r21
 20095a8:	b80f883a 	mov	r7,r23
 20095ac:	103ee83a 	callr	r2
 20095b0:	103fe61e 	bne	r2,zero,200954c <__alt_mem_pic_mem+0xfe00554c>
 20095b4:	85e1883a 	add	r16,r16,r23
 20095b8:	ddc00a17 	ldw	r23,40(sp)
 20095bc:	00001006 	br	2009600 <___svfprintf_internal_r+0x4fc>
 20095c0:	05800044 	movi	r22,1
 20095c4:	04bfffc4 	movi	r18,-1
 20095c8:	d8000e15 	stw	zero,56(sp)
 20095cc:	05000284 	movi	r20,10
 20095d0:	9023883a 	mov	r17,r18
 20095d4:	d8000c15 	stw	zero,48(sp)
 20095d8:	d8000b15 	stw	zero,44(sp)
 20095dc:	b02b883a 	mov	r21,r22
 20095e0:	00000806 	br	2009604 <___svfprintf_internal_r+0x500>
 20095e4:	dd400b15 	stw	r21,44(sp)
 20095e8:	05400084 	movi	r21,2
 20095ec:	00000506 	br	2009604 <___svfprintf_internal_r+0x500>
 20095f0:	00c00044 	movi	r3,1
 20095f4:	d8c00c15 	stw	r3,48(sp)
 20095f8:	054000c4 	movi	r21,3
 20095fc:	00000106 	br	2009604 <___svfprintf_internal_r+0x500>
 2009600:	002b883a 	mov	r21,zero
 2009604:	d8c00f17 	ldw	r3,60(sp)
 2009608:	18c00044 	addi	r3,r3,1
 200960c:	d8c00f15 	stw	r3,60(sp)
 2009610:	003ed606 	br	200916c <__alt_mem_pic_mem+0xfe00516c>
 2009614:	8005883a 	mov	r2,r16
 2009618:	dfc01b17 	ldw	ra,108(sp)
 200961c:	df001a17 	ldw	fp,104(sp)
 2009620:	ddc01917 	ldw	r23,100(sp)
 2009624:	dd801817 	ldw	r22,96(sp)
 2009628:	dd401717 	ldw	r21,92(sp)
 200962c:	dd001617 	ldw	r20,88(sp)
 2009630:	dcc01517 	ldw	r19,84(sp)
 2009634:	dc801417 	ldw	r18,80(sp)
 2009638:	dc401317 	ldw	r17,76(sp)
 200963c:	dc001217 	ldw	r16,72(sp)
 2009640:	dec01c04 	addi	sp,sp,112
 2009644:	f800283a 	ret

02009648 <__vfprintf_internal_unused>:
 2009648:	2007883a 	mov	r3,r4
 200964c:	010080f4 	movhi	r4,515
 2009650:	21202304 	addi	r4,r4,-32628
 2009654:	21000017 	ldw	r4,0(r4)
 2009658:	2805883a 	mov	r2,r5
 200965c:	300f883a 	mov	r7,r6
 2009660:	180b883a 	mov	r5,r3
 2009664:	100d883a 	mov	r6,r2
 2009668:	20091041 	jmpi	2009104 <___svfprintf_internal_r>

0200966c <print_repeat>:
 200966c:	defffb04 	addi	sp,sp,-20
 2009670:	dc800315 	stw	r18,12(sp)
 2009674:	dc400215 	stw	r17,8(sp)
 2009678:	dc000115 	stw	r16,4(sp)
 200967c:	dfc00415 	stw	ra,16(sp)
 2009680:	2025883a 	mov	r18,r4
 2009684:	2823883a 	mov	r17,r5
 2009688:	d9800005 	stb	r6,0(sp)
 200968c:	3821883a 	mov	r16,r7
 2009690:	04000a0e 	bge	zero,r16,20096bc <print_repeat+0x50>
 2009694:	88800117 	ldw	r2,4(r17)
 2009698:	9009883a 	mov	r4,r18
 200969c:	880b883a 	mov	r5,r17
 20096a0:	d80d883a 	mov	r6,sp
 20096a4:	01c00044 	movi	r7,1
 20096a8:	103ee83a 	callr	r2
 20096ac:	843fffc4 	addi	r16,r16,-1
 20096b0:	103ff726 	beq	r2,zero,2009690 <__alt_mem_pic_mem+0xfe005690>
 20096b4:	00bfffc4 	movi	r2,-1
 20096b8:	00000106 	br	20096c0 <print_repeat+0x54>
 20096bc:	0005883a 	mov	r2,zero
 20096c0:	dfc00417 	ldw	ra,16(sp)
 20096c4:	dc800317 	ldw	r18,12(sp)
 20096c8:	dc400217 	ldw	r17,8(sp)
 20096cc:	dc000117 	ldw	r16,4(sp)
 20096d0:	dec00504 	addi	sp,sp,20
 20096d4:	f800283a 	ret

020096d8 <___vfprintf_internal_r>:
 20096d8:	deffe404 	addi	sp,sp,-112
 20096dc:	d8c00804 	addi	r3,sp,32
 20096e0:	df001a15 	stw	fp,104(sp)
 20096e4:	ddc01915 	stw	r23,100(sp)
 20096e8:	dd801815 	stw	r22,96(sp)
 20096ec:	dd401715 	stw	r21,92(sp)
 20096f0:	dd001615 	stw	r20,88(sp)
 20096f4:	dcc01515 	stw	r19,84(sp)
 20096f8:	dc801415 	stw	r18,80(sp)
 20096fc:	dc401315 	stw	r17,76(sp)
 2009700:	dc001215 	stw	r16,72(sp)
 2009704:	dfc01b15 	stw	ra,108(sp)
 2009708:	2027883a 	mov	r19,r4
 200970c:	2839883a 	mov	fp,r5
 2009710:	382f883a 	mov	r23,r7
 2009714:	d9800f15 	stw	r6,60(sp)
 2009718:	0021883a 	mov	r16,zero
 200971c:	d8000e15 	stw	zero,56(sp)
 2009720:	002d883a 	mov	r22,zero
 2009724:	0029883a 	mov	r20,zero
 2009728:	0025883a 	mov	r18,zero
 200972c:	0023883a 	mov	r17,zero
 2009730:	d8000c15 	stw	zero,48(sp)
 2009734:	d8000b15 	stw	zero,44(sp)
 2009738:	002b883a 	mov	r21,zero
 200973c:	d8c00915 	stw	r3,36(sp)
 2009740:	d8c00f17 	ldw	r3,60(sp)
 2009744:	19000003 	ldbu	r4,0(r3)
 2009748:	20803fcc 	andi	r2,r4,255
 200974c:	1080201c 	xori	r2,r2,128
 2009750:	10bfe004 	addi	r2,r2,-128
 2009754:	10012426 	beq	r2,zero,2009be8 <___vfprintf_internal_r+0x510>
 2009758:	00c00044 	movi	r3,1
 200975c:	a8c01426 	beq	r21,r3,20097b0 <___vfprintf_internal_r+0xd8>
 2009760:	1d400216 	blt	r3,r21,200976c <___vfprintf_internal_r+0x94>
 2009764:	a8000626 	beq	r21,zero,2009780 <___vfprintf_internal_r+0xa8>
 2009768:	00011b06 	br	2009bd8 <___vfprintf_internal_r+0x500>
 200976c:	01400084 	movi	r5,2
 2009770:	a9401d26 	beq	r21,r5,20097e8 <___vfprintf_internal_r+0x110>
 2009774:	014000c4 	movi	r5,3
 2009778:	a9402926 	beq	r21,r5,2009820 <___vfprintf_internal_r+0x148>
 200977c:	00011606 	br	2009bd8 <___vfprintf_internal_r+0x500>
 2009780:	01400944 	movi	r5,37
 2009784:	11410326 	beq	r2,r5,2009b94 <___vfprintf_internal_r+0x4bc>
 2009788:	e0800117 	ldw	r2,4(fp)
 200978c:	d9000005 	stb	r4,0(sp)
 2009790:	e00b883a 	mov	r5,fp
 2009794:	9809883a 	mov	r4,r19
 2009798:	d80d883a 	mov	r6,sp
 200979c:	01c00044 	movi	r7,1
 20097a0:	103ee83a 	callr	r2
 20097a4:	1000de1e 	bne	r2,zero,2009b20 <___vfprintf_internal_r+0x448>
 20097a8:	84000044 	addi	r16,r16,1
 20097ac:	00010a06 	br	2009bd8 <___vfprintf_internal_r+0x500>
 20097b0:	01400c04 	movi	r5,48
 20097b4:	11410026 	beq	r2,r5,2009bb8 <___vfprintf_internal_r+0x4e0>
 20097b8:	01400944 	movi	r5,37
 20097bc:	11400a1e 	bne	r2,r5,20097e8 <___vfprintf_internal_r+0x110>
 20097c0:	d8800005 	stb	r2,0(sp)
 20097c4:	e0800117 	ldw	r2,4(fp)
 20097c8:	9809883a 	mov	r4,r19
 20097cc:	e00b883a 	mov	r5,fp
 20097d0:	d80d883a 	mov	r6,sp
 20097d4:	a80f883a 	mov	r7,r21
 20097d8:	103ee83a 	callr	r2
 20097dc:	1000d01e 	bne	r2,zero,2009b20 <___vfprintf_internal_r+0x448>
 20097e0:	84000044 	addi	r16,r16,1
 20097e4:	0000fb06 	br	2009bd4 <___vfprintf_internal_r+0x4fc>
 20097e8:	217ff404 	addi	r5,r4,-48
 20097ec:	29403fcc 	andi	r5,r5,255
 20097f0:	00c00244 	movi	r3,9
 20097f4:	19400736 	bltu	r3,r5,2009814 <___vfprintf_internal_r+0x13c>
 20097f8:	00bfffc4 	movi	r2,-1
 20097fc:	88800226 	beq	r17,r2,2009808 <___vfprintf_internal_r+0x130>
 2009800:	8c4002a4 	muli	r17,r17,10
 2009804:	00000106 	br	200980c <___vfprintf_internal_r+0x134>
 2009808:	0023883a 	mov	r17,zero
 200980c:	8963883a 	add	r17,r17,r5
 2009810:	0000ea06 	br	2009bbc <___vfprintf_internal_r+0x4e4>
 2009814:	01400b84 	movi	r5,46
 2009818:	1140ec26 	beq	r2,r5,2009bcc <___vfprintf_internal_r+0x4f4>
 200981c:	05400084 	movi	r21,2
 2009820:	213ff404 	addi	r4,r4,-48
 2009824:	21003fcc 	andi	r4,r4,255
 2009828:	00c00244 	movi	r3,9
 200982c:	19000736 	bltu	r3,r4,200984c <___vfprintf_internal_r+0x174>
 2009830:	00bfffc4 	movi	r2,-1
 2009834:	90800226 	beq	r18,r2,2009840 <___vfprintf_internal_r+0x168>
 2009838:	948002a4 	muli	r18,r18,10
 200983c:	00000106 	br	2009844 <___vfprintf_internal_r+0x16c>
 2009840:	0025883a 	mov	r18,zero
 2009844:	9125883a 	add	r18,r18,r4
 2009848:	0000e306 	br	2009bd8 <___vfprintf_internal_r+0x500>
 200984c:	00c01b04 	movi	r3,108
 2009850:	10c0dc26 	beq	r2,r3,2009bc4 <___vfprintf_internal_r+0x4ec>
 2009854:	013fffc4 	movi	r4,-1
 2009858:	91000226 	beq	r18,r4,2009864 <___vfprintf_internal_r+0x18c>
 200985c:	d8000b15 	stw	zero,44(sp)
 2009860:	00000106 	br	2009868 <___vfprintf_internal_r+0x190>
 2009864:	04800044 	movi	r18,1
 2009868:	01001a44 	movi	r4,105
 200986c:	11001626 	beq	r2,r4,20098c8 <___vfprintf_internal_r+0x1f0>
 2009870:	20800916 	blt	r4,r2,2009898 <___vfprintf_internal_r+0x1c0>
 2009874:	010018c4 	movi	r4,99
 2009878:	11009226 	beq	r2,r4,2009ac4 <___vfprintf_internal_r+0x3ec>
 200987c:	01001904 	movi	r4,100
 2009880:	11001126 	beq	r2,r4,20098c8 <___vfprintf_internal_r+0x1f0>
 2009884:	01001604 	movi	r4,88
 2009888:	1100d21e 	bne	r2,r4,2009bd4 <___vfprintf_internal_r+0x4fc>
 200988c:	00c00044 	movi	r3,1
 2009890:	d8c00e15 	stw	r3,56(sp)
 2009894:	00001406 	br	20098e8 <___vfprintf_internal_r+0x210>
 2009898:	01001cc4 	movi	r4,115
 200989c:	1100a226 	beq	r2,r4,2009b28 <___vfprintf_internal_r+0x450>
 20098a0:	20800416 	blt	r4,r2,20098b4 <___vfprintf_internal_r+0x1dc>
 20098a4:	01001bc4 	movi	r4,111
 20098a8:	1100ca1e 	bne	r2,r4,2009bd4 <___vfprintf_internal_r+0x4fc>
 20098ac:	05000204 	movi	r20,8
 20098b0:	00000e06 	br	20098ec <___vfprintf_internal_r+0x214>
 20098b4:	01001d44 	movi	r4,117
 20098b8:	11000c26 	beq	r2,r4,20098ec <___vfprintf_internal_r+0x214>
 20098bc:	01001e04 	movi	r4,120
 20098c0:	11000926 	beq	r2,r4,20098e8 <___vfprintf_internal_r+0x210>
 20098c4:	0000c306 	br	2009bd4 <___vfprintf_internal_r+0x4fc>
 20098c8:	b8800104 	addi	r2,r23,4
 20098cc:	b0000726 	beq	r22,zero,20098ec <___vfprintf_internal_r+0x214>
 20098d0:	d8800d15 	stw	r2,52(sp)
 20098d4:	bdc00017 	ldw	r23,0(r23)
 20098d8:	b800080e 	bge	r23,zero,20098fc <___vfprintf_internal_r+0x224>
 20098dc:	05efc83a 	sub	r23,zero,r23
 20098e0:	02400044 	movi	r9,1
 20098e4:	00000606 	br	2009900 <___vfprintf_internal_r+0x228>
 20098e8:	05000404 	movi	r20,16
 20098ec:	b8c00104 	addi	r3,r23,4
 20098f0:	d8c00d15 	stw	r3,52(sp)
 20098f4:	bdc00017 	ldw	r23,0(r23)
 20098f8:	002d883a 	mov	r22,zero
 20098fc:	0013883a 	mov	r9,zero
 2009900:	002b883a 	mov	r21,zero
 2009904:	dd4d883a 	add	r6,sp,r21
 2009908:	b8001626 	beq	r23,zero,2009964 <___vfprintf_internal_r+0x28c>
 200990c:	b809883a 	mov	r4,r23
 2009910:	a00b883a 	mov	r5,r20
 2009914:	d9801015 	stw	r6,64(sp)
 2009918:	da401115 	stw	r9,68(sp)
 200991c:	20062fc0 	call	20062fc <__udivsi3>
 2009920:	a089383a 	mul	r4,r20,r2
 2009924:	00c00244 	movi	r3,9
 2009928:	d9801017 	ldw	r6,64(sp)
 200992c:	b92fc83a 	sub	r23,r23,r4
 2009930:	da401117 	ldw	r9,68(sp)
 2009934:	1dc00216 	blt	r3,r23,2009940 <___vfprintf_internal_r+0x268>
 2009938:	bdc00c04 	addi	r23,r23,48
 200993c:	00000506 	br	2009954 <___vfprintf_internal_r+0x27c>
 2009940:	d8c00e17 	ldw	r3,56(sp)
 2009944:	18000226 	beq	r3,zero,2009950 <___vfprintf_internal_r+0x278>
 2009948:	bdc00dc4 	addi	r23,r23,55
 200994c:	00000106 	br	2009954 <___vfprintf_internal_r+0x27c>
 2009950:	bdc015c4 	addi	r23,r23,87
 2009954:	35c00005 	stb	r23,0(r6)
 2009958:	ad400044 	addi	r21,r21,1
 200995c:	102f883a 	mov	r23,r2
 2009960:	003fe806 	br	2009904 <__alt_mem_pic_mem+0xfe005904>
 2009964:	36c7c83a 	sub	r3,r6,sp
 2009968:	d8c00a15 	stw	r3,40(sp)
 200996c:	90c5c83a 	sub	r2,r18,r3
 2009970:	302f883a 	mov	r23,r6
 2009974:	00800e0e 	bge	zero,r2,20099b0 <___vfprintf_internal_r+0x2d8>
 2009978:	302b883a 	mov	r21,r6
 200997c:	3085883a 	add	r2,r6,r2
 2009980:	01400c04 	movi	r5,48
 2009984:	d8c00917 	ldw	r3,36(sp)
 2009988:	a809883a 	mov	r4,r21
 200998c:	a8c0052e 	bgeu	r21,r3,20099a4 <___vfprintf_internal_r+0x2cc>
 2009990:	ad400044 	addi	r21,r21,1
 2009994:	21400005 	stb	r5,0(r4)
 2009998:	a82f883a 	mov	r23,r21
 200999c:	a8bff91e 	bne	r21,r2,2009984 <__alt_mem_pic_mem+0xfe005984>
 20099a0:	00000106 	br	20099a8 <___vfprintf_internal_r+0x2d0>
 20099a4:	a82f883a 	mov	r23,r21
 20099a8:	aeebc83a 	sub	r21,r21,sp
 20099ac:	dd400a15 	stw	r21,40(sp)
 20099b0:	d8c00a17 	ldw	r3,40(sp)
 20099b4:	1a51883a 	add	r8,r3,r9
 20099b8:	d8c00b17 	ldw	r3,44(sp)
 20099bc:	8a2bc83a 	sub	r21,r17,r8
 20099c0:	18001726 	beq	r3,zero,2009a20 <___vfprintf_internal_r+0x348>
 20099c4:	48000a26 	beq	r9,zero,20099f0 <___vfprintf_internal_r+0x318>
 20099c8:	00800b44 	movi	r2,45
 20099cc:	d8800805 	stb	r2,32(sp)
 20099d0:	e0800117 	ldw	r2,4(fp)
 20099d4:	9809883a 	mov	r4,r19
 20099d8:	e00b883a 	mov	r5,fp
 20099dc:	d9800804 	addi	r6,sp,32
 20099e0:	01c00044 	movi	r7,1
 20099e4:	103ee83a 	callr	r2
 20099e8:	10004d1e 	bne	r2,zero,2009b20 <___vfprintf_internal_r+0x448>
 20099ec:	84000044 	addi	r16,r16,1
 20099f0:	0540070e 	bge	zero,r21,2009a10 <___vfprintf_internal_r+0x338>
 20099f4:	9809883a 	mov	r4,r19
 20099f8:	e00b883a 	mov	r5,fp
 20099fc:	01800c04 	movi	r6,48
 2009a00:	a80f883a 	mov	r7,r21
 2009a04:	200966c0 	call	200966c <print_repeat>
 2009a08:	1000451e 	bne	r2,zero,2009b20 <___vfprintf_internal_r+0x448>
 2009a0c:	8561883a 	add	r16,r16,r21
 2009a10:	d8c00a17 	ldw	r3,40(sp)
 2009a14:	b811883a 	mov	r8,r23
 2009a18:	1debc83a 	sub	r21,r3,r23
 2009a1c:	00002206 	br	2009aa8 <___vfprintf_internal_r+0x3d0>
 2009a20:	0540090e 	bge	zero,r21,2009a48 <___vfprintf_internal_r+0x370>
 2009a24:	9809883a 	mov	r4,r19
 2009a28:	e00b883a 	mov	r5,fp
 2009a2c:	01800804 	movi	r6,32
 2009a30:	a80f883a 	mov	r7,r21
 2009a34:	da401115 	stw	r9,68(sp)
 2009a38:	200966c0 	call	200966c <print_repeat>
 2009a3c:	da401117 	ldw	r9,68(sp)
 2009a40:	1000371e 	bne	r2,zero,2009b20 <___vfprintf_internal_r+0x448>
 2009a44:	8561883a 	add	r16,r16,r21
 2009a48:	483ff126 	beq	r9,zero,2009a10 <__alt_mem_pic_mem+0xfe005a10>
 2009a4c:	00800b44 	movi	r2,45
 2009a50:	d8800805 	stb	r2,32(sp)
 2009a54:	e0800117 	ldw	r2,4(fp)
 2009a58:	9809883a 	mov	r4,r19
 2009a5c:	e00b883a 	mov	r5,fp
 2009a60:	d9800804 	addi	r6,sp,32
 2009a64:	01c00044 	movi	r7,1
 2009a68:	103ee83a 	callr	r2
 2009a6c:	10002c1e 	bne	r2,zero,2009b20 <___vfprintf_internal_r+0x448>
 2009a70:	84000044 	addi	r16,r16,1
 2009a74:	003fe606 	br	2009a10 <__alt_mem_pic_mem+0xfe005a10>
 2009a78:	423fffc4 	addi	r8,r8,-1
 2009a7c:	40800003 	ldbu	r2,0(r8)
 2009a80:	9809883a 	mov	r4,r19
 2009a84:	e00b883a 	mov	r5,fp
 2009a88:	d8800805 	stb	r2,32(sp)
 2009a8c:	e0800117 	ldw	r2,4(fp)
 2009a90:	d9800804 	addi	r6,sp,32
 2009a94:	da001015 	stw	r8,64(sp)
 2009a98:	01c00044 	movi	r7,1
 2009a9c:	103ee83a 	callr	r2
 2009aa0:	da001017 	ldw	r8,64(sp)
 2009aa4:	10001e1e 	bne	r2,zero,2009b20 <___vfprintf_internal_r+0x448>
 2009aa8:	8205c83a 	sub	r2,r16,r8
 2009aac:	4549883a 	add	r4,r8,r21
 2009ab0:	b885883a 	add	r2,r23,r2
 2009ab4:	013ff016 	blt	zero,r4,2009a78 <__alt_mem_pic_mem+0xfe005a78>
 2009ab8:	1021883a 	mov	r16,r2
 2009abc:	ddc00d17 	ldw	r23,52(sp)
 2009ac0:	00004406 	br	2009bd4 <___vfprintf_internal_r+0x4fc>
 2009ac4:	00800044 	movi	r2,1
 2009ac8:	1440080e 	bge	r2,r17,2009aec <___vfprintf_internal_r+0x414>
 2009acc:	8d7fffc4 	addi	r21,r17,-1
 2009ad0:	9809883a 	mov	r4,r19
 2009ad4:	e00b883a 	mov	r5,fp
 2009ad8:	01800804 	movi	r6,32
 2009adc:	a80f883a 	mov	r7,r21
 2009ae0:	200966c0 	call	200966c <print_repeat>
 2009ae4:	10000e1e 	bne	r2,zero,2009b20 <___vfprintf_internal_r+0x448>
 2009ae8:	8561883a 	add	r16,r16,r21
 2009aec:	b8800017 	ldw	r2,0(r23)
 2009af0:	9809883a 	mov	r4,r19
 2009af4:	e00b883a 	mov	r5,fp
 2009af8:	d8800005 	stb	r2,0(sp)
 2009afc:	e0800117 	ldw	r2,4(fp)
 2009b00:	d80d883a 	mov	r6,sp
 2009b04:	01c00044 	movi	r7,1
 2009b08:	bd400104 	addi	r21,r23,4
 2009b0c:	103ee83a 	callr	r2
 2009b10:	1000031e 	bne	r2,zero,2009b20 <___vfprintf_internal_r+0x448>
 2009b14:	84000044 	addi	r16,r16,1
 2009b18:	a82f883a 	mov	r23,r21
 2009b1c:	00002d06 	br	2009bd4 <___vfprintf_internal_r+0x4fc>
 2009b20:	00bfffc4 	movi	r2,-1
 2009b24:	00003106 	br	2009bec <___vfprintf_internal_r+0x514>
 2009b28:	bd400017 	ldw	r21,0(r23)
 2009b2c:	b8c00104 	addi	r3,r23,4
 2009b30:	d8c00a15 	stw	r3,40(sp)
 2009b34:	a809883a 	mov	r4,r21
 2009b38:	200907c0 	call	200907c <strlen>
 2009b3c:	8893c83a 	sub	r9,r17,r2
 2009b40:	102f883a 	mov	r23,r2
 2009b44:	0240090e 	bge	zero,r9,2009b6c <___vfprintf_internal_r+0x494>
 2009b48:	480f883a 	mov	r7,r9
 2009b4c:	9809883a 	mov	r4,r19
 2009b50:	e00b883a 	mov	r5,fp
 2009b54:	01800804 	movi	r6,32
 2009b58:	da401115 	stw	r9,68(sp)
 2009b5c:	200966c0 	call	200966c <print_repeat>
 2009b60:	da401117 	ldw	r9,68(sp)
 2009b64:	103fee1e 	bne	r2,zero,2009b20 <__alt_mem_pic_mem+0xfe005b20>
 2009b68:	8261883a 	add	r16,r16,r9
 2009b6c:	e0800117 	ldw	r2,4(fp)
 2009b70:	9809883a 	mov	r4,r19
 2009b74:	e00b883a 	mov	r5,fp
 2009b78:	a80d883a 	mov	r6,r21
 2009b7c:	b80f883a 	mov	r7,r23
 2009b80:	103ee83a 	callr	r2
 2009b84:	103fe61e 	bne	r2,zero,2009b20 <__alt_mem_pic_mem+0xfe005b20>
 2009b88:	85e1883a 	add	r16,r16,r23
 2009b8c:	ddc00a17 	ldw	r23,40(sp)
 2009b90:	00001006 	br	2009bd4 <___vfprintf_internal_r+0x4fc>
 2009b94:	05800044 	movi	r22,1
 2009b98:	04bfffc4 	movi	r18,-1
 2009b9c:	d8000e15 	stw	zero,56(sp)
 2009ba0:	05000284 	movi	r20,10
 2009ba4:	9023883a 	mov	r17,r18
 2009ba8:	d8000c15 	stw	zero,48(sp)
 2009bac:	d8000b15 	stw	zero,44(sp)
 2009bb0:	b02b883a 	mov	r21,r22
 2009bb4:	00000806 	br	2009bd8 <___vfprintf_internal_r+0x500>
 2009bb8:	dd400b15 	stw	r21,44(sp)
 2009bbc:	05400084 	movi	r21,2
 2009bc0:	00000506 	br	2009bd8 <___vfprintf_internal_r+0x500>
 2009bc4:	00c00044 	movi	r3,1
 2009bc8:	d8c00c15 	stw	r3,48(sp)
 2009bcc:	054000c4 	movi	r21,3
 2009bd0:	00000106 	br	2009bd8 <___vfprintf_internal_r+0x500>
 2009bd4:	002b883a 	mov	r21,zero
 2009bd8:	d8c00f17 	ldw	r3,60(sp)
 2009bdc:	18c00044 	addi	r3,r3,1
 2009be0:	d8c00f15 	stw	r3,60(sp)
 2009be4:	003ed606 	br	2009740 <__alt_mem_pic_mem+0xfe005740>
 2009be8:	8005883a 	mov	r2,r16
 2009bec:	dfc01b17 	ldw	ra,108(sp)
 2009bf0:	df001a17 	ldw	fp,104(sp)
 2009bf4:	ddc01917 	ldw	r23,100(sp)
 2009bf8:	dd801817 	ldw	r22,96(sp)
 2009bfc:	dd401717 	ldw	r21,92(sp)
 2009c00:	dd001617 	ldw	r20,88(sp)
 2009c04:	dcc01517 	ldw	r19,84(sp)
 2009c08:	dc801417 	ldw	r18,80(sp)
 2009c0c:	dc401317 	ldw	r17,76(sp)
 2009c10:	dc001217 	ldw	r16,72(sp)
 2009c14:	dec01c04 	addi	sp,sp,112
 2009c18:	f800283a 	ret

02009c1c <__vfprintf_internal>:
 2009c1c:	2007883a 	mov	r3,r4
 2009c20:	010080f4 	movhi	r4,515
 2009c24:	21202304 	addi	r4,r4,-32628
 2009c28:	21000017 	ldw	r4,0(r4)
 2009c2c:	2805883a 	mov	r2,r5
 2009c30:	300f883a 	mov	r7,r6
 2009c34:	180b883a 	mov	r5,r3
 2009c38:	100d883a 	mov	r6,r2
 2009c3c:	20096d81 	jmpi	20096d8 <___vfprintf_internal_r>

02009c40 <_malloc_trim_r>:
 2009c40:	defffb04 	addi	sp,sp,-20
 2009c44:	dcc00315 	stw	r19,12(sp)
 2009c48:	04c080b4 	movhi	r19,514
 2009c4c:	dc800215 	stw	r18,8(sp)
 2009c50:	dc400115 	stw	r17,4(sp)
 2009c54:	dc000015 	stw	r16,0(sp)
 2009c58:	dfc00415 	stw	ra,16(sp)
 2009c5c:	2821883a 	mov	r16,r5
 2009c60:	2025883a 	mov	r18,r4
 2009c64:	9cdea804 	addi	r19,r19,31392
 2009c68:	200a7480 	call	200a748 <__malloc_lock>
 2009c6c:	98800217 	ldw	r2,8(r19)
 2009c70:	14400117 	ldw	r17,4(r2)
 2009c74:	00bfff04 	movi	r2,-4
 2009c78:	88a2703a 	and	r17,r17,r2
 2009c7c:	8c21c83a 	sub	r16,r17,r16
 2009c80:	84001bc4 	addi	r16,r16,111
 2009c84:	8020d1fa 	srli	r16,r16,7
 2009c88:	00801fc4 	movi	r2,127
 2009c8c:	843fffc4 	addi	r16,r16,-1
 2009c90:	802091fa 	slli	r16,r16,7
 2009c94:	14000416 	blt	r2,r16,2009ca8 <_malloc_trim_r+0x68>
 2009c98:	9009883a 	mov	r4,r18
 2009c9c:	200a7680 	call	200a768 <__malloc_unlock>
 2009ca0:	0005883a 	mov	r2,zero
 2009ca4:	00002806 	br	2009d48 <_malloc_trim_r+0x108>
 2009ca8:	9009883a 	mov	r4,r18
 2009cac:	000b883a 	mov	r5,zero
 2009cb0:	2008f240 	call	2008f24 <_sbrk_r>
 2009cb4:	98c00217 	ldw	r3,8(r19)
 2009cb8:	1c47883a 	add	r3,r3,r17
 2009cbc:	10fff61e 	bne	r2,r3,2009c98 <__alt_mem_pic_mem+0xfe005c98>
 2009cc0:	9009883a 	mov	r4,r18
 2009cc4:	040bc83a 	sub	r5,zero,r16
 2009cc8:	2008f240 	call	2008f24 <_sbrk_r>
 2009ccc:	00ffffc4 	movi	r3,-1
 2009cd0:	10c0111e 	bne	r2,r3,2009d18 <_malloc_trim_r+0xd8>
 2009cd4:	9009883a 	mov	r4,r18
 2009cd8:	000b883a 	mov	r5,zero
 2009cdc:	2008f240 	call	2008f24 <_sbrk_r>
 2009ce0:	99000217 	ldw	r4,8(r19)
 2009ce4:	014003c4 	movi	r5,15
 2009ce8:	1107c83a 	sub	r3,r2,r4
 2009cec:	28ffea0e 	bge	r5,r3,2009c98 <__alt_mem_pic_mem+0xfe005c98>
 2009cf0:	014080f4 	movhi	r5,515
 2009cf4:	29602404 	addi	r5,r5,-32624
 2009cf8:	29400017 	ldw	r5,0(r5)
 2009cfc:	18c00054 	ori	r3,r3,1
 2009d00:	20c00115 	stw	r3,4(r4)
 2009d04:	1145c83a 	sub	r2,r2,r5
 2009d08:	014080f4 	movhi	r5,515
 2009d0c:	2968e604 	addi	r5,r5,-23656
 2009d10:	28800015 	stw	r2,0(r5)
 2009d14:	003fe006 	br	2009c98 <__alt_mem_pic_mem+0xfe005c98>
 2009d18:	98800217 	ldw	r2,8(r19)
 2009d1c:	8c23c83a 	sub	r17,r17,r16
 2009d20:	00c080f4 	movhi	r3,515
 2009d24:	18e8e604 	addi	r3,r3,-23656
 2009d28:	8c400054 	ori	r17,r17,1
 2009d2c:	14400115 	stw	r17,4(r2)
 2009d30:	18800017 	ldw	r2,0(r3)
 2009d34:	9009883a 	mov	r4,r18
 2009d38:	1421c83a 	sub	r16,r2,r16
 2009d3c:	1c000015 	stw	r16,0(r3)
 2009d40:	200a7680 	call	200a768 <__malloc_unlock>
 2009d44:	00800044 	movi	r2,1
 2009d48:	dfc00417 	ldw	ra,16(sp)
 2009d4c:	dcc00317 	ldw	r19,12(sp)
 2009d50:	dc800217 	ldw	r18,8(sp)
 2009d54:	dc400117 	ldw	r17,4(sp)
 2009d58:	dc000017 	ldw	r16,0(sp)
 2009d5c:	dec00504 	addi	sp,sp,20
 2009d60:	f800283a 	ret

02009d64 <_free_r>:
 2009d64:	2800a026 	beq	r5,zero,2009fe8 <_free_r+0x284>
 2009d68:	defffd04 	addi	sp,sp,-12
 2009d6c:	dc400115 	stw	r17,4(sp)
 2009d70:	dc000015 	stw	r16,0(sp)
 2009d74:	2823883a 	mov	r17,r5
 2009d78:	2021883a 	mov	r16,r4
 2009d7c:	dfc00215 	stw	ra,8(sp)
 2009d80:	200a7480 	call	200a748 <__malloc_lock>
 2009d84:	8a3fff17 	ldw	r8,-4(r17)
 2009d88:	00bfff84 	movi	r2,-2
 2009d8c:	893ffe04 	addi	r4,r17,-8
 2009d90:	4084703a 	and	r2,r8,r2
 2009d94:	208d883a 	add	r6,r4,r2
 2009d98:	31400117 	ldw	r5,4(r6)
 2009d9c:	00ffff04 	movi	r3,-4
 2009da0:	28c6703a 	and	r3,r5,r3
 2009da4:	014080b4 	movhi	r5,514
 2009da8:	295ea804 	addi	r5,r5,31392
 2009dac:	2a400217 	ldw	r9,8(r5)
 2009db0:	280f883a 	mov	r7,r5
 2009db4:	4140004c 	andi	r5,r8,1
 2009db8:	32401b1e 	bne	r6,r9,2009e28 <_free_r+0xc4>
 2009dbc:	1885883a 	add	r2,r3,r2
 2009dc0:	2800071e 	bne	r5,zero,2009de0 <_free_r+0x7c>
 2009dc4:	88fffe17 	ldw	r3,-8(r17)
 2009dc8:	20c9c83a 	sub	r4,r4,r3
 2009dcc:	21400217 	ldw	r5,8(r4)
 2009dd0:	10c5883a 	add	r2,r2,r3
 2009dd4:	20c00317 	ldw	r3,12(r4)
 2009dd8:	28c00315 	stw	r3,12(r5)
 2009ddc:	19400215 	stw	r5,8(r3)
 2009de0:	10c00054 	ori	r3,r2,1
 2009de4:	20c00115 	stw	r3,4(r4)
 2009de8:	00c080f4 	movhi	r3,515
 2009dec:	18e02504 	addi	r3,r3,-32620
 2009df0:	18c00017 	ldw	r3,0(r3)
 2009df4:	39000215 	stw	r4,8(r7)
 2009df8:	10c00536 	bltu	r2,r3,2009e10 <_free_r+0xac>
 2009dfc:	008080f4 	movhi	r2,515
 2009e00:	10a8de04 	addi	r2,r2,-23688
 2009e04:	11400017 	ldw	r5,0(r2)
 2009e08:	8009883a 	mov	r4,r16
 2009e0c:	2009c400 	call	2009c40 <_malloc_trim_r>
 2009e10:	8009883a 	mov	r4,r16
 2009e14:	dfc00217 	ldw	ra,8(sp)
 2009e18:	dc400117 	ldw	r17,4(sp)
 2009e1c:	dc000017 	ldw	r16,0(sp)
 2009e20:	dec00304 	addi	sp,sp,12
 2009e24:	200a7681 	jmpi	200a768 <__malloc_unlock>
 2009e28:	30c00115 	stw	r3,4(r6)
 2009e2c:	2800091e 	bne	r5,zero,2009e54 <_free_r+0xf0>
 2009e30:	897ffe17 	ldw	r5,-8(r17)
 2009e34:	3a000204 	addi	r8,r7,8
 2009e38:	2149c83a 	sub	r4,r4,r5
 2009e3c:	1145883a 	add	r2,r2,r5
 2009e40:	21400217 	ldw	r5,8(r4)
 2009e44:	2a000526 	beq	r5,r8,2009e5c <_free_r+0xf8>
 2009e48:	22000317 	ldw	r8,12(r4)
 2009e4c:	2a000315 	stw	r8,12(r5)
 2009e50:	41400215 	stw	r5,8(r8)
 2009e54:	000b883a 	mov	r5,zero
 2009e58:	00000106 	br	2009e60 <_free_r+0xfc>
 2009e5c:	01400044 	movi	r5,1
 2009e60:	30d1883a 	add	r8,r6,r3
 2009e64:	42000117 	ldw	r8,4(r8)
 2009e68:	4200004c 	andi	r8,r8,1
 2009e6c:	4000101e 	bne	r8,zero,2009eb0 <_free_r+0x14c>
 2009e70:	10c5883a 	add	r2,r2,r3
 2009e74:	28000a1e 	bne	r5,zero,2009ea0 <_free_r+0x13c>
 2009e78:	30c00217 	ldw	r3,8(r6)
 2009e7c:	020080b4 	movhi	r8,514
 2009e80:	421eaa04 	addi	r8,r8,31400
 2009e84:	1a00061e 	bne	r3,r8,2009ea0 <_free_r+0x13c>
 2009e88:	39000515 	stw	r4,20(r7)
 2009e8c:	39000415 	stw	r4,16(r7)
 2009e90:	20c00315 	stw	r3,12(r4)
 2009e94:	20c00215 	stw	r3,8(r4)
 2009e98:	01400044 	movi	r5,1
 2009e9c:	00000406 	br	2009eb0 <_free_r+0x14c>
 2009ea0:	30c00317 	ldw	r3,12(r6)
 2009ea4:	31800217 	ldw	r6,8(r6)
 2009ea8:	30c00315 	stw	r3,12(r6)
 2009eac:	19800215 	stw	r6,8(r3)
 2009eb0:	10c00054 	ori	r3,r2,1
 2009eb4:	20c00115 	stw	r3,4(r4)
 2009eb8:	2087883a 	add	r3,r4,r2
 2009ebc:	18800015 	stw	r2,0(r3)
 2009ec0:	283fd31e 	bne	r5,zero,2009e10 <__alt_mem_pic_mem+0xfe005e10>
 2009ec4:	00c07fc4 	movi	r3,511
 2009ec8:	18801036 	bltu	r3,r2,2009f0c <_free_r+0x1a8>
 2009ecc:	1006d0fa 	srli	r3,r2,3
 2009ed0:	00800044 	movi	r2,1
 2009ed4:	180bd0ba 	srai	r5,r3,2
 2009ed8:	18c7883a 	add	r3,r3,r3
 2009edc:	18c7883a 	add	r3,r3,r3
 2009ee0:	114a983a 	sll	r5,r2,r5
 2009ee4:	38800117 	ldw	r2,4(r7)
 2009ee8:	18c7883a 	add	r3,r3,r3
 2009eec:	2884b03a 	or	r2,r5,r2
 2009ef0:	38800115 	stw	r2,4(r7)
 2009ef4:	38c5883a 	add	r2,r7,r3
 2009ef8:	10c00217 	ldw	r3,8(r2)
 2009efc:	20800315 	stw	r2,12(r4)
 2009f00:	20c00215 	stw	r3,8(r4)
 2009f04:	11000215 	stw	r4,8(r2)
 2009f08:	00003506 	br	2009fe0 <_free_r+0x27c>
 2009f0c:	1006d27a 	srli	r3,r2,9
 2009f10:	01400104 	movi	r5,4
 2009f14:	28c00336 	bltu	r5,r3,2009f24 <_free_r+0x1c0>
 2009f18:	1006d1ba 	srli	r3,r2,6
 2009f1c:	18c00e04 	addi	r3,r3,56
 2009f20:	00001406 	br	2009f74 <_free_r+0x210>
 2009f24:	01400504 	movi	r5,20
 2009f28:	28c00236 	bltu	r5,r3,2009f34 <_free_r+0x1d0>
 2009f2c:	18c016c4 	addi	r3,r3,91
 2009f30:	00001006 	br	2009f74 <_free_r+0x210>
 2009f34:	01401504 	movi	r5,84
 2009f38:	28c00336 	bltu	r5,r3,2009f48 <_free_r+0x1e4>
 2009f3c:	1006d33a 	srli	r3,r2,12
 2009f40:	18c01b84 	addi	r3,r3,110
 2009f44:	00000b06 	br	2009f74 <_free_r+0x210>
 2009f48:	01405504 	movi	r5,340
 2009f4c:	28c00336 	bltu	r5,r3,2009f5c <_free_r+0x1f8>
 2009f50:	1006d3fa 	srli	r3,r2,15
 2009f54:	18c01dc4 	addi	r3,r3,119
 2009f58:	00000606 	br	2009f74 <_free_r+0x210>
 2009f5c:	01415504 	movi	r5,1364
 2009f60:	28c00336 	bltu	r5,r3,2009f70 <_free_r+0x20c>
 2009f64:	1006d4ba 	srli	r3,r2,18
 2009f68:	18c01f04 	addi	r3,r3,124
 2009f6c:	00000106 	br	2009f74 <_free_r+0x210>
 2009f70:	00c01f84 	movi	r3,126
 2009f74:	18cd883a 	add	r6,r3,r3
 2009f78:	318d883a 	add	r6,r6,r6
 2009f7c:	318d883a 	add	r6,r6,r6
 2009f80:	398b883a 	add	r5,r7,r6
 2009f84:	29800217 	ldw	r6,8(r5)
 2009f88:	020080b4 	movhi	r8,514
 2009f8c:	421ea804 	addi	r8,r8,31392
 2009f90:	3140081e 	bne	r6,r5,2009fb4 <_free_r+0x250>
 2009f94:	1807d0ba 	srai	r3,r3,2
 2009f98:	00800044 	movi	r2,1
 2009f9c:	10c6983a 	sll	r3,r2,r3
 2009fa0:	40800117 	ldw	r2,4(r8)
 2009fa4:	1886b03a 	or	r3,r3,r2
 2009fa8:	40c00115 	stw	r3,4(r8)
 2009fac:	3007883a 	mov	r3,r6
 2009fb0:	00000806 	br	2009fd4 <_free_r+0x270>
 2009fb4:	3007883a 	mov	r3,r6
 2009fb8:	01ffff04 	movi	r7,-4
 2009fbc:	19800117 	ldw	r6,4(r3)
 2009fc0:	31cc703a 	and	r6,r6,r7
 2009fc4:	1180022e 	bgeu	r2,r6,2009fd0 <_free_r+0x26c>
 2009fc8:	18c00217 	ldw	r3,8(r3)
 2009fcc:	197ffb1e 	bne	r3,r5,2009fbc <__alt_mem_pic_mem+0xfe005fbc>
 2009fd0:	19800317 	ldw	r6,12(r3)
 2009fd4:	21800315 	stw	r6,12(r4)
 2009fd8:	20c00215 	stw	r3,8(r4)
 2009fdc:	31000215 	stw	r4,8(r6)
 2009fe0:	19000315 	stw	r4,12(r3)
 2009fe4:	003f8a06 	br	2009e10 <__alt_mem_pic_mem+0xfe005e10>
 2009fe8:	f800283a 	ret

02009fec <__sfvwrite_small_dev>:
 2009fec:	2880000b 	ldhu	r2,0(r5)
 2009ff0:	defffa04 	addi	sp,sp,-24
 2009ff4:	dc000015 	stw	r16,0(sp)
 2009ff8:	dfc00515 	stw	ra,20(sp)
 2009ffc:	dd000415 	stw	r20,16(sp)
 200a000:	dcc00315 	stw	r19,12(sp)
 200a004:	dc800215 	stw	r18,8(sp)
 200a008:	dc400115 	stw	r17,4(sp)
 200a00c:	1080020c 	andi	r2,r2,8
 200a010:	2821883a 	mov	r16,r5
 200a014:	10001726 	beq	r2,zero,200a074 <__sfvwrite_small_dev+0x88>
 200a018:	2880008f 	ldh	r2,2(r5)
 200a01c:	10001216 	blt	r2,zero,200a068 <__sfvwrite_small_dev+0x7c>
 200a020:	2027883a 	mov	r19,r4
 200a024:	3025883a 	mov	r18,r6
 200a028:	3823883a 	mov	r17,r7
 200a02c:	05010004 	movi	r20,1024
 200a030:	04400b0e 	bge	zero,r17,200a060 <__sfvwrite_small_dev+0x74>
 200a034:	8140008f 	ldh	r5,2(r16)
 200a038:	880f883a 	mov	r7,r17
 200a03c:	a440010e 	bge	r20,r17,200a044 <__sfvwrite_small_dev+0x58>
 200a040:	01c10004 	movi	r7,1024
 200a044:	9809883a 	mov	r4,r19
 200a048:	900d883a 	mov	r6,r18
 200a04c:	200a1940 	call	200a194 <_write_r>
 200a050:	0080050e 	bge	zero,r2,200a068 <__sfvwrite_small_dev+0x7c>
 200a054:	88a3c83a 	sub	r17,r17,r2
 200a058:	90a5883a 	add	r18,r18,r2
 200a05c:	003ff406 	br	200a030 <__alt_mem_pic_mem+0xfe006030>
 200a060:	0005883a 	mov	r2,zero
 200a064:	00000406 	br	200a078 <__sfvwrite_small_dev+0x8c>
 200a068:	8080000b 	ldhu	r2,0(r16)
 200a06c:	10801014 	ori	r2,r2,64
 200a070:	8080000d 	sth	r2,0(r16)
 200a074:	00bfffc4 	movi	r2,-1
 200a078:	dfc00517 	ldw	ra,20(sp)
 200a07c:	dd000417 	ldw	r20,16(sp)
 200a080:	dcc00317 	ldw	r19,12(sp)
 200a084:	dc800217 	ldw	r18,8(sp)
 200a088:	dc400117 	ldw	r17,4(sp)
 200a08c:	dc000017 	ldw	r16,0(sp)
 200a090:	dec00604 	addi	sp,sp,24
 200a094:	f800283a 	ret

0200a098 <__sfvwrite_small_str>:
 200a098:	2880000b 	ldhu	r2,0(r5)
 200a09c:	defffd04 	addi	sp,sp,-12
 200a0a0:	dc000015 	stw	r16,0(sp)
 200a0a4:	dfc00215 	stw	ra,8(sp)
 200a0a8:	dc400115 	stw	r17,4(sp)
 200a0ac:	10c0020c 	andi	r3,r2,8
 200a0b0:	2821883a 	mov	r16,r5
 200a0b4:	18001926 	beq	r3,zero,200a11c <__sfvwrite_small_str+0x84>
 200a0b8:	28c0008f 	ldh	r3,2(r5)
 200a0bc:	1800150e 	bge	r3,zero,200a114 <__sfvwrite_small_str+0x7c>
 200a0c0:	10c0800c 	andi	r3,r2,512
 200a0c4:	18001326 	beq	r3,zero,200a114 <__sfvwrite_small_str+0x7c>
 200a0c8:	2c400517 	ldw	r17,20(r5)
 200a0cc:	89c0030e 	bge	r17,r7,200a0dc <__sfvwrite_small_str+0x44>
 200a0d0:	10c0200c 	andi	r3,r2,128
 200a0d4:	18000326 	beq	r3,zero,200a0e4 <__sfvwrite_small_str+0x4c>
 200a0d8:	00000e06 	br	200a114 <__sfvwrite_small_str+0x7c>
 200a0dc:	3c40010e 	bge	r7,r17,200a0e4 <__sfvwrite_small_str+0x4c>
 200a0e0:	3823883a 	mov	r17,r7
 200a0e4:	81000417 	ldw	r4,16(r16)
 200a0e8:	300b883a 	mov	r5,r6
 200a0ec:	880d883a 	mov	r6,r17
 200a0f0:	200a1340 	call	200a134 <memmove>
 200a0f4:	80800517 	ldw	r2,20(r16)
 200a0f8:	1445c83a 	sub	r2,r2,r17
 200a0fc:	80800515 	stw	r2,20(r16)
 200a100:	80800417 	ldw	r2,16(r16)
 200a104:	1463883a 	add	r17,r2,r17
 200a108:	84400415 	stw	r17,16(r16)
 200a10c:	0005883a 	mov	r2,zero
 200a110:	00000306 	br	200a120 <__sfvwrite_small_str+0x88>
 200a114:	10801014 	ori	r2,r2,64
 200a118:	8080000d 	sth	r2,0(r16)
 200a11c:	00bfffc4 	movi	r2,-1
 200a120:	dfc00217 	ldw	ra,8(sp)
 200a124:	dc400117 	ldw	r17,4(sp)
 200a128:	dc000017 	ldw	r16,0(sp)
 200a12c:	dec00304 	addi	sp,sp,12
 200a130:	f800283a 	ret

0200a134 <memmove>:
 200a134:	2005883a 	mov	r2,r4
 200a138:	29000d2e 	bgeu	r5,r4,200a170 <memmove+0x3c>
 200a13c:	298f883a 	add	r7,r5,r6
 200a140:	21c00b2e 	bgeu	r4,r7,200a170 <memmove+0x3c>
 200a144:	3007883a 	mov	r3,r6
 200a148:	017fffc4 	movi	r5,-1
 200a14c:	18ffffc4 	addi	r3,r3,-1
 200a150:	19400626 	beq	r3,r5,200a16c <memmove+0x38>
 200a154:	1989c83a 	sub	r4,r3,r6
 200a158:	3909883a 	add	r4,r7,r4
 200a15c:	22000003 	ldbu	r8,0(r4)
 200a160:	10c9883a 	add	r4,r2,r3
 200a164:	22000005 	stb	r8,0(r4)
 200a168:	003ff806 	br	200a14c <__alt_mem_pic_mem+0xfe00614c>
 200a16c:	f800283a 	ret
 200a170:	0007883a 	mov	r3,zero
 200a174:	19800626 	beq	r3,r6,200a190 <memmove+0x5c>
 200a178:	28c9883a 	add	r4,r5,r3
 200a17c:	21c00003 	ldbu	r7,0(r4)
 200a180:	10c9883a 	add	r4,r2,r3
 200a184:	18c00044 	addi	r3,r3,1
 200a188:	21c00005 	stb	r7,0(r4)
 200a18c:	003ff906 	br	200a174 <__alt_mem_pic_mem+0xfe006174>
 200a190:	f800283a 	ret

0200a194 <_write_r>:
 200a194:	defffd04 	addi	sp,sp,-12
 200a198:	dc000015 	stw	r16,0(sp)
 200a19c:	040080f4 	movhi	r16,515
 200a1a0:	dc400115 	stw	r17,4(sp)
 200a1a4:	8428df04 	addi	r16,r16,-23684
 200a1a8:	2023883a 	mov	r17,r4
 200a1ac:	2809883a 	mov	r4,r5
 200a1b0:	300b883a 	mov	r5,r6
 200a1b4:	380d883a 	mov	r6,r7
 200a1b8:	dfc00215 	stw	ra,8(sp)
 200a1bc:	80000015 	stw	zero,0(r16)
 200a1c0:	200aa540 	call	200aa54 <write>
 200a1c4:	00ffffc4 	movi	r3,-1
 200a1c8:	10c0031e 	bne	r2,r3,200a1d8 <_write_r+0x44>
 200a1cc:	80c00017 	ldw	r3,0(r16)
 200a1d0:	18000126 	beq	r3,zero,200a1d8 <_write_r+0x44>
 200a1d4:	88c00015 	stw	r3,0(r17)
 200a1d8:	dfc00217 	ldw	ra,8(sp)
 200a1dc:	dc400117 	ldw	r17,4(sp)
 200a1e0:	dc000017 	ldw	r16,0(sp)
 200a1e4:	dec00304 	addi	sp,sp,12
 200a1e8:	f800283a 	ret

0200a1ec <alt_alarm_start>:
 */ 

int alt_alarm_start (alt_alarm* alarm, alt_u32 nticks,
                     alt_u32 (*callback) (void* context),
                     void* context)
{
 200a1ec:	defff504 	addi	sp,sp,-44
 200a1f0:	df000a15 	stw	fp,40(sp)
 200a1f4:	df000a04 	addi	fp,sp,40
 200a1f8:	e13ffc15 	stw	r4,-16(fp)
 200a1fc:	e17ffd15 	stw	r5,-12(fp)
 200a200:	e1bffe15 	stw	r6,-8(fp)
 200a204:	e1ffff15 	stw	r7,-4(fp)
  alt_irq_context irq_context;
  alt_u32 current_nticks = 0;
 200a208:	e03ff615 	stw	zero,-40(fp)
 * Obtain the system clock rate in ticks/s. 
 */

static ALT_INLINE alt_u32 ALT_ALWAYS_INLINE alt_ticks_per_second (void)
{
  return _alt_tick_rate;
 200a20c:	008080f4 	movhi	r2,515
 200a210:	10a8e404 	addi	r2,r2,-23664
 200a214:	10800017 	ldw	r2,0(r2)
  
  if (alt_ticks_per_second ())
 200a218:	10003f26 	beq	r2,zero,200a318 <alt_alarm_start+0x12c>
  {
    if (alarm)
 200a21c:	e0bffc17 	ldw	r2,-16(fp)
 200a220:	10003b26 	beq	r2,zero,200a310 <alt_alarm_start+0x124>
    {
      alarm->callback = callback;
 200a224:	e0bffc17 	ldw	r2,-16(fp)
 200a228:	e0fffe17 	ldw	r3,-8(fp)
 200a22c:	10c00315 	stw	r3,12(r2)
      alarm->context  = context;
 200a230:	e0bffc17 	ldw	r2,-16(fp)
 200a234:	e0ffff17 	ldw	r3,-4(fp)
 200a238:	10c00515 	stw	r3,20(r2)
static ALT_INLINE alt_irq_context ALT_ALWAYS_INLINE 
       alt_irq_disable_all (void)
{
  alt_irq_context context;

  NIOS2_READ_STATUS (context);
 200a23c:	0005303a 	rdctl	r2,status
 200a240:	e0bff815 	stw	r2,-32(fp)

  NIOS2_WRITE_STATUS (context & ~NIOS2_STATUS_PIE_MSK);
 200a244:	e0fff817 	ldw	r3,-32(fp)
 200a248:	00bfff84 	movi	r2,-2
 200a24c:	1884703a 	and	r2,r3,r2
 200a250:	1001703a 	wrctl	status,r2
  
  return context;
 200a254:	e0bff817 	ldw	r2,-32(fp)
 
      irq_context = alt_irq_disable_all ();
 200a258:	e0bff715 	stw	r2,-36(fp)
 * alt_nticks() returns the elapsed number of system clock ticks since reset.
 */

static ALT_INLINE alt_u32 ALT_ALWAYS_INLINE alt_nticks (void)
{
  return _alt_nticks;
 200a25c:	008080f4 	movhi	r2,515
 200a260:	10a8e504 	addi	r2,r2,-23660
 200a264:	10800017 	ldw	r2,0(r2)
      
      current_nticks = alt_nticks();
 200a268:	e0bff615 	stw	r2,-40(fp)
      
      alarm->time = nticks + current_nticks + 1; 
 200a26c:	e0fffd17 	ldw	r3,-12(fp)
 200a270:	e0bff617 	ldw	r2,-40(fp)
 200a274:	1885883a 	add	r2,r3,r2
 200a278:	10c00044 	addi	r3,r2,1
 200a27c:	e0bffc17 	ldw	r2,-16(fp)
 200a280:	10c00215 	stw	r3,8(r2)
      /* 
       * If the desired alarm time causes a roll-over, set the rollover
       * flag. This will prevent the subsequent tick event from causing
       * an alarm too early.
       */
      if(alarm->time < current_nticks)
 200a284:	e0bffc17 	ldw	r2,-16(fp)
 200a288:	10c00217 	ldw	r3,8(r2)
 200a28c:	e0bff617 	ldw	r2,-40(fp)
 200a290:	1880042e 	bgeu	r3,r2,200a2a4 <alt_alarm_start+0xb8>
      {
        alarm->rollover = 1;
 200a294:	e0bffc17 	ldw	r2,-16(fp)
 200a298:	00c00044 	movi	r3,1
 200a29c:	10c00405 	stb	r3,16(r2)
 200a2a0:	00000206 	br	200a2ac <alt_alarm_start+0xc0>
      }
      else
      {
        alarm->rollover = 0;
 200a2a4:	e0bffc17 	ldw	r2,-16(fp)
 200a2a8:	10000405 	stb	zero,16(r2)
      }
    
      alt_llist_insert (&alt_alarm_list, &alarm->llist);
 200a2ac:	e0fffc17 	ldw	r3,-16(fp)
 200a2b0:	008080f4 	movhi	r2,515
 200a2b4:	10a02804 	addi	r2,r2,-32608
 200a2b8:	e0bff915 	stw	r2,-28(fp)
 200a2bc:	e0fffa15 	stw	r3,-24(fp)
 */

static ALT_INLINE void ALT_ALWAYS_INLINE alt_llist_insert(alt_llist* list, 
                alt_llist* entry)
{
  entry->previous = list;
 200a2c0:	e0bffa17 	ldw	r2,-24(fp)
 200a2c4:	e0fff917 	ldw	r3,-28(fp)
 200a2c8:	10c00115 	stw	r3,4(r2)
  entry->next     = list->next;
 200a2cc:	e0bff917 	ldw	r2,-28(fp)
 200a2d0:	10c00017 	ldw	r3,0(r2)
 200a2d4:	e0bffa17 	ldw	r2,-24(fp)
 200a2d8:	10c00015 	stw	r3,0(r2)

  list->next->previous = entry;
 200a2dc:	e0bff917 	ldw	r2,-28(fp)
 200a2e0:	10800017 	ldw	r2,0(r2)
 200a2e4:	e0fffa17 	ldw	r3,-24(fp)
 200a2e8:	10c00115 	stw	r3,4(r2)
  list->next           = entry;
 200a2ec:	e0bff917 	ldw	r2,-28(fp)
 200a2f0:	e0fffa17 	ldw	r3,-24(fp)
 200a2f4:	10c00015 	stw	r3,0(r2)
 200a2f8:	e0bff717 	ldw	r2,-36(fp)
 200a2fc:	e0bffb15 	stw	r2,-20(fp)
  status &= ~NIOS2_STATUS_PIE_MSK;
  status |= (context & NIOS2_STATUS_PIE_MSK);
  
  NIOS2_WRITE_STATUS (status);
#else
  NIOS2_WRITE_STATUS (context);
 200a300:	e0bffb17 	ldw	r2,-20(fp)
 200a304:	1001703a 	wrctl	status,r2
      alt_irq_enable_all (irq_context);

      return 0;
 200a308:	0005883a 	mov	r2,zero
 200a30c:	00000306 	br	200a31c <alt_alarm_start+0x130>
    }
    else
    {
      return -EINVAL;
 200a310:	00bffa84 	movi	r2,-22
 200a314:	00000106 	br	200a31c <alt_alarm_start+0x130>
    }
  }
  else
  {
    return -ENOTSUP;
 200a318:	00bfde84 	movi	r2,-134
  }
}
 200a31c:	e037883a 	mov	sp,fp
 200a320:	df000017 	ldw	fp,0(sp)
 200a324:	dec00104 	addi	sp,sp,4
 200a328:	f800283a 	ret

0200a32c <alt_ic_isr_register>:
  * @param irq              IRQ number
  * @return                 0 if successful, else error (-1)
  */
int alt_ic_isr_register(alt_u32 ic_id, alt_u32 irq, alt_isr_func isr, 
  void *isr_context, void *flags)
{
 200a32c:	defff904 	addi	sp,sp,-28
 200a330:	dfc00615 	stw	ra,24(sp)
 200a334:	df000515 	stw	fp,20(sp)
 200a338:	df000504 	addi	fp,sp,20
 200a33c:	e13ffc15 	stw	r4,-16(fp)
 200a340:	e17ffd15 	stw	r5,-12(fp)
 200a344:	e1bffe15 	stw	r6,-8(fp)
 200a348:	e1ffff15 	stw	r7,-4(fp)
    return alt_iic_isr_register(ic_id, irq, isr, isr_context, flags);
 200a34c:	e0800217 	ldw	r2,8(fp)
 200a350:	d8800015 	stw	r2,0(sp)
 200a354:	e13ffc17 	ldw	r4,-16(fp)
 200a358:	e17ffd17 	ldw	r5,-12(fp)
 200a35c:	e1bffe17 	ldw	r6,-8(fp)
 200a360:	e1ffff17 	ldw	r7,-4(fp)
 200a364:	200a50c0 	call	200a50c <alt_iic_isr_register>
}  
 200a368:	e037883a 	mov	sp,fp
 200a36c:	dfc00117 	ldw	ra,4(sp)
 200a370:	df000017 	ldw	fp,0(sp)
 200a374:	dec00204 	addi	sp,sp,8
 200a378:	f800283a 	ret

0200a37c <alt_ic_irq_enable>:
  * @param ic_id            Ignored.
  * @param irq              IRQ number
  * @return                 0 if successful, else error (-1)
  */
int alt_ic_irq_enable (alt_u32 ic_id, alt_u32 irq)
{
 200a37c:	defff904 	addi	sp,sp,-28
 200a380:	df000615 	stw	fp,24(sp)
 200a384:	df000604 	addi	fp,sp,24
 200a388:	e13ffe15 	stw	r4,-8(fp)
 200a38c:	e17fff15 	stw	r5,-4(fp)
 200a390:	e0bfff17 	ldw	r2,-4(fp)
 200a394:	e0bffa15 	stw	r2,-24(fp)
static ALT_INLINE alt_irq_context ALT_ALWAYS_INLINE 
       alt_irq_disable_all (void)
{
  alt_irq_context context;

  NIOS2_READ_STATUS (context);
 200a398:	0005303a 	rdctl	r2,status
 200a39c:	e0bffb15 	stw	r2,-20(fp)

  NIOS2_WRITE_STATUS (context & ~NIOS2_STATUS_PIE_MSK);
 200a3a0:	e0fffb17 	ldw	r3,-20(fp)
 200a3a4:	00bfff84 	movi	r2,-2
 200a3a8:	1884703a 	and	r2,r3,r2
 200a3ac:	1001703a 	wrctl	status,r2
  
  return context;
 200a3b0:	e0bffb17 	ldw	r2,-20(fp)
static ALT_INLINE int ALT_ALWAYS_INLINE alt_irq_enable (alt_u32 id)
{
  alt_irq_context  status;
  extern volatile alt_u32 alt_irq_active;

  status = alt_irq_disable_all ();
 200a3b4:	e0bffc15 	stw	r2,-16(fp)

  alt_irq_active |= (1 << id);
 200a3b8:	e0bffa17 	ldw	r2,-24(fp)
 200a3bc:	00c00044 	movi	r3,1
 200a3c0:	1884983a 	sll	r2,r3,r2
 200a3c4:	1007883a 	mov	r3,r2
 200a3c8:	008080f4 	movhi	r2,515
 200a3cc:	10a8e004 	addi	r2,r2,-23680
 200a3d0:	10800017 	ldw	r2,0(r2)
 200a3d4:	1886b03a 	or	r3,r3,r2
 200a3d8:	008080f4 	movhi	r2,515
 200a3dc:	10a8e004 	addi	r2,r2,-23680
 200a3e0:	10c00015 	stw	r3,0(r2)
  NIOS2_WRITE_IENABLE (alt_irq_active);
 200a3e4:	008080f4 	movhi	r2,515
 200a3e8:	10a8e004 	addi	r2,r2,-23680
 200a3ec:	10800017 	ldw	r2,0(r2)
 200a3f0:	100170fa 	wrctl	ienable,r2
 200a3f4:	e0bffc17 	ldw	r2,-16(fp)
 200a3f8:	e0bffd15 	stw	r2,-12(fp)
  status &= ~NIOS2_STATUS_PIE_MSK;
  status |= (context & NIOS2_STATUS_PIE_MSK);
  
  NIOS2_WRITE_STATUS (status);
#else
  NIOS2_WRITE_STATUS (context);
 200a3fc:	e0bffd17 	ldw	r2,-12(fp)
 200a400:	1001703a 	wrctl	status,r2

  alt_irq_enable_all(status);

  return 0;
 200a404:	0005883a 	mov	r2,zero
    return alt_irq_enable(irq);
 200a408:	0001883a 	nop
}
 200a40c:	e037883a 	mov	sp,fp
 200a410:	df000017 	ldw	fp,0(sp)
 200a414:	dec00104 	addi	sp,sp,4
 200a418:	f800283a 	ret

0200a41c <alt_ic_irq_disable>:
  * @param ic_id            Ignored.
  * @param irq              IRQ number
  * @return                 0 if successful, else error (-1)
  */
int alt_ic_irq_disable(alt_u32 ic_id, alt_u32 irq)
{
 200a41c:	defff904 	addi	sp,sp,-28
 200a420:	df000615 	stw	fp,24(sp)
 200a424:	df000604 	addi	fp,sp,24
 200a428:	e13ffe15 	stw	r4,-8(fp)
 200a42c:	e17fff15 	stw	r5,-4(fp)
 200a430:	e0bfff17 	ldw	r2,-4(fp)
 200a434:	e0bffa15 	stw	r2,-24(fp)
static ALT_INLINE alt_irq_context ALT_ALWAYS_INLINE 
       alt_irq_disable_all (void)
{
  alt_irq_context context;

  NIOS2_READ_STATUS (context);
 200a438:	0005303a 	rdctl	r2,status
 200a43c:	e0bffb15 	stw	r2,-20(fp)

  NIOS2_WRITE_STATUS (context & ~NIOS2_STATUS_PIE_MSK);
 200a440:	e0fffb17 	ldw	r3,-20(fp)
 200a444:	00bfff84 	movi	r2,-2
 200a448:	1884703a 	and	r2,r3,r2
 200a44c:	1001703a 	wrctl	status,r2
  
  return context;
 200a450:	e0bffb17 	ldw	r2,-20(fp)
static ALT_INLINE int ALT_ALWAYS_INLINE alt_irq_disable (alt_u32 id)
{
  alt_irq_context  status;
  extern volatile alt_u32 alt_irq_active;

  status = alt_irq_disable_all ();
 200a454:	e0bffc15 	stw	r2,-16(fp)

  alt_irq_active &= ~(1 << id);
 200a458:	e0bffa17 	ldw	r2,-24(fp)
 200a45c:	00c00044 	movi	r3,1
 200a460:	1884983a 	sll	r2,r3,r2
 200a464:	0084303a 	nor	r2,zero,r2
 200a468:	1007883a 	mov	r3,r2
 200a46c:	008080f4 	movhi	r2,515
 200a470:	10a8e004 	addi	r2,r2,-23680
 200a474:	10800017 	ldw	r2,0(r2)
 200a478:	1886703a 	and	r3,r3,r2
 200a47c:	008080f4 	movhi	r2,515
 200a480:	10a8e004 	addi	r2,r2,-23680
 200a484:	10c00015 	stw	r3,0(r2)
  NIOS2_WRITE_IENABLE (alt_irq_active);
 200a488:	008080f4 	movhi	r2,515
 200a48c:	10a8e004 	addi	r2,r2,-23680
 200a490:	10800017 	ldw	r2,0(r2)
 200a494:	100170fa 	wrctl	ienable,r2
 200a498:	e0bffc17 	ldw	r2,-16(fp)
 200a49c:	e0bffd15 	stw	r2,-12(fp)
  status &= ~NIOS2_STATUS_PIE_MSK;
  status |= (context & NIOS2_STATUS_PIE_MSK);
  
  NIOS2_WRITE_STATUS (status);
#else
  NIOS2_WRITE_STATUS (context);
 200a4a0:	e0bffd17 	ldw	r2,-12(fp)
 200a4a4:	1001703a 	wrctl	status,r2

  alt_irq_enable_all(status);

  return 0;
 200a4a8:	0005883a 	mov	r2,zero
    return alt_irq_disable(irq);
 200a4ac:	0001883a 	nop
}
 200a4b0:	e037883a 	mov	sp,fp
 200a4b4:	df000017 	ldw	fp,0(sp)
 200a4b8:	dec00104 	addi	sp,sp,4
 200a4bc:	f800283a 	ret

0200a4c0 <alt_ic_irq_enabled>:
  * @param irq              IRQ number
  * @return                 Zero if corresponding interrupt is disabled and
  *                         non-zero otherwise.
  */
alt_u32 alt_ic_irq_enabled(alt_u32 ic_id, alt_u32 irq)
{
 200a4c0:	defffc04 	addi	sp,sp,-16
 200a4c4:	df000315 	stw	fp,12(sp)
 200a4c8:	df000304 	addi	fp,sp,12
 200a4cc:	e13ffe15 	stw	r4,-8(fp)
 200a4d0:	e17fff15 	stw	r5,-4(fp)
    alt_u32 irq_enabled;

    NIOS2_READ_IENABLE(irq_enabled);
 200a4d4:	000530fa 	rdctl	r2,ienable
 200a4d8:	e0bffd15 	stw	r2,-12(fp)

    return (irq_enabled & (1 << irq)) ? 1: 0;
 200a4dc:	e0bfff17 	ldw	r2,-4(fp)
 200a4e0:	00c00044 	movi	r3,1
 200a4e4:	1884983a 	sll	r2,r3,r2
 200a4e8:	1007883a 	mov	r3,r2
 200a4ec:	e0bffd17 	ldw	r2,-12(fp)
 200a4f0:	1884703a 	and	r2,r3,r2
 200a4f4:	1004c03a 	cmpne	r2,r2,zero
 200a4f8:	10803fcc 	andi	r2,r2,255
}
 200a4fc:	e037883a 	mov	sp,fp
 200a500:	df000017 	ldw	fp,0(sp)
 200a504:	dec00104 	addi	sp,sp,4
 200a508:	f800283a 	ret

0200a50c <alt_iic_isr_register>:
  * @param flags            
  * @return                 0 if successful, else error (-1)
  */
int alt_iic_isr_register(alt_u32 ic_id, alt_u32 irq, alt_isr_func isr, 
  void *isr_context, void *flags)
{
 200a50c:	defff504 	addi	sp,sp,-44
 200a510:	dfc00a15 	stw	ra,40(sp)
 200a514:	df000915 	stw	fp,36(sp)
 200a518:	df000904 	addi	fp,sp,36
 200a51c:	e13ffc15 	stw	r4,-16(fp)
 200a520:	e17ffd15 	stw	r5,-12(fp)
 200a524:	e1bffe15 	stw	r6,-8(fp)
 200a528:	e1ffff15 	stw	r7,-4(fp)
  int rc = -EINVAL;  
 200a52c:	00bffa84 	movi	r2,-22
 200a530:	e0bff715 	stw	r2,-36(fp)
  int id = irq;             /* IRQ interpreted as the interrupt ID. */
 200a534:	e0bffd17 	ldw	r2,-12(fp)
 200a538:	e0bff815 	stw	r2,-32(fp)
  alt_irq_context status;

  if (id < ALT_NIRQ)
 200a53c:	e0bff817 	ldw	r2,-32(fp)
 200a540:	10800808 	cmpgei	r2,r2,32
 200a544:	1000271e 	bne	r2,zero,200a5e4 <alt_iic_isr_register+0xd8>
static ALT_INLINE alt_irq_context ALT_ALWAYS_INLINE 
       alt_irq_disable_all (void)
{
  alt_irq_context context;

  NIOS2_READ_STATUS (context);
 200a548:	0005303a 	rdctl	r2,status
 200a54c:	e0bffa15 	stw	r2,-24(fp)

  NIOS2_WRITE_STATUS (context & ~NIOS2_STATUS_PIE_MSK);
 200a550:	e0fffa17 	ldw	r3,-24(fp)
 200a554:	00bfff84 	movi	r2,-2
 200a558:	1884703a 	and	r2,r3,r2
 200a55c:	1001703a 	wrctl	status,r2
  
  return context;
 200a560:	e0bffa17 	ldw	r2,-24(fp)
     * interrupts are disabled while the handler tables are updated to ensure
     * that an interrupt doesn't occur while the tables are in an inconsistant
     * state.
     */

    status = alt_irq_disable_all();
 200a564:	e0bff915 	stw	r2,-28(fp)

    alt_irq[id].handler = isr;
 200a568:	008080f4 	movhi	r2,515
 200a56c:	10a8f004 	addi	r2,r2,-23616
 200a570:	e0fff817 	ldw	r3,-32(fp)
 200a574:	180690fa 	slli	r3,r3,3
 200a578:	10c5883a 	add	r2,r2,r3
 200a57c:	e0fffe17 	ldw	r3,-8(fp)
 200a580:	10c00015 	stw	r3,0(r2)
    alt_irq[id].context = isr_context;
 200a584:	008080f4 	movhi	r2,515
 200a588:	10a8f004 	addi	r2,r2,-23616
 200a58c:	e0fff817 	ldw	r3,-32(fp)
 200a590:	180690fa 	slli	r3,r3,3
 200a594:	10c5883a 	add	r2,r2,r3
 200a598:	10800104 	addi	r2,r2,4
 200a59c:	e0ffff17 	ldw	r3,-4(fp)
 200a5a0:	10c00015 	stw	r3,0(r2)

    rc = (isr) ? alt_ic_irq_enable(ic_id, id) : alt_ic_irq_disable(ic_id, id);
 200a5a4:	e0bffe17 	ldw	r2,-8(fp)
 200a5a8:	10000526 	beq	r2,zero,200a5c0 <alt_iic_isr_register+0xb4>
 200a5ac:	e0bff817 	ldw	r2,-32(fp)
 200a5b0:	e13ffc17 	ldw	r4,-16(fp)
 200a5b4:	100b883a 	mov	r5,r2
 200a5b8:	200a37c0 	call	200a37c <alt_ic_irq_enable>
 200a5bc:	00000406 	br	200a5d0 <alt_iic_isr_register+0xc4>
 200a5c0:	e0bff817 	ldw	r2,-32(fp)
 200a5c4:	e13ffc17 	ldw	r4,-16(fp)
 200a5c8:	100b883a 	mov	r5,r2
 200a5cc:	200a41c0 	call	200a41c <alt_ic_irq_disable>
 200a5d0:	e0bff715 	stw	r2,-36(fp)
 200a5d4:	e0bff917 	ldw	r2,-28(fp)
 200a5d8:	e0bffb15 	stw	r2,-20(fp)
  status &= ~NIOS2_STATUS_PIE_MSK;
  status |= (context & NIOS2_STATUS_PIE_MSK);
  
  NIOS2_WRITE_STATUS (status);
#else
  NIOS2_WRITE_STATUS (context);
 200a5dc:	e0bffb17 	ldw	r2,-20(fp)
 200a5e0:	1001703a 	wrctl	status,r2

    alt_irq_enable_all(status);
  }

  return rc; 
 200a5e4:	e0bff717 	ldw	r2,-36(fp)
}
 200a5e8:	e037883a 	mov	sp,fp
 200a5ec:	dfc00117 	ldw	ra,4(sp)
 200a5f0:	df000017 	ldw	fp,0(sp)
 200a5f4:	dec00204 	addi	sp,sp,8
 200a5f8:	f800283a 	ret

0200a5fc <alt_load_section>:
 */

static void ALT_INLINE alt_load_section (alt_u32* from, 
                                         alt_u32* to, 
                                         alt_u32* end)
{
 200a5fc:	defffc04 	addi	sp,sp,-16
 200a600:	df000315 	stw	fp,12(sp)
 200a604:	df000304 	addi	fp,sp,12
 200a608:	e13ffd15 	stw	r4,-12(fp)
 200a60c:	e17ffe15 	stw	r5,-8(fp)
 200a610:	e1bfff15 	stw	r6,-4(fp)
  if (to != from)
 200a614:	e0fffe17 	ldw	r3,-8(fp)
 200a618:	e0bffd17 	ldw	r2,-12(fp)
 200a61c:	18800c26 	beq	r3,r2,200a650 <alt_load_section+0x54>
  {
    while( to != end )
 200a620:	00000806 	br	200a644 <alt_load_section+0x48>
    {
      *to++ = *from++;
 200a624:	e0bffe17 	ldw	r2,-8(fp)
 200a628:	10c00104 	addi	r3,r2,4
 200a62c:	e0fffe15 	stw	r3,-8(fp)
 200a630:	e0fffd17 	ldw	r3,-12(fp)
 200a634:	19000104 	addi	r4,r3,4
 200a638:	e13ffd15 	stw	r4,-12(fp)
 200a63c:	18c00017 	ldw	r3,0(r3)
 200a640:	10c00015 	stw	r3,0(r2)
                                         alt_u32* to, 
                                         alt_u32* end)
{
  if (to != from)
  {
    while( to != end )
 200a644:	e0fffe17 	ldw	r3,-8(fp)
 200a648:	e0bfff17 	ldw	r2,-4(fp)
 200a64c:	18bff51e 	bne	r3,r2,200a624 <__alt_mem_pic_mem+0xfe006624>
    {
      *to++ = *from++;
    }
  }
}
 200a650:	e037883a 	mov	sp,fp
 200a654:	df000017 	ldw	fp,0(sp)
 200a658:	dec00104 	addi	sp,sp,4
 200a65c:	f800283a 	ret

0200a660 <alt_load>:
 * there is no bootloader, so this application is responsible for loading to
 * RAM any sections that are required.
 */  

void alt_load (void)
{
 200a660:	defffe04 	addi	sp,sp,-8
 200a664:	dfc00115 	stw	ra,4(sp)
 200a668:	df000015 	stw	fp,0(sp)
 200a66c:	d839883a 	mov	fp,sp
  /* 
   * Copy the .rwdata section. 
   */

  alt_load_section (&__flash_rwdata_start, 
 200a670:	010080f4 	movhi	r4,515
 200a674:	21203004 	addi	r4,r4,-32576
 200a678:	014080b4 	movhi	r5,514
 200a67c:	29578504 	addi	r5,r5,24084
 200a680:	018080f4 	movhi	r6,515
 200a684:	31a03004 	addi	r6,r6,-32576
 200a688:	200a5fc0 	call	200a5fc <alt_load_section>

  /*
   * Copy the exception handler.
   */

  alt_load_section (&__flash_exceptions_start, 
 200a68c:	01008034 	movhi	r4,512
 200a690:	21000804 	addi	r4,r4,32
 200a694:	01408034 	movhi	r5,512
 200a698:	29400804 	addi	r5,r5,32
 200a69c:	01808034 	movhi	r6,512
 200a6a0:	31806f04 	addi	r6,r6,444
 200a6a4:	200a5fc0 	call	200a5fc <alt_load_section>

  /*
   * Copy the .rodata section.
   */

  alt_load_section (&__flash_rodata_start, 
 200a6a8:	01008074 	movhi	r4,513
 200a6ac:	212f9e04 	addi	r4,r4,-16776
 200a6b0:	01408074 	movhi	r5,513
 200a6b4:	296f9e04 	addi	r5,r5,-16776
 200a6b8:	018080b4 	movhi	r6,514
 200a6bc:	31978504 	addi	r6,r6,24084
 200a6c0:	200a5fc0 	call	200a5fc <alt_load_section>
  
  /*
   * Now ensure that the caches are in synch.
   */
  
  alt_dcache_flush_all();
 200a6c4:	200b3b40 	call	200b3b4 <alt_dcache_flush_all>
  alt_icache_flush_all();
 200a6c8:	200b5180 	call	200b518 <alt_icache_flush_all>
}
 200a6cc:	e037883a 	mov	sp,fp
 200a6d0:	dfc00117 	ldw	ra,4(sp)
 200a6d4:	df000017 	ldw	fp,0(sp)
 200a6d8:	dec00204 	addi	sp,sp,8
 200a6dc:	f800283a 	ret

0200a6e0 <alt_main>:
 * devices/filesystems/components in the system; and call the entry point for
 * the users application, i.e. main().
 */

void alt_main (void)
{
 200a6e0:	defffd04 	addi	sp,sp,-12
 200a6e4:	dfc00215 	stw	ra,8(sp)
 200a6e8:	df000115 	stw	fp,4(sp)
 200a6ec:	df000104 	addi	fp,sp,4
#endif

  /* ALT LOG - please see HAL/sys/alt_log_printf.h for details */
  ALT_LOG_PRINT_BOOT("[alt_main.c] Entering alt_main, calling alt_irq_init.\r\n");
  /* Initialize the interrupt controller. */
  alt_irq_init (NULL);
 200a6f0:	0009883a 	mov	r4,zero
 200a6f4:	200ab840 	call	200ab84 <alt_irq_init>

  /* Initialize the operating system */
  ALT_LOG_PRINT_BOOT("[alt_main.c] Done alt_irq_init, calling alt_os_init.\r\n");
  ALT_OS_INIT();
 200a6f8:	0001883a 	nop
  ALT_LOG_PRINT_BOOT("[alt_main.c] Done OS Init, calling alt_sem_create.\r\n");
  ALT_SEM_CREATE (&alt_fd_list_lock, 1);

  /* Initialize the device drivers/software components. */
  ALT_LOG_PRINT_BOOT("[alt_main.c] Calling alt_sys_init.\r\n");
  alt_sys_init();
 200a6fc:	200abb80 	call	200abb8 <alt_sys_init>
   * devices be present (not equal to /dev/null) and if direct drivers
   * aren't being used.
   */

    ALT_LOG_PRINT_BOOT("[alt_main.c] Redirecting IO.\r\n");
    alt_io_redirect(ALT_STDOUT, ALT_STDIN, ALT_STDERR);
 200a700:	010080b4 	movhi	r4,514
 200a704:	21177a04 	addi	r4,r4,24040
 200a708:	014080b4 	movhi	r5,514
 200a70c:	29577a04 	addi	r5,r5,24040
 200a710:	018080b4 	movhi	r6,514
 200a714:	31977a04 	addi	r6,r6,24040
 200a718:	200b6080 	call	200b608 <alt_io_redirect>
  ALT_LOG_PRINT_BOOT("[alt_main.c] Calling main.\r\n");

#ifdef ALT_NO_EXIT
  main (alt_argc, alt_argv, alt_envp);
#else
  result = main (alt_argc, alt_argv, alt_envp);
 200a71c:	d128c217 	ldw	r4,-23800(gp)
 200a720:	d0e8c317 	ldw	r3,-23796(gp)
 200a724:	d0a8c417 	ldw	r2,-23792(gp)
 200a728:	180b883a 	mov	r5,r3
 200a72c:	100d883a 	mov	r6,r2
 200a730:	20052300 	call	2005230 <main>
 200a734:	e0bfff15 	stw	r2,-4(fp)
  close(STDOUT_FILENO);
 200a738:	01000044 	movi	r4,1
 200a73c:	200b2e40 	call	200b2e4 <close>
  exit (result);
 200a740:	e13fff17 	ldw	r4,-4(fp)
 200a744:	200bc580 	call	200bc58 <exit>

0200a748 <__malloc_lock>:
 * configuration is single threaded, so there is nothing to do here. Note that 
 * this requires that malloc is never called by an interrupt service routine.
 */

void __malloc_lock ( struct _reent *_r )
{
 200a748:	defffe04 	addi	sp,sp,-8
 200a74c:	df000115 	stw	fp,4(sp)
 200a750:	df000104 	addi	fp,sp,4
 200a754:	e13fff15 	stw	r4,-4(fp)
}
 200a758:	e037883a 	mov	sp,fp
 200a75c:	df000017 	ldw	fp,0(sp)
 200a760:	dec00104 	addi	sp,sp,4
 200a764:	f800283a 	ret

0200a768 <__malloc_unlock>:
/*
 *
 */

void __malloc_unlock ( struct _reent *_r )
{
 200a768:	defffe04 	addi	sp,sp,-8
 200a76c:	df000115 	stw	fp,4(sp)
 200a770:	df000104 	addi	fp,sp,4
 200a774:	e13fff15 	stw	r4,-4(fp)
}
 200a778:	e037883a 	mov	sp,fp
 200a77c:	df000017 	ldw	fp,0(sp)
 200a780:	dec00104 	addi	sp,sp,4
 200a784:	f800283a 	ret

0200a788 <sbrk>:
#endif
 
caddr_t ALT_SBRK (int incr) __attribute__ ((no_instrument_function ));

caddr_t ALT_SBRK (int incr)
{ 
 200a788:	defff904 	addi	sp,sp,-28
 200a78c:	df000615 	stw	fp,24(sp)
 200a790:	df000604 	addi	fp,sp,24
 200a794:	e13fff15 	stw	r4,-4(fp)
static ALT_INLINE alt_irq_context ALT_ALWAYS_INLINE 
       alt_irq_disable_all (void)
{
  alt_irq_context context;

  NIOS2_READ_STATUS (context);
 200a798:	0005303a 	rdctl	r2,status
 200a79c:	e0bffc15 	stw	r2,-16(fp)

  NIOS2_WRITE_STATUS (context & ~NIOS2_STATUS_PIE_MSK);
 200a7a0:	e0fffc17 	ldw	r3,-16(fp)
 200a7a4:	00bfff84 	movi	r2,-2
 200a7a8:	1884703a 	and	r2,r3,r2
 200a7ac:	1001703a 	wrctl	status,r2
  
  return context;
 200a7b0:	e0bffc17 	ldw	r2,-16(fp)
  alt_irq_context context;
  char *prev_heap_end; 

  context = alt_irq_disable_all();
 200a7b4:	e0bffa15 	stw	r2,-24(fp)

  /* Always return data aligned on a word boundary */
  heap_end = (char *)(((unsigned int)heap_end + 3) & ~3);
 200a7b8:	d0a00817 	ldw	r2,-32736(gp)
 200a7bc:	10c000c4 	addi	r3,r2,3
 200a7c0:	00bfff04 	movi	r2,-4
 200a7c4:	1884703a 	and	r2,r3,r2
 200a7c8:	d0a00815 	stw	r2,-32736(gp)
  if (((heap_end + incr) - __alt_heap_start) > ALT_MAX_HEAP_BYTES) {
    alt_irq_enable_all(context);
    return (caddr_t)-1;
  }
#else
  if ((heap_end + incr) > __alt_heap_limit) {
 200a7cc:	d0e00817 	ldw	r3,-32736(gp)
 200a7d0:	e0bfff17 	ldw	r2,-4(fp)
 200a7d4:	1887883a 	add	r3,r3,r2
 200a7d8:	00810034 	movhi	r2,1024
 200a7dc:	10800004 	addi	r2,r2,0
 200a7e0:	10c0062e 	bgeu	r2,r3,200a7fc <sbrk+0x74>
 200a7e4:	e0bffa17 	ldw	r2,-24(fp)
 200a7e8:	e0bffd15 	stw	r2,-12(fp)
  status &= ~NIOS2_STATUS_PIE_MSK;
  status |= (context & NIOS2_STATUS_PIE_MSK);
  
  NIOS2_WRITE_STATUS (status);
#else
  NIOS2_WRITE_STATUS (context);
 200a7ec:	e0bffd17 	ldw	r2,-12(fp)
 200a7f0:	1001703a 	wrctl	status,r2
    alt_irq_enable_all(context);
    return (caddr_t)-1;
 200a7f4:	00bfffc4 	movi	r2,-1
 200a7f8:	00000b06 	br	200a828 <sbrk+0xa0>
  }
#endif

  prev_heap_end = heap_end; 
 200a7fc:	d0a00817 	ldw	r2,-32736(gp)
 200a800:	e0bffb15 	stw	r2,-20(fp)
  heap_end += incr; 
 200a804:	d0e00817 	ldw	r3,-32736(gp)
 200a808:	e0bfff17 	ldw	r2,-4(fp)
 200a80c:	1885883a 	add	r2,r3,r2
 200a810:	d0a00815 	stw	r2,-32736(gp)
 200a814:	e0bffa17 	ldw	r2,-24(fp)
 200a818:	e0bffe15 	stw	r2,-8(fp)
 200a81c:	e0bffe17 	ldw	r2,-8(fp)
 200a820:	1001703a 	wrctl	status,r2

#endif

  alt_irq_enable_all(context);

  return (caddr_t) prev_heap_end; 
 200a824:	e0bffb17 	ldw	r2,-20(fp)
} 
 200a828:	e037883a 	mov	sp,fp
 200a82c:	df000017 	ldw	fp,0(sp)
 200a830:	dec00104 	addi	sp,sp,4
 200a834:	f800283a 	ret

0200a838 <alt_alarm_stop>:
 * alarms. Alternatively an alarm can unregister itself by returning zero when 
 * the alarm executes.
 */

void alt_alarm_stop (alt_alarm* alarm)
{
 200a838:	defffa04 	addi	sp,sp,-24
 200a83c:	df000515 	stw	fp,20(sp)
 200a840:	df000504 	addi	fp,sp,20
 200a844:	e13fff15 	stw	r4,-4(fp)
static ALT_INLINE alt_irq_context ALT_ALWAYS_INLINE 
       alt_irq_disable_all (void)
{
  alt_irq_context context;

  NIOS2_READ_STATUS (context);
 200a848:	0005303a 	rdctl	r2,status
 200a84c:	e0bffc15 	stw	r2,-16(fp)

  NIOS2_WRITE_STATUS (context & ~NIOS2_STATUS_PIE_MSK);
 200a850:	e0fffc17 	ldw	r3,-16(fp)
 200a854:	00bfff84 	movi	r2,-2
 200a858:	1884703a 	and	r2,r3,r2
 200a85c:	1001703a 	wrctl	status,r2
  
  return context;
 200a860:	e0bffc17 	ldw	r2,-16(fp)
  alt_irq_context irq_context;

  irq_context = alt_irq_disable_all();
 200a864:	e0bffb15 	stw	r2,-20(fp)
  alt_llist_remove (&alarm->llist);
 200a868:	e0bfff17 	ldw	r2,-4(fp)
 200a86c:	e0bffd15 	stw	r2,-12(fp)
 * input argument is the element to remove.
 */
     
static ALT_INLINE void ALT_ALWAYS_INLINE alt_llist_remove(alt_llist* entry)
{
  entry->next->previous = entry->previous;
 200a870:	e0bffd17 	ldw	r2,-12(fp)
 200a874:	10800017 	ldw	r2,0(r2)
 200a878:	e0fffd17 	ldw	r3,-12(fp)
 200a87c:	18c00117 	ldw	r3,4(r3)
 200a880:	10c00115 	stw	r3,4(r2)
  entry->previous->next = entry->next;
 200a884:	e0bffd17 	ldw	r2,-12(fp)
 200a888:	10800117 	ldw	r2,4(r2)
 200a88c:	e0fffd17 	ldw	r3,-12(fp)
 200a890:	18c00017 	ldw	r3,0(r3)
 200a894:	10c00015 	stw	r3,0(r2)
  /* 
   * Set the entry to point to itself, so that any further calls to
   * alt_llist_remove() are harmless.
   */

  entry->previous = entry;
 200a898:	e0bffd17 	ldw	r2,-12(fp)
 200a89c:	e0fffd17 	ldw	r3,-12(fp)
 200a8a0:	10c00115 	stw	r3,4(r2)
  entry->next     = entry;
 200a8a4:	e0bffd17 	ldw	r2,-12(fp)
 200a8a8:	e0fffd17 	ldw	r3,-12(fp)
 200a8ac:	10c00015 	stw	r3,0(r2)
 200a8b0:	e0bffb17 	ldw	r2,-20(fp)
 200a8b4:	e0bffe15 	stw	r2,-8(fp)
  status &= ~NIOS2_STATUS_PIE_MSK;
  status |= (context & NIOS2_STATUS_PIE_MSK);
  
  NIOS2_WRITE_STATUS (status);
#else
  NIOS2_WRITE_STATUS (context);
 200a8b8:	e0bffe17 	ldw	r2,-8(fp)
 200a8bc:	1001703a 	wrctl	status,r2
  alt_irq_enable_all (irq_context);
}
 200a8c0:	e037883a 	mov	sp,fp
 200a8c4:	df000017 	ldw	fp,0(sp)
 200a8c8:	dec00104 	addi	sp,sp,4
 200a8cc:	f800283a 	ret

0200a8d0 <alt_tick>:
 * 
 * alt_tick() is expected to run at interrupt level.
 */

void alt_tick (void)
{
 200a8d0:	defffb04 	addi	sp,sp,-20
 200a8d4:	dfc00415 	stw	ra,16(sp)
 200a8d8:	df000315 	stw	fp,12(sp)
 200a8dc:	df000304 	addi	fp,sp,12
  alt_alarm* next;
  alt_alarm* alarm = (alt_alarm*) alt_alarm_list.next;
 200a8e0:	d0a00917 	ldw	r2,-32732(gp)
 200a8e4:	e0bffd15 	stw	r2,-12(fp)

  alt_u32    next_callback;

  /* update the tick counter */

  _alt_nticks++;
 200a8e8:	d0a8c617 	ldw	r2,-23784(gp)
 200a8ec:	10800044 	addi	r2,r2,1
 200a8f0:	d0a8c615 	stw	r2,-23784(gp)

  /* process the registered callbacks */

  while (alarm != (alt_alarm*) &alt_alarm_list)
 200a8f4:	00002e06 	br	200a9b0 <alt_tick+0xe0>
  {
    next = (alt_alarm*) alarm->llist.next;
 200a8f8:	e0bffd17 	ldw	r2,-12(fp)
 200a8fc:	10800017 	ldw	r2,0(r2)
 200a900:	e0bffe15 	stw	r2,-8(fp)
    /* 
     * Upon the tick-counter rolling over it is safe to clear the 
     * roll-over flag; once the flag is cleared this (or subsequnt)
     * tick events are enabled to generate an alarm event. 
     */
    if ((alarm->rollover) && (_alt_nticks == 0))
 200a904:	e0bffd17 	ldw	r2,-12(fp)
 200a908:	10800403 	ldbu	r2,16(r2)
 200a90c:	10803fcc 	andi	r2,r2,255
 200a910:	10000426 	beq	r2,zero,200a924 <alt_tick+0x54>
 200a914:	d0a8c617 	ldw	r2,-23784(gp)
 200a918:	1000021e 	bne	r2,zero,200a924 <alt_tick+0x54>
    {
      alarm->rollover = 0;
 200a91c:	e0bffd17 	ldw	r2,-12(fp)
 200a920:	10000405 	stb	zero,16(r2)
    }
    
    /* if the alarm period has expired, make the callback */    
    if ((alarm->time <= _alt_nticks) && (alarm->rollover == 0))
 200a924:	e0bffd17 	ldw	r2,-12(fp)
 200a928:	10800217 	ldw	r2,8(r2)
 200a92c:	d0e8c617 	ldw	r3,-23784(gp)
 200a930:	18801d36 	bltu	r3,r2,200a9a8 <alt_tick+0xd8>
 200a934:	e0bffd17 	ldw	r2,-12(fp)
 200a938:	10800403 	ldbu	r2,16(r2)
 200a93c:	10803fcc 	andi	r2,r2,255
 200a940:	1000191e 	bne	r2,zero,200a9a8 <alt_tick+0xd8>
    {
      next_callback = alarm->callback (alarm->context);
 200a944:	e0bffd17 	ldw	r2,-12(fp)
 200a948:	10800317 	ldw	r2,12(r2)
 200a94c:	e0fffd17 	ldw	r3,-12(fp)
 200a950:	18c00517 	ldw	r3,20(r3)
 200a954:	1809883a 	mov	r4,r3
 200a958:	103ee83a 	callr	r2
 200a95c:	e0bfff15 	stw	r2,-4(fp)

      /* deactivate the alarm if the return value is zero */

      if (next_callback == 0)
 200a960:	e0bfff17 	ldw	r2,-4(fp)
 200a964:	1000031e 	bne	r2,zero,200a974 <alt_tick+0xa4>
      {
        alt_alarm_stop (alarm);
 200a968:	e13ffd17 	ldw	r4,-12(fp)
 200a96c:	200a8380 	call	200a838 <alt_alarm_stop>
 200a970:	00000d06 	br	200a9a8 <alt_tick+0xd8>
      }
      else
      {
        alarm->time += next_callback;
 200a974:	e0bffd17 	ldw	r2,-12(fp)
 200a978:	10c00217 	ldw	r3,8(r2)
 200a97c:	e0bfff17 	ldw	r2,-4(fp)
 200a980:	1887883a 	add	r3,r3,r2
 200a984:	e0bffd17 	ldw	r2,-12(fp)
 200a988:	10c00215 	stw	r3,8(r2)
        /* 
         * If the desired alarm time causes a roll-over, set the rollover
         * flag. This will prevent the subsequent tick event from causing
         * an alarm too early.
         */
        if(alarm->time < _alt_nticks)
 200a98c:	e0bffd17 	ldw	r2,-12(fp)
 200a990:	10c00217 	ldw	r3,8(r2)
 200a994:	d0a8c617 	ldw	r2,-23784(gp)
 200a998:	1880032e 	bgeu	r3,r2,200a9a8 <alt_tick+0xd8>
        {
          alarm->rollover = 1;
 200a99c:	e0bffd17 	ldw	r2,-12(fp)
 200a9a0:	00c00044 	movi	r3,1
 200a9a4:	10c00405 	stb	r3,16(r2)
        }
      }
    }
    alarm = next;
 200a9a8:	e0bffe17 	ldw	r2,-8(fp)
 200a9ac:	e0bffd15 	stw	r2,-12(fp)

  _alt_nticks++;

  /* process the registered callbacks */

  while (alarm != (alt_alarm*) &alt_alarm_list)
 200a9b0:	e0fffd17 	ldw	r3,-12(fp)
 200a9b4:	d0a00904 	addi	r2,gp,-32732
 200a9b8:	18bfcf1e 	bne	r3,r2,200a8f8 <__alt_mem_pic_mem+0xfe0068f8>

  /* 
   * Update the operating system specific timer facilities.
   */

  ALT_OS_TIME_TICK();
 200a9bc:	0001883a 	nop
}
 200a9c0:	e037883a 	mov	sp,fp
 200a9c4:	dfc00117 	ldw	ra,4(sp)
 200a9c8:	df000017 	ldw	fp,0(sp)
 200a9cc:	dec00204 	addi	sp,sp,8
 200a9d0:	f800283a 	ret

0200a9d4 <usleep>:
#if defined (__GNUC__) && __GNUC__ >= 4
int ALT_USLEEP (useconds_t us)
#else
unsigned int ALT_USLEEP (unsigned int us)
#endif
{
 200a9d4:	defffd04 	addi	sp,sp,-12
 200a9d8:	dfc00215 	stw	ra,8(sp)
 200a9dc:	df000115 	stw	fp,4(sp)
 200a9e0:	df000104 	addi	fp,sp,4
 200a9e4:	e13fff15 	stw	r4,-4(fp)
  return alt_busy_sleep(us);
 200a9e8:	e13fff17 	ldw	r4,-4(fp)
 200a9ec:	200b13c0 	call	200b13c <alt_busy_sleep>
}
 200a9f0:	e037883a 	mov	sp,fp
 200a9f4:	dfc00117 	ldw	ra,4(sp)
 200a9f8:	df000017 	ldw	fp,0(sp)
 200a9fc:	dec00204 	addi	sp,sp,8
 200aa00:	f800283a 	ret

0200aa04 <alt_get_errno>:
#undef errno

extern int errno;

static ALT_INLINE int* alt_get_errno(void)
{
 200aa04:	defffe04 	addi	sp,sp,-8
 200aa08:	dfc00115 	stw	ra,4(sp)
 200aa0c:	df000015 	stw	fp,0(sp)
 200aa10:	d839883a 	mov	fp,sp
  return ((alt_errno) ? alt_errno() : &errno);
 200aa14:	008080f4 	movhi	r2,515
 200aa18:	10a02f04 	addi	r2,r2,-32580
 200aa1c:	10800017 	ldw	r2,0(r2)
 200aa20:	10000526 	beq	r2,zero,200aa38 <alt_get_errno+0x34>
 200aa24:	008080f4 	movhi	r2,515
 200aa28:	10a02f04 	addi	r2,r2,-32580
 200aa2c:	10800017 	ldw	r2,0(r2)
 200aa30:	103ee83a 	callr	r2
 200aa34:	00000206 	br	200aa40 <alt_get_errno+0x3c>
 200aa38:	008080f4 	movhi	r2,515
 200aa3c:	10a8df04 	addi	r2,r2,-23684
}
 200aa40:	e037883a 	mov	sp,fp
 200aa44:	dfc00117 	ldw	ra,4(sp)
 200aa48:	df000017 	ldw	fp,0(sp)
 200aa4c:	dec00204 	addi	sp,sp,8
 200aa50:	f800283a 	ret

0200aa54 <write>:
}

#else /* !ALT_USE_DIRECT_DRIVERS */

int ALT_WRITE (int file, const void *ptr, size_t len)
{
 200aa54:	defff904 	addi	sp,sp,-28
 200aa58:	dfc00615 	stw	ra,24(sp)
 200aa5c:	df000515 	stw	fp,20(sp)
 200aa60:	df000504 	addi	fp,sp,20
 200aa64:	e13ffd15 	stw	r4,-12(fp)
 200aa68:	e17ffe15 	stw	r5,-8(fp)
 200aa6c:	e1bfff15 	stw	r6,-4(fp)
   * A common error case is that when the file descriptor was created, the call
   * to open() failed resulting in a negative file descriptor. This is trapped
   * below so that we don't try and process an invalid file descriptor.
   */

  fd = (file < 0) ? NULL : &alt_fd_list[file];
 200aa70:	e0bffd17 	ldw	r2,-12(fp)
 200aa74:	10000616 	blt	r2,zero,200aa90 <write+0x3c>
 200aa78:	e0bffd17 	ldw	r2,-12(fp)
 200aa7c:	10c00324 	muli	r3,r2,12
 200aa80:	008080b4 	movhi	r2,514
 200aa84:	109fbf04 	addi	r2,r2,32508
 200aa88:	1885883a 	add	r2,r3,r2
 200aa8c:	00000106 	br	200aa94 <write+0x40>
 200aa90:	0005883a 	mov	r2,zero
 200aa94:	e0bffb15 	stw	r2,-20(fp)
  
  if (fd)
 200aa98:	e0bffb17 	ldw	r2,-20(fp)
 200aa9c:	10002126 	beq	r2,zero,200ab24 <write+0xd0>
     * If the file has not been opened with write access, or if the driver does
     * not provide an implementation of write(), generate an error. Otherwise
     * call the drivers write() function to process the request.
     */

    if (((fd->fd_flags & O_ACCMODE) != O_RDONLY) && fd->dev->write)
 200aaa0:	e0bffb17 	ldw	r2,-20(fp)
 200aaa4:	10800217 	ldw	r2,8(r2)
 200aaa8:	108000cc 	andi	r2,r2,3
 200aaac:	10001826 	beq	r2,zero,200ab10 <write+0xbc>
 200aab0:	e0bffb17 	ldw	r2,-20(fp)
 200aab4:	10800017 	ldw	r2,0(r2)
 200aab8:	10800617 	ldw	r2,24(r2)
 200aabc:	10001426 	beq	r2,zero,200ab10 <write+0xbc>
    {
      
      /* ALT_LOG - see altera_hal/HAL/inc/sys/alt_log_printf.h */
      ALT_LOG_WRITE_FUNCTION(ptr,len);

      if ((rval = fd->dev->write(fd, ptr, len)) < 0)
 200aac0:	e0bffb17 	ldw	r2,-20(fp)
 200aac4:	10800017 	ldw	r2,0(r2)
 200aac8:	10800617 	ldw	r2,24(r2)
 200aacc:	e0ffff17 	ldw	r3,-4(fp)
 200aad0:	e13ffb17 	ldw	r4,-20(fp)
 200aad4:	e17ffe17 	ldw	r5,-8(fp)
 200aad8:	180d883a 	mov	r6,r3
 200aadc:	103ee83a 	callr	r2
 200aae0:	e0bffc15 	stw	r2,-16(fp)
 200aae4:	e0bffc17 	ldw	r2,-16(fp)
 200aae8:	1000070e 	bge	r2,zero,200ab08 <write+0xb4>
      {
        ALT_ERRNO = -rval;
 200aaec:	200aa040 	call	200aa04 <alt_get_errno>
 200aaf0:	1007883a 	mov	r3,r2
 200aaf4:	e0bffc17 	ldw	r2,-16(fp)
 200aaf8:	0085c83a 	sub	r2,zero,r2
 200aafc:	18800015 	stw	r2,0(r3)
        return -1;
 200ab00:	00bfffc4 	movi	r2,-1
 200ab04:	00000c06 	br	200ab38 <write+0xe4>
      }
      return rval;
 200ab08:	e0bffc17 	ldw	r2,-16(fp)
 200ab0c:	00000a06 	br	200ab38 <write+0xe4>
    }
    else
    {
      ALT_ERRNO = EACCES;
 200ab10:	200aa040 	call	200aa04 <alt_get_errno>
 200ab14:	1007883a 	mov	r3,r2
 200ab18:	00800344 	movi	r2,13
 200ab1c:	18800015 	stw	r2,0(r3)
 200ab20:	00000406 	br	200ab34 <write+0xe0>
    }
  }
  else  
  {
    ALT_ERRNO = EBADFD;
 200ab24:	200aa040 	call	200aa04 <alt_get_errno>
 200ab28:	1007883a 	mov	r3,r2
 200ab2c:	00801444 	movi	r2,81
 200ab30:	18800015 	stw	r2,0(r3)
  }
  return -1;
 200ab34:	00bfffc4 	movi	r2,-1
}
 200ab38:	e037883a 	mov	sp,fp
 200ab3c:	dfc00117 	ldw	ra,4(sp)
 200ab40:	df000017 	ldw	fp,0(sp)
 200ab44:	dec00204 	addi	sp,sp,8
 200ab48:	f800283a 	ret

0200ab4c <alt_dev_reg>:
 */

extern int alt_fs_reg  (alt_dev* dev); 

static ALT_INLINE int alt_dev_reg (alt_dev* dev)
{
 200ab4c:	defffd04 	addi	sp,sp,-12
 200ab50:	dfc00215 	stw	ra,8(sp)
 200ab54:	df000115 	stw	fp,4(sp)
 200ab58:	df000104 	addi	fp,sp,4
 200ab5c:	e13fff15 	stw	r4,-4(fp)
  extern alt_llist alt_dev_list;

  return alt_dev_llist_insert ((alt_dev_llist*) dev, &alt_dev_list);
 200ab60:	e13fff17 	ldw	r4,-4(fp)
 200ab64:	014080f4 	movhi	r5,515
 200ab68:	29602c04 	addi	r5,r5,-32592
 200ab6c:	200b4740 	call	200b474 <alt_dev_llist_insert>
}
 200ab70:	e037883a 	mov	sp,fp
 200ab74:	dfc00117 	ldw	ra,4(sp)
 200ab78:	df000017 	ldw	fp,0(sp)
 200ab7c:	dec00204 	addi	sp,sp,8
 200ab80:	f800283a 	ret

0200ab84 <alt_irq_init>:
 * The "base" parameter is ignored and only
 * present for backwards-compatibility.
 */

void alt_irq_init ( const void* base )
{
 200ab84:	defffd04 	addi	sp,sp,-12
 200ab88:	dfc00215 	stw	ra,8(sp)
 200ab8c:	df000115 	stw	fp,4(sp)
 200ab90:	df000104 	addi	fp,sp,4
 200ab94:	e13fff15 	stw	r4,-4(fp)
    ALTERA_NIOS2_QSYS_IRQ_INIT ( CPU, CPU);
 200ab98:	200b9540 	call	200b954 <altera_nios2_qsys_irq_init>
 * alt_irq_cpu_enable_interrupts() enables the CPU to start taking interrupts.
 */
static ALT_INLINE void ALT_ALWAYS_INLINE 
       alt_irq_cpu_enable_interrupts (void)
{
    NIOS2_WRITE_STATUS(NIOS2_STATUS_PIE_MSK
 200ab9c:	00800044 	movi	r2,1
 200aba0:	1001703a 	wrctl	status,r2
    alt_irq_cpu_enable_interrupts();
}
 200aba4:	e037883a 	mov	sp,fp
 200aba8:	dfc00117 	ldw	ra,4(sp)
 200abac:	df000017 	ldw	fp,0(sp)
 200abb0:	dec00204 	addi	sp,sp,8
 200abb4:	f800283a 	ret

0200abb8 <alt_sys_init>:
 * Initialize the non-interrupt controller devices.
 * Called after alt_irq_init().
 */

void alt_sys_init( void )
{
 200abb8:	defffe04 	addi	sp,sp,-8
 200abbc:	dfc00115 	stw	ra,4(sp)
 200abc0:	df000015 	stw	fp,0(sp)
 200abc4:	d839883a 	mov	fp,sp
    ALTERA_AVALON_TIMER_INIT ( TIMER, TIMER);
 200abc8:	01010034 	movhi	r4,1024
 200abcc:	211e0804 	addi	r4,r4,30752
 200abd0:	000b883a 	mov	r5,zero
 200abd4:	01800084 	movi	r6,2
 200abd8:	01c07d04 	movi	r7,500
 200abdc:	200b0b40 	call	200b0b4 <alt_avalon_timer_sc_init>
    ALTERA_AVALON_JTAG_UART_INIT ( JTAG_UART, JTAG_UART);
 200abe0:	010080b4 	movhi	r4,514
 200abe4:	211faa04 	addi	r4,r4,32424
 200abe8:	200ab4c0 	call	200ab4c <alt_dev_reg>
    ALTERA_AVALON_SPI_INIT ( LT24_TOUCH_SPI, LT24_TOUCH_SPI);
 200abec:	0001883a 	nop
}
 200abf0:	e037883a 	mov	sp,fp
 200abf4:	dfc00117 	ldw	ra,4(sp)
 200abf8:	df000017 	ldw	fp,0(sp)
 200abfc:	dec00204 	addi	sp,sp,8
 200ac00:	f800283a 	ret

0200ac04 <altera_avalon_jtag_uart_read_fd>:
 *
 */

int 
altera_avalon_jtag_uart_read_fd(alt_fd* fd, char* buffer, int space)
{
 200ac04:	defffa04 	addi	sp,sp,-24
 200ac08:	dfc00515 	stw	ra,20(sp)
 200ac0c:	df000415 	stw	fp,16(sp)
 200ac10:	df000404 	addi	fp,sp,16
 200ac14:	e13ffd15 	stw	r4,-12(fp)
 200ac18:	e17ffe15 	stw	r5,-8(fp)
 200ac1c:	e1bfff15 	stw	r6,-4(fp)
    altera_avalon_jtag_uart_dev* dev = (altera_avalon_jtag_uart_dev*) fd->dev; 
 200ac20:	e0bffd17 	ldw	r2,-12(fp)
 200ac24:	10800017 	ldw	r2,0(r2)
 200ac28:	e0bffc15 	stw	r2,-16(fp)

    return altera_avalon_jtag_uart_read(&dev->state, buffer, space,
 200ac2c:	e0bffc17 	ldw	r2,-16(fp)
 200ac30:	10c00a04 	addi	r3,r2,40
 200ac34:	e0bffd17 	ldw	r2,-12(fp)
 200ac38:	10800217 	ldw	r2,8(r2)
 200ac3c:	1809883a 	mov	r4,r3
 200ac40:	e17ffe17 	ldw	r5,-8(fp)
 200ac44:	e1bfff17 	ldw	r6,-4(fp)
 200ac48:	100f883a 	mov	r7,r2
 200ac4c:	200acc40 	call	200acc4 <altera_avalon_jtag_uart_read>
      fd->fd_flags);
}
 200ac50:	e037883a 	mov	sp,fp
 200ac54:	dfc00117 	ldw	ra,4(sp)
 200ac58:	df000017 	ldw	fp,0(sp)
 200ac5c:	dec00204 	addi	sp,sp,8
 200ac60:	f800283a 	ret

0200ac64 <altera_avalon_jtag_uart_write_fd>:

int 
altera_avalon_jtag_uart_write_fd(alt_fd* fd, const char* buffer, int space)
{
 200ac64:	defffa04 	addi	sp,sp,-24
 200ac68:	dfc00515 	stw	ra,20(sp)
 200ac6c:	df000415 	stw	fp,16(sp)
 200ac70:	df000404 	addi	fp,sp,16
 200ac74:	e13ffd15 	stw	r4,-12(fp)
 200ac78:	e17ffe15 	stw	r5,-8(fp)
 200ac7c:	e1bfff15 	stw	r6,-4(fp)
    altera_avalon_jtag_uart_dev* dev = (altera_avalon_jtag_uart_dev*) fd->dev; 
 200ac80:	e0bffd17 	ldw	r2,-12(fp)
 200ac84:	10800017 	ldw	r2,0(r2)
 200ac88:	e0bffc15 	stw	r2,-16(fp)

    return altera_avalon_jtag_uart_write(&dev->state, buffer, space,
 200ac8c:	e0bffc17 	ldw	r2,-16(fp)
 200ac90:	10c00a04 	addi	r3,r2,40
 200ac94:	e0bffd17 	ldw	r2,-12(fp)
 200ac98:	10800217 	ldw	r2,8(r2)
 200ac9c:	1809883a 	mov	r4,r3
 200aca0:	e17ffe17 	ldw	r5,-8(fp)
 200aca4:	e1bfff17 	ldw	r6,-4(fp)
 200aca8:	100f883a 	mov	r7,r2
 200acac:	200ada80 	call	200ada8 <altera_avalon_jtag_uart_write>
      fd->fd_flags);
}
 200acb0:	e037883a 	mov	sp,fp
 200acb4:	dfc00117 	ldw	ra,4(sp)
 200acb8:	df000017 	ldw	fp,0(sp)
 200acbc:	dec00204 	addi	sp,sp,8
 200acc0:	f800283a 	ret

0200acc4 <altera_avalon_jtag_uart_read>:
 */

int 
altera_avalon_jtag_uart_read(altera_avalon_jtag_uart_state* sp, 
  char* buffer, int space, int flags)
{
 200acc4:	defff704 	addi	sp,sp,-36
 200acc8:	df000815 	stw	fp,32(sp)
 200accc:	df000804 	addi	fp,sp,32
 200acd0:	e13ffc15 	stw	r4,-16(fp)
 200acd4:	e17ffd15 	stw	r5,-12(fp)
 200acd8:	e1bffe15 	stw	r6,-8(fp)
 200acdc:	e1ffff15 	stw	r7,-4(fp)
  unsigned int base = sp->base;
 200ace0:	e0bffc17 	ldw	r2,-16(fp)
 200ace4:	10800017 	ldw	r2,0(r2)
 200ace8:	e0bff915 	stw	r2,-28(fp)

  char * ptr = buffer;
 200acec:	e0bffd17 	ldw	r2,-12(fp)
 200acf0:	e0bff815 	stw	r2,-32(fp)
  char * end = buffer + space;
 200acf4:	e0bffe17 	ldw	r2,-8(fp)
 200acf8:	e0fffd17 	ldw	r3,-12(fp)
 200acfc:	1885883a 	add	r2,r3,r2
 200ad00:	e0bffa15 	stw	r2,-24(fp)

  while (ptr < end)
 200ad04:	00001406 	br	200ad58 <altera_avalon_jtag_uart_read+0x94>
  {
    unsigned int data = IORD_ALTERA_AVALON_JTAG_UART_DATA(base);
 200ad08:	e0bff917 	ldw	r2,-28(fp)
 200ad0c:	10800037 	ldwio	r2,0(r2)
 200ad10:	e0bffb15 	stw	r2,-20(fp)

    if (data & ALTERA_AVALON_JTAG_UART_DATA_RVALID_MSK)
 200ad14:	e0bffb17 	ldw	r2,-20(fp)
 200ad18:	10a0000c 	andi	r2,r2,32768
 200ad1c:	10000626 	beq	r2,zero,200ad38 <altera_avalon_jtag_uart_read+0x74>
      *ptr++ = (data & ALTERA_AVALON_JTAG_UART_DATA_DATA_MSK) >> ALTERA_AVALON_JTAG_UART_DATA_DATA_OFST;
 200ad20:	e0bff817 	ldw	r2,-32(fp)
 200ad24:	10c00044 	addi	r3,r2,1
 200ad28:	e0fff815 	stw	r3,-32(fp)
 200ad2c:	e0fffb17 	ldw	r3,-20(fp)
 200ad30:	10c00005 	stb	r3,0(r2)
 200ad34:	00000806 	br	200ad58 <altera_avalon_jtag_uart_read+0x94>
    else if (ptr != buffer)
 200ad38:	e0fff817 	ldw	r3,-32(fp)
 200ad3c:	e0bffd17 	ldw	r2,-12(fp)
 200ad40:	18800126 	beq	r3,r2,200ad48 <altera_avalon_jtag_uart_read+0x84>
      break;
 200ad44:	00000706 	br	200ad64 <altera_avalon_jtag_uart_read+0xa0>
    else if(flags & O_NONBLOCK)
 200ad48:	e0bfff17 	ldw	r2,-4(fp)
 200ad4c:	1090000c 	andi	r2,r2,16384
 200ad50:	10000126 	beq	r2,zero,200ad58 <altera_avalon_jtag_uart_read+0x94>
      break;   
 200ad54:	00000306 	br	200ad64 <altera_avalon_jtag_uart_read+0xa0>
  unsigned int base = sp->base;

  char * ptr = buffer;
  char * end = buffer + space;

  while (ptr < end)
 200ad58:	e0fff817 	ldw	r3,-32(fp)
 200ad5c:	e0bffa17 	ldw	r2,-24(fp)
 200ad60:	18bfe936 	bltu	r3,r2,200ad08 <__alt_mem_pic_mem+0xfe006d08>
    else if(flags & O_NONBLOCK)
      break;   
    
  }

  if (ptr != buffer)
 200ad64:	e0fff817 	ldw	r3,-32(fp)
 200ad68:	e0bffd17 	ldw	r2,-12(fp)
 200ad6c:	18800426 	beq	r3,r2,200ad80 <altera_avalon_jtag_uart_read+0xbc>
    return ptr - buffer;
 200ad70:	e0fff817 	ldw	r3,-32(fp)
 200ad74:	e0bffd17 	ldw	r2,-12(fp)
 200ad78:	1885c83a 	sub	r2,r3,r2
 200ad7c:	00000606 	br	200ad98 <altera_avalon_jtag_uart_read+0xd4>
  else if (flags & O_NONBLOCK)
 200ad80:	e0bfff17 	ldw	r2,-4(fp)
 200ad84:	1090000c 	andi	r2,r2,16384
 200ad88:	10000226 	beq	r2,zero,200ad94 <altera_avalon_jtag_uart_read+0xd0>
    return -EWOULDBLOCK;
 200ad8c:	00bffd44 	movi	r2,-11
 200ad90:	00000106 	br	200ad98 <altera_avalon_jtag_uart_read+0xd4>
  else
    return -EIO;
 200ad94:	00bffec4 	movi	r2,-5
}
 200ad98:	e037883a 	mov	sp,fp
 200ad9c:	df000017 	ldw	fp,0(sp)
 200ada0:	dec00104 	addi	sp,sp,4
 200ada4:	f800283a 	ret

0200ada8 <altera_avalon_jtag_uart_write>:
 * one FIFOs worth of data.  But you said you didn't want to use interrupts :-)
 */

int altera_avalon_jtag_uart_write(altera_avalon_jtag_uart_state* sp, 
  const char * ptr, int count, int flags)
{
 200ada8:	defff904 	addi	sp,sp,-28
 200adac:	df000615 	stw	fp,24(sp)
 200adb0:	df000604 	addi	fp,sp,24
 200adb4:	e13ffc15 	stw	r4,-16(fp)
 200adb8:	e17ffd15 	stw	r5,-12(fp)
 200adbc:	e1bffe15 	stw	r6,-8(fp)
 200adc0:	e1ffff15 	stw	r7,-4(fp)
  unsigned int base = sp->base;
 200adc4:	e0bffc17 	ldw	r2,-16(fp)
 200adc8:	10800017 	ldw	r2,0(r2)
 200adcc:	e0bffa15 	stw	r2,-24(fp)

  const char * end = ptr + count;
 200add0:	e0bffe17 	ldw	r2,-8(fp)
 200add4:	e0fffd17 	ldw	r3,-12(fp)
 200add8:	1885883a 	add	r2,r3,r2
 200addc:	e0bffb15 	stw	r2,-20(fp)

  while (ptr < end)
 200ade0:	00000e06 	br	200ae1c <altera_avalon_jtag_uart_write+0x74>
    if ((IORD_ALTERA_AVALON_JTAG_UART_CONTROL(base) & ALTERA_AVALON_JTAG_UART_CONTROL_WSPACE_MSK) != 0)
 200ade4:	e0bffa17 	ldw	r2,-24(fp)
 200ade8:	10800104 	addi	r2,r2,4
 200adec:	10800037 	ldwio	r2,0(r2)
 200adf0:	10bfffec 	andhi	r2,r2,65535
 200adf4:	10000926 	beq	r2,zero,200ae1c <altera_avalon_jtag_uart_write+0x74>
      IOWR_ALTERA_AVALON_JTAG_UART_DATA(base, *ptr++);
 200adf8:	e0fffa17 	ldw	r3,-24(fp)
 200adfc:	e0bffd17 	ldw	r2,-12(fp)
 200ae00:	11000044 	addi	r4,r2,1
 200ae04:	e13ffd15 	stw	r4,-12(fp)
 200ae08:	10800003 	ldbu	r2,0(r2)
 200ae0c:	10803fcc 	andi	r2,r2,255
 200ae10:	1080201c 	xori	r2,r2,128
 200ae14:	10bfe004 	addi	r2,r2,-128
 200ae18:	18800035 	stwio	r2,0(r3)
{
  unsigned int base = sp->base;

  const char * end = ptr + count;

  while (ptr < end)
 200ae1c:	e0fffd17 	ldw	r3,-12(fp)
 200ae20:	e0bffb17 	ldw	r2,-20(fp)
 200ae24:	18bfef36 	bltu	r3,r2,200ade4 <__alt_mem_pic_mem+0xfe006de4>
    if ((IORD_ALTERA_AVALON_JTAG_UART_CONTROL(base) & ALTERA_AVALON_JTAG_UART_CONTROL_WSPACE_MSK) != 0)
      IOWR_ALTERA_AVALON_JTAG_UART_DATA(base, *ptr++);

  return count;
 200ae28:	e0bffe17 	ldw	r2,-8(fp)
}
 200ae2c:	e037883a 	mov	sp,fp
 200ae30:	df000017 	ldw	fp,0(sp)
 200ae34:	dec00104 	addi	sp,sp,4
 200ae38:	f800283a 	ret

0200ae3c <alt_avalon_spi_command>:

int alt_avalon_spi_command(alt_u32 base, alt_u32 slave,
                           alt_u32 write_length, const alt_u8 * write_data,
                           alt_u32 read_length, alt_u8 * read_data,
                           alt_u32 flags)
{
 200ae3c:	defff404 	addi	sp,sp,-48
 200ae40:	df000b15 	stw	fp,44(sp)
 200ae44:	df000b04 	addi	fp,sp,44
 200ae48:	e13ffc15 	stw	r4,-16(fp)
 200ae4c:	e17ffd15 	stw	r5,-12(fp)
 200ae50:	e1bffe15 	stw	r6,-8(fp)
 200ae54:	e1ffff15 	stw	r7,-4(fp)
  const alt_u8 * write_end = write_data + write_length;
 200ae58:	e0ffff17 	ldw	r3,-4(fp)
 200ae5c:	e0bffe17 	ldw	r2,-8(fp)
 200ae60:	1885883a 	add	r2,r3,r2
 200ae64:	e0bff815 	stw	r2,-32(fp)
  alt_u8 * read_end = read_data + read_length;
 200ae68:	e0c00217 	ldw	r3,8(fp)
 200ae6c:	e0800117 	ldw	r2,4(fp)
 200ae70:	1885883a 	add	r2,r3,r2
 200ae74:	e0bff915 	stw	r2,-28(fp)

  alt_u32 write_zeros = read_length;
 200ae78:	e0800117 	ldw	r2,4(fp)
 200ae7c:	e0bff515 	stw	r2,-44(fp)
  alt_u32 read_ignore = write_length;
 200ae80:	e0bffe17 	ldw	r2,-8(fp)
 200ae84:	e0bff615 	stw	r2,-40(fp)

  /* We must not send more than two bytes to the target before it has
   * returned any as otherwise it will overflow. */
  /* Unfortunately the hardware does not seem to work with credits > 1,
   * leave it at 1 for now. */
  alt_32 credits = 1;
 200ae88:	00800044 	movi	r2,1
 200ae8c:	e0bff715 	stw	r2,-36(fp)
  /* Warning: this function is not currently safe if called in a multi-threaded
   * environment, something above must perform locking to make it safe if more
   * than one thread intends to use it.
   */

  IOWR_ALTERA_AVALON_SPI_SLAVE_SEL(base, 1 << slave);
 200ae90:	e0bffc17 	ldw	r2,-16(fp)
 200ae94:	10800504 	addi	r2,r2,20
 200ae98:	1009883a 	mov	r4,r2
 200ae9c:	e0bffd17 	ldw	r2,-12(fp)
 200aea0:	00c00044 	movi	r3,1
 200aea4:	1884983a 	sll	r2,r3,r2
 200aea8:	20800035 	stwio	r2,0(r4)
  
  /* Set the SSO bit (force chipselect) only if the toggle flag is not set */
  if ((flags & ALT_AVALON_SPI_COMMAND_TOGGLE_SS_N) == 0) {
 200aeac:	e0800317 	ldw	r2,12(fp)
 200aeb0:	1080008c 	andi	r2,r2,2
 200aeb4:	1000051e 	bne	r2,zero,200aecc <alt_avalon_spi_command+0x90>
    IOWR_ALTERA_AVALON_SPI_CONTROL(base, ALTERA_AVALON_SPI_CONTROL_SSO_MSK);
 200aeb8:	e0bffc17 	ldw	r2,-16(fp)
 200aebc:	10800304 	addi	r2,r2,12
 200aec0:	1007883a 	mov	r3,r2
 200aec4:	00810004 	movi	r2,1024
 200aec8:	18800035 	stwio	r2,0(r3)
  /*
   * Discard any stale data present in the RXDATA register, in case
   * previous communication was interrupted and stale data was left
   * behind.
   */
  IORD_ALTERA_AVALON_SPI_RXDATA(base);
 200aecc:	e0bffc17 	ldw	r2,-16(fp)
 200aed0:	10800037 	ldwio	r2,0(r2)
  for ( ; ; )
  {
    
    do
    {
      status = IORD_ALTERA_AVALON_SPI_STATUS(base);
 200aed4:	e0bffc17 	ldw	r2,-16(fp)
 200aed8:	10800204 	addi	r2,r2,8
 200aedc:	10800037 	ldwio	r2,0(r2)
 200aee0:	e0bffa15 	stw	r2,-24(fp)
    }
    while (((status & ALTERA_AVALON_SPI_STATUS_TRDY_MSK) == 0 || credits == 0) &&
 200aee4:	e0bffa17 	ldw	r2,-24(fp)
 200aee8:	1080100c 	andi	r2,r2,64
            (status & ALTERA_AVALON_SPI_STATUS_RRDY_MSK) == 0);
 200aeec:	10000226 	beq	r2,zero,200aef8 <alt_avalon_spi_command+0xbc>
    
    do
    {
      status = IORD_ALTERA_AVALON_SPI_STATUS(base);
    }
    while (((status & ALTERA_AVALON_SPI_STATUS_TRDY_MSK) == 0 || credits == 0) &&
 200aef0:	e0bff717 	ldw	r2,-36(fp)
 200aef4:	1000031e 	bne	r2,zero,200af04 <alt_avalon_spi_command+0xc8>
            (status & ALTERA_AVALON_SPI_STATUS_RRDY_MSK) == 0);
 200aef8:	e0bffa17 	ldw	r2,-24(fp)
 200aefc:	1080200c 	andi	r2,r2,128
    
    do
    {
      status = IORD_ALTERA_AVALON_SPI_STATUS(base);
    }
    while (((status & ALTERA_AVALON_SPI_STATUS_TRDY_MSK) == 0 || credits == 0) &&
 200af00:	103ff426 	beq	r2,zero,200aed4 <__alt_mem_pic_mem+0xfe006ed4>
            (status & ALTERA_AVALON_SPI_STATUS_RRDY_MSK) == 0);

    if ((status & ALTERA_AVALON_SPI_STATUS_TRDY_MSK) != 0 && credits > 0)
 200af04:	e0bffa17 	ldw	r2,-24(fp)
 200af08:	1080100c 	andi	r2,r2,64
 200af0c:	10001e26 	beq	r2,zero,200af88 <alt_avalon_spi_command+0x14c>
 200af10:	e0bff717 	ldw	r2,-36(fp)
 200af14:	00801c0e 	bge	zero,r2,200af88 <alt_avalon_spi_command+0x14c>
    {
      credits--;
 200af18:	e0bff717 	ldw	r2,-36(fp)
 200af1c:	10bfffc4 	addi	r2,r2,-1
 200af20:	e0bff715 	stw	r2,-36(fp)

      if (write_data < write_end)
 200af24:	e0ffff17 	ldw	r3,-4(fp)
 200af28:	e0bff817 	ldw	r2,-32(fp)
 200af2c:	18800a2e 	bgeu	r3,r2,200af58 <alt_avalon_spi_command+0x11c>
        IOWR_ALTERA_AVALON_SPI_TXDATA(base, *write_data++);
 200af30:	e0bffc17 	ldw	r2,-16(fp)
 200af34:	10800104 	addi	r2,r2,4
 200af38:	1009883a 	mov	r4,r2
 200af3c:	e0bfff17 	ldw	r2,-4(fp)
 200af40:	10c00044 	addi	r3,r2,1
 200af44:	e0ffff15 	stw	r3,-4(fp)
 200af48:	10800003 	ldbu	r2,0(r2)
 200af4c:	10803fcc 	andi	r2,r2,255
 200af50:	20800035 	stwio	r2,0(r4)
 200af54:	00000c06 	br	200af88 <alt_avalon_spi_command+0x14c>
      else if (write_zeros > 0)
 200af58:	e0bff517 	ldw	r2,-44(fp)
 200af5c:	10000826 	beq	r2,zero,200af80 <alt_avalon_spi_command+0x144>
      {
        write_zeros--;
 200af60:	e0bff517 	ldw	r2,-44(fp)
 200af64:	10bfffc4 	addi	r2,r2,-1
 200af68:	e0bff515 	stw	r2,-44(fp)
        IOWR_ALTERA_AVALON_SPI_TXDATA(base, 0);
 200af6c:	e0bffc17 	ldw	r2,-16(fp)
 200af70:	10800104 	addi	r2,r2,4
 200af74:	0007883a 	mov	r3,zero
 200af78:	10c00035 	stwio	r3,0(r2)
 200af7c:	00000206 	br	200af88 <alt_avalon_spi_command+0x14c>
      }
      else
        credits = -1024;
 200af80:	00bf0004 	movi	r2,-1024
 200af84:	e0bff715 	stw	r2,-36(fp)
    };

    if ((status & ALTERA_AVALON_SPI_STATUS_RRDY_MSK) != 0)
 200af88:	e0bffa17 	ldw	r2,-24(fp)
 200af8c:	1080200c 	andi	r2,r2,128
 200af90:	10001726 	beq	r2,zero,200aff0 <alt_avalon_spi_command+0x1b4>
    {
      alt_u32 rxdata = IORD_ALTERA_AVALON_SPI_RXDATA(base);
 200af94:	e0bffc17 	ldw	r2,-16(fp)
 200af98:	10800037 	ldwio	r2,0(r2)
 200af9c:	e0bffb15 	stw	r2,-20(fp)

      if (read_ignore > 0)
 200afa0:	e0bff617 	ldw	r2,-40(fp)
 200afa4:	10000426 	beq	r2,zero,200afb8 <alt_avalon_spi_command+0x17c>
        read_ignore--;
 200afa8:	e0bff617 	ldw	r2,-40(fp)
 200afac:	10bfffc4 	addi	r2,r2,-1
 200afb0:	e0bff615 	stw	r2,-40(fp)
 200afb4:	00000506 	br	200afcc <alt_avalon_spi_command+0x190>
      else
        *read_data++ = (alt_u8)rxdata;
 200afb8:	e0800217 	ldw	r2,8(fp)
 200afbc:	10c00044 	addi	r3,r2,1
 200afc0:	e0c00215 	stw	r3,8(fp)
 200afc4:	e0fffb17 	ldw	r3,-20(fp)
 200afc8:	10c00005 	stb	r3,0(r2)
      credits++;
 200afcc:	e0bff717 	ldw	r2,-36(fp)
 200afd0:	10800044 	addi	r2,r2,1
 200afd4:	e0bff715 	stw	r2,-36(fp)

      if (read_ignore == 0 && read_data == read_end)
 200afd8:	e0bff617 	ldw	r2,-40(fp)
 200afdc:	1000041e 	bne	r2,zero,200aff0 <alt_avalon_spi_command+0x1b4>
 200afe0:	e0c00217 	ldw	r3,8(fp)
 200afe4:	e0bff917 	ldw	r2,-28(fp)
 200afe8:	1880011e 	bne	r3,r2,200aff0 <alt_avalon_spi_command+0x1b4>
        break;
 200afec:	00000106 	br	200aff4 <alt_avalon_spi_command+0x1b8>
    }
    
  }
 200aff0:	003fb806 	br	200aed4 <__alt_mem_pic_mem+0xfe006ed4>

  /* Wait until the interface has finished transmitting */
  do
  {
    status = IORD_ALTERA_AVALON_SPI_STATUS(base);
 200aff4:	e0bffc17 	ldw	r2,-16(fp)
 200aff8:	10800204 	addi	r2,r2,8
 200affc:	10800037 	ldwio	r2,0(r2)
 200b000:	e0bffa15 	stw	r2,-24(fp)
  }
  while ((status & ALTERA_AVALON_SPI_STATUS_TMT_MSK) == 0);
 200b004:	e0bffa17 	ldw	r2,-24(fp)
 200b008:	1080080c 	andi	r2,r2,32
 200b00c:	103ff926 	beq	r2,zero,200aff4 <__alt_mem_pic_mem+0xfe006ff4>

  /* Clear SSO (release chipselect) unless the caller is going to
   * keep using this chip
   */
  if ((flags & ALT_AVALON_SPI_COMMAND_MERGE) == 0)
 200b010:	e0800317 	ldw	r2,12(fp)
 200b014:	1080004c 	andi	r2,r2,1
 200b018:	1000041e 	bne	r2,zero,200b02c <alt_avalon_spi_command+0x1f0>
    IOWR_ALTERA_AVALON_SPI_CONTROL(base, 0);
 200b01c:	e0bffc17 	ldw	r2,-16(fp)
 200b020:	10800304 	addi	r2,r2,12
 200b024:	0007883a 	mov	r3,zero
 200b028:	10c00035 	stwio	r3,0(r2)

  return read_length;
 200b02c:	e0800117 	ldw	r2,4(fp)
}
 200b030:	e037883a 	mov	sp,fp
 200b034:	df000017 	ldw	fp,0(sp)
 200b038:	dec00104 	addi	sp,sp,4
 200b03c:	f800283a 	ret

0200b040 <alt_avalon_timer_sc_irq>:
#ifdef ALT_ENHANCED_INTERRUPT_API_PRESENT
static void alt_avalon_timer_sc_irq (void* base)
#else
static void alt_avalon_timer_sc_irq (void* base, alt_u32 id)
#endif
{
 200b040:	defffa04 	addi	sp,sp,-24
 200b044:	dfc00515 	stw	ra,20(sp)
 200b048:	df000415 	stw	fp,16(sp)
 200b04c:	df000404 	addi	fp,sp,16
 200b050:	e13fff15 	stw	r4,-4(fp)
  alt_irq_context cpu_sr;
  
  /* clear the interrupt */
  IOWR_ALTERA_AVALON_TIMER_STATUS (base, 0);
 200b054:	0007883a 	mov	r3,zero
 200b058:	e0bfff17 	ldw	r2,-4(fp)
 200b05c:	10c00035 	stwio	r3,0(r2)
  /* 
   * Dummy read to ensure IRQ is negated before the ISR returns.
   * The control register is read because reading the status
   * register has side-effects per the register map documentation.
   */
  IORD_ALTERA_AVALON_TIMER_CONTROL (base);
 200b060:	e0bfff17 	ldw	r2,-4(fp)
 200b064:	10800104 	addi	r2,r2,4
 200b068:	10800037 	ldwio	r2,0(r2)
static ALT_INLINE alt_irq_context ALT_ALWAYS_INLINE 
       alt_irq_disable_all (void)
{
  alt_irq_context context;

  NIOS2_READ_STATUS (context);
 200b06c:	0005303a 	rdctl	r2,status
 200b070:	e0bffd15 	stw	r2,-12(fp)

  NIOS2_WRITE_STATUS (context & ~NIOS2_STATUS_PIE_MSK);
 200b074:	e0fffd17 	ldw	r3,-12(fp)
 200b078:	00bfff84 	movi	r2,-2
 200b07c:	1884703a 	and	r2,r3,r2
 200b080:	1001703a 	wrctl	status,r2
  
  return context;
 200b084:	e0bffd17 	ldw	r2,-12(fp)

  /* 
   * Notify the system of a clock tick. disable interrupts 
   * during this time to safely support ISR preemption
   */
  cpu_sr = alt_irq_disable_all();
 200b088:	e0bffc15 	stw	r2,-16(fp)
  alt_tick ();
 200b08c:	200a8d00 	call	200a8d0 <alt_tick>
 200b090:	e0bffc17 	ldw	r2,-16(fp)
 200b094:	e0bffe15 	stw	r2,-8(fp)
  status &= ~NIOS2_STATUS_PIE_MSK;
  status |= (context & NIOS2_STATUS_PIE_MSK);
  
  NIOS2_WRITE_STATUS (status);
#else
  NIOS2_WRITE_STATUS (context);
 200b098:	e0bffe17 	ldw	r2,-8(fp)
 200b09c:	1001703a 	wrctl	status,r2
  alt_irq_enable_all(cpu_sr);
}
 200b0a0:	e037883a 	mov	sp,fp
 200b0a4:	dfc00117 	ldw	ra,4(sp)
 200b0a8:	df000017 	ldw	fp,0(sp)
 200b0ac:	dec00204 	addi	sp,sp,8
 200b0b0:	f800283a 	ret

0200b0b4 <alt_avalon_timer_sc_init>:
 * auto-generated alt_sys_init() function.
 */

void alt_avalon_timer_sc_init (void* base, alt_u32 irq_controller_id, 
                                alt_u32 irq, alt_u32 freq)
{
 200b0b4:	defff804 	addi	sp,sp,-32
 200b0b8:	dfc00715 	stw	ra,28(sp)
 200b0bc:	df000615 	stw	fp,24(sp)
 200b0c0:	df000604 	addi	fp,sp,24
 200b0c4:	e13ffc15 	stw	r4,-16(fp)
 200b0c8:	e17ffd15 	stw	r5,-12(fp)
 200b0cc:	e1bffe15 	stw	r6,-8(fp)
 200b0d0:	e1ffff15 	stw	r7,-4(fp)
 200b0d4:	e0bfff17 	ldw	r2,-4(fp)
 200b0d8:	e0bffb15 	stw	r2,-20(fp)
 * in order to initialise the value of the clock frequency.
 */

static ALT_INLINE int ALT_ALWAYS_INLINE alt_sysclk_init (alt_u32 nticks)
{
  if (! _alt_tick_rate)
 200b0dc:	008080f4 	movhi	r2,515
 200b0e0:	10a8e404 	addi	r2,r2,-23664
 200b0e4:	10800017 	ldw	r2,0(r2)
 200b0e8:	1000041e 	bne	r2,zero,200b0fc <alt_avalon_timer_sc_init+0x48>
  {
    _alt_tick_rate = nticks;
 200b0ec:	008080f4 	movhi	r2,515
 200b0f0:	10a8e404 	addi	r2,r2,-23664
 200b0f4:	e0fffb17 	ldw	r3,-20(fp)
 200b0f8:	10c00015 	stw	r3,0(r2)
  
  alt_sysclk_init (freq);
  
  /* set to free running mode */
  
  IOWR_ALTERA_AVALON_TIMER_CONTROL (base, 
 200b0fc:	e0bffc17 	ldw	r2,-16(fp)
 200b100:	10800104 	addi	r2,r2,4
 200b104:	00c001c4 	movi	r3,7
 200b108:	10c00035 	stwio	r3,0(r2)
            ALTERA_AVALON_TIMER_CONTROL_CONT_MSK |
            ALTERA_AVALON_TIMER_CONTROL_START_MSK);

  /* register the interrupt handler, and enable the interrupt */
#ifdef ALT_ENHANCED_INTERRUPT_API_PRESENT
  alt_ic_isr_register(irq_controller_id, irq, alt_avalon_timer_sc_irq, 
 200b10c:	d8000015 	stw	zero,0(sp)
 200b110:	e13ffd17 	ldw	r4,-12(fp)
 200b114:	e17ffe17 	ldw	r5,-8(fp)
 200b118:	01808074 	movhi	r6,513
 200b11c:	31ac1004 	addi	r6,r6,-20416
 200b120:	e1fffc17 	ldw	r7,-16(fp)
 200b124:	200a32c0 	call	200a32c <alt_ic_isr_register>
                      base, NULL);
#else
  alt_irq_register (irq, base, alt_avalon_timer_sc_irq);
#endif  
}
 200b128:	e037883a 	mov	sp,fp
 200b12c:	dfc00117 	ldw	ra,4(sp)
 200b130:	df000017 	ldw	fp,0(sp)
 200b134:	dec00204 	addi	sp,sp,8
 200b138:	f800283a 	ret

0200b13c <alt_busy_sleep>:
#include "alt_types.h"

#include "priv/alt_busy_sleep.h"

unsigned int alt_busy_sleep (unsigned int us)
{
 200b13c:	defffa04 	addi	sp,sp,-24
 200b140:	dfc00515 	stw	ra,20(sp)
 200b144:	df000415 	stw	fp,16(sp)
 200b148:	df000404 	addi	fp,sp,16
 200b14c:	e13fff15 	stw	r4,-4(fp)
  {
    cycles_per_loop = 9;
  }
  else  
  {
    cycles_per_loop = 3;
 200b150:	008000c4 	movi	r2,3
 200b154:	e0bffd15 	stw	r2,-12(fp)
  }
  

  big_loops = us / (INT_MAX/
  (ALT_CPU_FREQ/(cycles_per_loop * 1000000)));
 200b158:	e0fffd17 	ldw	r3,-12(fp)
 200b15c:	008003f4 	movhi	r2,15
 200b160:	10909004 	addi	r2,r2,16960
 200b164:	1885383a 	mul	r2,r3,r2
 200b168:	0100bef4 	movhi	r4,763
 200b16c:	213c2004 	addi	r4,r4,-3968
 200b170:	100b883a 	mov	r5,r2
 200b174:	20062fc0 	call	20062fc <__udivsi3>
  {
    cycles_per_loop = 3;
  }
  

  big_loops = us / (INT_MAX/
 200b178:	01200034 	movhi	r4,32768
 200b17c:	213fffc4 	addi	r4,r4,-1
 200b180:	100b883a 	mov	r5,r2
 200b184:	20062fc0 	call	20062fc <__udivsi3>
 200b188:	e13fff17 	ldw	r4,-4(fp)
 200b18c:	100b883a 	mov	r5,r2
 200b190:	20062fc0 	call	20062fc <__udivsi3>
 200b194:	e0bffe15 	stw	r2,-8(fp)
  (ALT_CPU_FREQ/(cycles_per_loop * 1000000)));

  if (big_loops)
 200b198:	e0bffe17 	ldw	r2,-8(fp)
 200b19c:	10002a26 	beq	r2,zero,200b248 <alt_busy_sleep+0x10c>
  {
    for(i=0;i<big_loops;i++)
 200b1a0:	e03ffc15 	stw	zero,-16(fp)
 200b1a4:	00001706 	br	200b204 <alt_busy_sleep+0xc8>
      /*
      * Do NOT Try to single step the asm statement below 
      * (single step will never return)
      * Step out of this function or set a breakpoint after the asm statements
      */
      __asm__ volatile (
 200b1a8:	00a00034 	movhi	r2,32768
 200b1ac:	10bfffc4 	addi	r2,r2,-1
 200b1b0:	10bfffc4 	addi	r2,r2,-1
 200b1b4:	103ffe1e 	bne	r2,zero,200b1b0 <__alt_mem_pic_mem+0xfe0071b0>
        "\n\t.pushsection .debug_alt_sim_info"
        "\n\t.int 4, 0, 0b, 1b"
        "\n\t.popsection"
        :: "r" (INT_MAX));
      us -= (INT_MAX/(ALT_CPU_FREQ/
      (cycles_per_loop * 1000000)));
 200b1b8:	e0fffd17 	ldw	r3,-12(fp)
 200b1bc:	008003f4 	movhi	r2,15
 200b1c0:	10909004 	addi	r2,r2,16960
 200b1c4:	1885383a 	mul	r2,r3,r2
        "\n1:"
        "\n\t.pushsection .debug_alt_sim_info"
        "\n\t.int 4, 0, 0b, 1b"
        "\n\t.popsection"
        :: "r" (INT_MAX));
      us -= (INT_MAX/(ALT_CPU_FREQ/
 200b1c8:	0100bef4 	movhi	r4,763
 200b1cc:	213c2004 	addi	r4,r4,-3968
 200b1d0:	100b883a 	mov	r5,r2
 200b1d4:	20062fc0 	call	20062fc <__udivsi3>
 200b1d8:	01200034 	movhi	r4,32768
 200b1dc:	213fffc4 	addi	r4,r4,-1
 200b1e0:	100b883a 	mov	r5,r2
 200b1e4:	20062fc0 	call	20062fc <__udivsi3>
 200b1e8:	1007883a 	mov	r3,r2
 200b1ec:	e0bfff17 	ldw	r2,-4(fp)
 200b1f0:	10c5c83a 	sub	r2,r2,r3
 200b1f4:	e0bfff15 	stw	r2,-4(fp)
  big_loops = us / (INT_MAX/
  (ALT_CPU_FREQ/(cycles_per_loop * 1000000)));

  if (big_loops)
  {
    for(i=0;i<big_loops;i++)
 200b1f8:	e0bffc17 	ldw	r2,-16(fp)
 200b1fc:	10800044 	addi	r2,r2,1
 200b200:	e0bffc15 	stw	r2,-16(fp)
 200b204:	e0fffc17 	ldw	r3,-16(fp)
 200b208:	e0bffe17 	ldw	r2,-8(fp)
 200b20c:	18bfe616 	blt	r3,r2,200b1a8 <__alt_mem_pic_mem+0xfe0071a8>
      "\n\tbne %0,zero,0b"
      "\n1:"
      "\n\t.pushsection .debug_alt_sim_info"
      "\n\t.int 4, 0, 0b, 1b"
      "\n\t.popsection"
      :: "r" (us*(ALT_CPU_FREQ/(cycles_per_loop * 1000000))));
 200b210:	e0fffd17 	ldw	r3,-12(fp)
 200b214:	008003f4 	movhi	r2,15
 200b218:	10909004 	addi	r2,r2,16960
 200b21c:	1885383a 	mul	r2,r3,r2
 200b220:	0100bef4 	movhi	r4,763
 200b224:	213c2004 	addi	r4,r4,-3968
 200b228:	100b883a 	mov	r5,r2
 200b22c:	20062fc0 	call	20062fc <__udivsi3>
 200b230:	1007883a 	mov	r3,r2
 200b234:	e0bfff17 	ldw	r2,-4(fp)
 200b238:	1885383a 	mul	r2,r3,r2
    /*
    * Do NOT Try to single step the asm statement below 
    * (single step will never return)
    * Step out of this function or set a breakpoint after the asm statements
    */
    __asm__ volatile (
 200b23c:	10bfffc4 	addi	r2,r2,-1
 200b240:	103ffe1e 	bne	r2,zero,200b23c <__alt_mem_pic_mem+0xfe00723c>
 200b244:	00000d06 	br	200b27c <alt_busy_sleep+0x140>
      "\n\tbgt %0,zero,0b"
      "\n1:"
      "\n\t.pushsection .debug_alt_sim_info"
      "\n\t.int 4, 0, 0b, 1b"
      "\n\t.popsection"
      :: "r" (us*(ALT_CPU_FREQ/(cycles_per_loop * 1000000))));
 200b248:	e0fffd17 	ldw	r3,-12(fp)
 200b24c:	008003f4 	movhi	r2,15
 200b250:	10909004 	addi	r2,r2,16960
 200b254:	1885383a 	mul	r2,r3,r2
 200b258:	0100bef4 	movhi	r4,763
 200b25c:	213c2004 	addi	r4,r4,-3968
 200b260:	100b883a 	mov	r5,r2
 200b264:	20062fc0 	call	20062fc <__udivsi3>
 200b268:	1007883a 	mov	r3,r2
 200b26c:	e0bfff17 	ldw	r2,-4(fp)
 200b270:	1885383a 	mul	r2,r3,r2
    /*
    * Do NOT Try to single step the asm statement below 
    * (single step will never return)
    * Step out of this function or set a breakpoint after the asm statements
    */
    __asm__ volatile (
 200b274:	10bfffc4 	addi	r2,r2,-1
 200b278:	00bffe16 	blt	zero,r2,200b274 <__alt_mem_pic_mem+0xfe007274>
      "\n\t.int 4, 0, 0b, 1b"
      "\n\t.popsection"
      :: "r" (us*(ALT_CPU_FREQ/(cycles_per_loop * 1000000))));
  }
#endif /* #ifndef ALT_SIM_OPTIMIZE */
  return 0;
 200b27c:	0005883a 	mov	r2,zero
}
 200b280:	e037883a 	mov	sp,fp
 200b284:	dfc00117 	ldw	ra,4(sp)
 200b288:	df000017 	ldw	fp,0(sp)
 200b28c:	dec00204 	addi	sp,sp,8
 200b290:	f800283a 	ret

0200b294 <alt_get_errno>:
#undef errno

extern int errno;

static ALT_INLINE int* alt_get_errno(void)
{
 200b294:	defffe04 	addi	sp,sp,-8
 200b298:	dfc00115 	stw	ra,4(sp)
 200b29c:	df000015 	stw	fp,0(sp)
 200b2a0:	d839883a 	mov	fp,sp
  return ((alt_errno) ? alt_errno() : &errno);
 200b2a4:	008080f4 	movhi	r2,515
 200b2a8:	10a02f04 	addi	r2,r2,-32580
 200b2ac:	10800017 	ldw	r2,0(r2)
 200b2b0:	10000526 	beq	r2,zero,200b2c8 <alt_get_errno+0x34>
 200b2b4:	008080f4 	movhi	r2,515
 200b2b8:	10a02f04 	addi	r2,r2,-32580
 200b2bc:	10800017 	ldw	r2,0(r2)
 200b2c0:	103ee83a 	callr	r2
 200b2c4:	00000206 	br	200b2d0 <alt_get_errno+0x3c>
 200b2c8:	008080f4 	movhi	r2,515
 200b2cc:	10a8df04 	addi	r2,r2,-23684
}
 200b2d0:	e037883a 	mov	sp,fp
 200b2d4:	dfc00117 	ldw	ra,4(sp)
 200b2d8:	df000017 	ldw	fp,0(sp)
 200b2dc:	dec00204 	addi	sp,sp,8
 200b2e0:	f800283a 	ret

0200b2e4 <close>:
 *
 * ALT_CLOSE is mapped onto the close() system call in alt_syscall.h
 */
 
int ALT_CLOSE (int fildes)
{
 200b2e4:	defffb04 	addi	sp,sp,-20
 200b2e8:	dfc00415 	stw	ra,16(sp)
 200b2ec:	df000315 	stw	fp,12(sp)
 200b2f0:	df000304 	addi	fp,sp,12
 200b2f4:	e13fff15 	stw	r4,-4(fp)
   * A common error case is that when the file descriptor was created, the call
   * to open() failed resulting in a negative file descriptor. This is trapped
   * below so that we don't try and process an invalid file descriptor.
   */

  fd = (fildes < 0) ? NULL : &alt_fd_list[fildes];
 200b2f8:	e0bfff17 	ldw	r2,-4(fp)
 200b2fc:	10000616 	blt	r2,zero,200b318 <close+0x34>
 200b300:	e0bfff17 	ldw	r2,-4(fp)
 200b304:	10c00324 	muli	r3,r2,12
 200b308:	008080b4 	movhi	r2,514
 200b30c:	109fbf04 	addi	r2,r2,32508
 200b310:	1885883a 	add	r2,r3,r2
 200b314:	00000106 	br	200b31c <close+0x38>
 200b318:	0005883a 	mov	r2,zero
 200b31c:	e0bffd15 	stw	r2,-12(fp)

  if (fd)
 200b320:	e0bffd17 	ldw	r2,-12(fp)
 200b324:	10001926 	beq	r2,zero,200b38c <close+0xa8>
    /*
     * If the associated file system/device has a close function, call it so 
     * that any necessary cleanup code can run.
     */

    rval = (fd->dev->close) ? fd->dev->close(fd) : 0;
 200b328:	e0bffd17 	ldw	r2,-12(fp)
 200b32c:	10800017 	ldw	r2,0(r2)
 200b330:	10800417 	ldw	r2,16(r2)
 200b334:	10000626 	beq	r2,zero,200b350 <close+0x6c>
 200b338:	e0bffd17 	ldw	r2,-12(fp)
 200b33c:	10800017 	ldw	r2,0(r2)
 200b340:	10800417 	ldw	r2,16(r2)
 200b344:	e13ffd17 	ldw	r4,-12(fp)
 200b348:	103ee83a 	callr	r2
 200b34c:	00000106 	br	200b354 <close+0x70>
 200b350:	0005883a 	mov	r2,zero
 200b354:	e0bffe15 	stw	r2,-8(fp)

    /* Free the file descriptor structure and return. */

    alt_release_fd (fildes);
 200b358:	e13fff17 	ldw	r4,-4(fp)
 200b35c:	200b8f40 	call	200b8f4 <alt_release_fd>
    if (rval < 0)
 200b360:	e0bffe17 	ldw	r2,-8(fp)
 200b364:	1000070e 	bge	r2,zero,200b384 <close+0xa0>
    {
      ALT_ERRNO = -rval;
 200b368:	200b2940 	call	200b294 <alt_get_errno>
 200b36c:	1007883a 	mov	r3,r2
 200b370:	e0bffe17 	ldw	r2,-8(fp)
 200b374:	0085c83a 	sub	r2,zero,r2
 200b378:	18800015 	stw	r2,0(r3)
      return -1;
 200b37c:	00bfffc4 	movi	r2,-1
 200b380:	00000706 	br	200b3a0 <close+0xbc>
    }
    return 0;
 200b384:	0005883a 	mov	r2,zero
 200b388:	00000506 	br	200b3a0 <close+0xbc>
  }
  else
  {
    ALT_ERRNO = EBADFD;
 200b38c:	200b2940 	call	200b294 <alt_get_errno>
 200b390:	1007883a 	mov	r3,r2
 200b394:	00801444 	movi	r2,81
 200b398:	18800015 	stw	r2,0(r3)
    return -1;
 200b39c:	00bfffc4 	movi	r2,-1
  }
}
 200b3a0:	e037883a 	mov	sp,fp
 200b3a4:	dfc00117 	ldw	ra,4(sp)
 200b3a8:	df000017 	ldw	fp,0(sp)
 200b3ac:	dec00204 	addi	sp,sp,8
 200b3b0:	f800283a 	ret

0200b3b4 <alt_dcache_flush_all>:
/*
 * alt_dcache_flush_all() is called to flush the entire data cache.
 */

void alt_dcache_flush_all (void)
{
 200b3b4:	defffe04 	addi	sp,sp,-8
 200b3b8:	df000115 	stw	fp,4(sp)
 200b3bc:	df000104 	addi	fp,sp,4
#if NIOS2_DCACHE_SIZE > 0
  char* i;
  
  for (i = (char*) 0; i < (char*) NIOS2_DCACHE_SIZE; i+= NIOS2_DCACHE_LINE_SIZE)
 200b3c0:	e03fff15 	stw	zero,-4(fp)
 200b3c4:	00000506 	br	200b3dc <alt_dcache_flush_all+0x28>
  { 
    __asm__ volatile ("flushd (%0)" :: "r" (i));
 200b3c8:	e0bfff17 	ldw	r2,-4(fp)
 200b3cc:	1000003b 	flushd	0(r2)
void alt_dcache_flush_all (void)
{
#if NIOS2_DCACHE_SIZE > 0
  char* i;
  
  for (i = (char*) 0; i < (char*) NIOS2_DCACHE_SIZE; i+= NIOS2_DCACHE_LINE_SIZE)
 200b3d0:	e0bfff17 	ldw	r2,-4(fp)
 200b3d4:	10800804 	addi	r2,r2,32
 200b3d8:	e0bfff15 	stw	r2,-4(fp)
 200b3dc:	e0bfff17 	ldw	r2,-4(fp)
 200b3e0:	10820030 	cmpltui	r2,r2,2048
 200b3e4:	103ff81e 	bne	r2,zero,200b3c8 <__alt_mem_pic_mem+0xfe0073c8>
  { 
    __asm__ volatile ("flushd (%0)" :: "r" (i));
  }
#endif /* NIOS2_DCACHE_SIZE > 0 */
}
 200b3e8:	e037883a 	mov	sp,fp
 200b3ec:	df000017 	ldw	fp,0(sp)
 200b3f0:	dec00104 	addi	sp,sp,4
 200b3f4:	f800283a 	ret

0200b3f8 <alt_dev_null_write>:
 * by the alt_dev_null device. It simple discards all data passed to it, and
 * indicates that the data has been successfully transmitted.
 */

static int alt_dev_null_write (alt_fd* fd, const char* ptr, int len)
{
 200b3f8:	defffc04 	addi	sp,sp,-16
 200b3fc:	df000315 	stw	fp,12(sp)
 200b400:	df000304 	addi	fp,sp,12
 200b404:	e13ffd15 	stw	r4,-12(fp)
 200b408:	e17ffe15 	stw	r5,-8(fp)
 200b40c:	e1bfff15 	stw	r6,-4(fp)
  return len;
 200b410:	e0bfff17 	ldw	r2,-4(fp)
}
 200b414:	e037883a 	mov	sp,fp
 200b418:	df000017 	ldw	fp,0(sp)
 200b41c:	dec00104 	addi	sp,sp,4
 200b420:	f800283a 	ret

0200b424 <alt_get_errno>:
#undef errno

extern int errno;

static ALT_INLINE int* alt_get_errno(void)
{
 200b424:	defffe04 	addi	sp,sp,-8
 200b428:	dfc00115 	stw	ra,4(sp)
 200b42c:	df000015 	stw	fp,0(sp)
 200b430:	d839883a 	mov	fp,sp
  return ((alt_errno) ? alt_errno() : &errno);
 200b434:	008080f4 	movhi	r2,515
 200b438:	10a02f04 	addi	r2,r2,-32580
 200b43c:	10800017 	ldw	r2,0(r2)
 200b440:	10000526 	beq	r2,zero,200b458 <alt_get_errno+0x34>
 200b444:	008080f4 	movhi	r2,515
 200b448:	10a02f04 	addi	r2,r2,-32580
 200b44c:	10800017 	ldw	r2,0(r2)
 200b450:	103ee83a 	callr	r2
 200b454:	00000206 	br	200b460 <alt_get_errno+0x3c>
 200b458:	008080f4 	movhi	r2,515
 200b45c:	10a8df04 	addi	r2,r2,-23684
}
 200b460:	e037883a 	mov	sp,fp
 200b464:	dfc00117 	ldw	ra,4(sp)
 200b468:	df000017 	ldw	fp,0(sp)
 200b46c:	dec00204 	addi	sp,sp,8
 200b470:	f800283a 	ret

0200b474 <alt_dev_llist_insert>:
/*
 *
 */

int alt_dev_llist_insert (alt_dev_llist* dev, alt_llist* list)
{
 200b474:	defffa04 	addi	sp,sp,-24
 200b478:	dfc00515 	stw	ra,20(sp)
 200b47c:	df000415 	stw	fp,16(sp)
 200b480:	df000404 	addi	fp,sp,16
 200b484:	e13ffe15 	stw	r4,-8(fp)
 200b488:	e17fff15 	stw	r5,-4(fp)
  /*
   * check that the device exists, and that it has a valid name.
   */

  if (!dev || !dev->name)
 200b48c:	e0bffe17 	ldw	r2,-8(fp)
 200b490:	10000326 	beq	r2,zero,200b4a0 <alt_dev_llist_insert+0x2c>
 200b494:	e0bffe17 	ldw	r2,-8(fp)
 200b498:	10800217 	ldw	r2,8(r2)
 200b49c:	1000061e 	bne	r2,zero,200b4b8 <alt_dev_llist_insert+0x44>
  {
    ALT_ERRNO = EINVAL;
 200b4a0:	200b4240 	call	200b424 <alt_get_errno>
 200b4a4:	1007883a 	mov	r3,r2
 200b4a8:	00800584 	movi	r2,22
 200b4ac:	18800015 	stw	r2,0(r3)
    return -EINVAL;
 200b4b0:	00bffa84 	movi	r2,-22
 200b4b4:	00001306 	br	200b504 <alt_dev_llist_insert+0x90>
  
  /*
   * register the device.
   */
  
  alt_llist_insert(list, &dev->llist);
 200b4b8:	e0bffe17 	ldw	r2,-8(fp)
 200b4bc:	e0ffff17 	ldw	r3,-4(fp)
 200b4c0:	e0fffc15 	stw	r3,-16(fp)
 200b4c4:	e0bffd15 	stw	r2,-12(fp)
 */

static ALT_INLINE void ALT_ALWAYS_INLINE alt_llist_insert(alt_llist* list, 
                alt_llist* entry)
{
  entry->previous = list;
 200b4c8:	e0bffd17 	ldw	r2,-12(fp)
 200b4cc:	e0fffc17 	ldw	r3,-16(fp)
 200b4d0:	10c00115 	stw	r3,4(r2)
  entry->next     = list->next;
 200b4d4:	e0bffc17 	ldw	r2,-16(fp)
 200b4d8:	10c00017 	ldw	r3,0(r2)
 200b4dc:	e0bffd17 	ldw	r2,-12(fp)
 200b4e0:	10c00015 	stw	r3,0(r2)

  list->next->previous = entry;
 200b4e4:	e0bffc17 	ldw	r2,-16(fp)
 200b4e8:	10800017 	ldw	r2,0(r2)
 200b4ec:	e0fffd17 	ldw	r3,-12(fp)
 200b4f0:	10c00115 	stw	r3,4(r2)
  list->next           = entry;
 200b4f4:	e0bffc17 	ldw	r2,-16(fp)
 200b4f8:	e0fffd17 	ldw	r3,-12(fp)
 200b4fc:	10c00015 	stw	r3,0(r2)

  return 0;  
 200b500:	0005883a 	mov	r2,zero
}
 200b504:	e037883a 	mov	sp,fp
 200b508:	dfc00117 	ldw	ra,4(sp)
 200b50c:	df000017 	ldw	fp,0(sp)
 200b510:	dec00204 	addi	sp,sp,8
 200b514:	f800283a 	ret

0200b518 <alt_icache_flush_all>:
/*
 * alt_icache_flush_all() is called to flush the entire instruction cache.
 */

void alt_icache_flush_all (void)
{
 200b518:	defffe04 	addi	sp,sp,-8
 200b51c:	dfc00115 	stw	ra,4(sp)
 200b520:	df000015 	stw	fp,0(sp)
 200b524:	d839883a 	mov	fp,sp
#if NIOS2_ICACHE_SIZE > 0
  alt_icache_flush (0, NIOS2_ICACHE_SIZE);
 200b528:	0009883a 	mov	r4,zero
 200b52c:	01440004 	movi	r5,4096
 200b530:	200bbcc0 	call	200bbcc <alt_icache_flush>
#endif
}
 200b534:	e037883a 	mov	sp,fp
 200b538:	dfc00117 	ldw	ra,4(sp)
 200b53c:	df000017 	ldw	fp,0(sp)
 200b540:	dec00204 	addi	sp,sp,8
 200b544:	f800283a 	ret

0200b548 <alt_open_fd>:
 * If the device can not be succesfully opened, then the input file descriptor
 * remains unchanged.
 */

static void alt_open_fd(alt_fd* fd, const char* name, int flags, int mode)
{
 200b548:	defff904 	addi	sp,sp,-28
 200b54c:	dfc00615 	stw	ra,24(sp)
 200b550:	df000515 	stw	fp,20(sp)
 200b554:	df000504 	addi	fp,sp,20
 200b558:	e13ffc15 	stw	r4,-16(fp)
 200b55c:	e17ffd15 	stw	r5,-12(fp)
 200b560:	e1bffe15 	stw	r6,-8(fp)
 200b564:	e1ffff15 	stw	r7,-4(fp)
  int old;

  old = open (name, flags, mode);
 200b568:	e13ffd17 	ldw	r4,-12(fp)
 200b56c:	e17ffe17 	ldw	r5,-8(fp)
 200b570:	e1bfff17 	ldw	r6,-4(fp)
 200b574:	200b79c0 	call	200b79c <open>
 200b578:	e0bffb15 	stw	r2,-20(fp)

  if (old >= 0)
 200b57c:	e0bffb17 	ldw	r2,-20(fp)
 200b580:	10001c16 	blt	r2,zero,200b5f4 <alt_open_fd+0xac>
  {
    fd->dev      = alt_fd_list[old].dev;
 200b584:	008080b4 	movhi	r2,514
 200b588:	109fbf04 	addi	r2,r2,32508
 200b58c:	e0fffb17 	ldw	r3,-20(fp)
 200b590:	18c00324 	muli	r3,r3,12
 200b594:	10c5883a 	add	r2,r2,r3
 200b598:	10c00017 	ldw	r3,0(r2)
 200b59c:	e0bffc17 	ldw	r2,-16(fp)
 200b5a0:	10c00015 	stw	r3,0(r2)
    fd->priv     = alt_fd_list[old].priv;
 200b5a4:	008080b4 	movhi	r2,514
 200b5a8:	109fbf04 	addi	r2,r2,32508
 200b5ac:	e0fffb17 	ldw	r3,-20(fp)
 200b5b0:	18c00324 	muli	r3,r3,12
 200b5b4:	10c5883a 	add	r2,r2,r3
 200b5b8:	10800104 	addi	r2,r2,4
 200b5bc:	10c00017 	ldw	r3,0(r2)
 200b5c0:	e0bffc17 	ldw	r2,-16(fp)
 200b5c4:	10c00115 	stw	r3,4(r2)
    fd->fd_flags = alt_fd_list[old].fd_flags;
 200b5c8:	008080b4 	movhi	r2,514
 200b5cc:	109fbf04 	addi	r2,r2,32508
 200b5d0:	e0fffb17 	ldw	r3,-20(fp)
 200b5d4:	18c00324 	muli	r3,r3,12
 200b5d8:	10c5883a 	add	r2,r2,r3
 200b5dc:	10800204 	addi	r2,r2,8
 200b5e0:	10c00017 	ldw	r3,0(r2)
 200b5e4:	e0bffc17 	ldw	r2,-16(fp)
 200b5e8:	10c00215 	stw	r3,8(r2)

    alt_release_fd (old);
 200b5ec:	e13ffb17 	ldw	r4,-20(fp)
 200b5f0:	200b8f40 	call	200b8f4 <alt_release_fd>
  }
} 
 200b5f4:	e037883a 	mov	sp,fp
 200b5f8:	dfc00117 	ldw	ra,4(sp)
 200b5fc:	df000017 	ldw	fp,0(sp)
 200b600:	dec00204 	addi	sp,sp,8
 200b604:	f800283a 	ret

0200b608 <alt_io_redirect>:
 */
 
void alt_io_redirect(const char* stdout_dev, 
                     const char* stdin_dev, 
                     const char* stderr_dev)
{
 200b608:	defffb04 	addi	sp,sp,-20
 200b60c:	dfc00415 	stw	ra,16(sp)
 200b610:	df000315 	stw	fp,12(sp)
 200b614:	df000304 	addi	fp,sp,12
 200b618:	e13ffd15 	stw	r4,-12(fp)
 200b61c:	e17ffe15 	stw	r5,-8(fp)
 200b620:	e1bfff15 	stw	r6,-4(fp)
  /* Redirect the channels */

  alt_open_fd (&alt_fd_list[STDOUT_FILENO], stdout_dev, O_WRONLY, 0777);
 200b624:	010080b4 	movhi	r4,514
 200b628:	211fc204 	addi	r4,r4,32520
 200b62c:	e17ffd17 	ldw	r5,-12(fp)
 200b630:	01800044 	movi	r6,1
 200b634:	01c07fc4 	movi	r7,511
 200b638:	200b5480 	call	200b548 <alt_open_fd>
  alt_open_fd (&alt_fd_list[STDIN_FILENO], stdin_dev, O_RDONLY, 0777);
 200b63c:	010080b4 	movhi	r4,514
 200b640:	211fbf04 	addi	r4,r4,32508
 200b644:	e17ffe17 	ldw	r5,-8(fp)
 200b648:	000d883a 	mov	r6,zero
 200b64c:	01c07fc4 	movi	r7,511
 200b650:	200b5480 	call	200b548 <alt_open_fd>
  alt_open_fd (&alt_fd_list[STDERR_FILENO], stderr_dev, O_WRONLY, 0777);
 200b654:	010080b4 	movhi	r4,514
 200b658:	211fc504 	addi	r4,r4,32532
 200b65c:	e17fff17 	ldw	r5,-4(fp)
 200b660:	01800044 	movi	r6,1
 200b664:	01c07fc4 	movi	r7,511
 200b668:	200b5480 	call	200b548 <alt_open_fd>
}  
 200b66c:	e037883a 	mov	sp,fp
 200b670:	dfc00117 	ldw	ra,4(sp)
 200b674:	df000017 	ldw	fp,0(sp)
 200b678:	dec00204 	addi	sp,sp,8
 200b67c:	f800283a 	ret

0200b680 <alt_get_errno>:
#undef errno

extern int errno;

static ALT_INLINE int* alt_get_errno(void)
{
 200b680:	defffe04 	addi	sp,sp,-8
 200b684:	dfc00115 	stw	ra,4(sp)
 200b688:	df000015 	stw	fp,0(sp)
 200b68c:	d839883a 	mov	fp,sp
  return ((alt_errno) ? alt_errno() : &errno);
 200b690:	008080f4 	movhi	r2,515
 200b694:	10a02f04 	addi	r2,r2,-32580
 200b698:	10800017 	ldw	r2,0(r2)
 200b69c:	10000526 	beq	r2,zero,200b6b4 <alt_get_errno+0x34>
 200b6a0:	008080f4 	movhi	r2,515
 200b6a4:	10a02f04 	addi	r2,r2,-32580
 200b6a8:	10800017 	ldw	r2,0(r2)
 200b6ac:	103ee83a 	callr	r2
 200b6b0:	00000206 	br	200b6bc <alt_get_errno+0x3c>
 200b6b4:	008080f4 	movhi	r2,515
 200b6b8:	10a8df04 	addi	r2,r2,-23684
}
 200b6bc:	e037883a 	mov	sp,fp
 200b6c0:	dfc00117 	ldw	ra,4(sp)
 200b6c4:	df000017 	ldw	fp,0(sp)
 200b6c8:	dec00204 	addi	sp,sp,8
 200b6cc:	f800283a 	ret

0200b6d0 <alt_file_locked>:
 * performed for devices. Filesystems are required to handle the ioctl() call
 * themselves, and report the error from the filesystems open() function. 
 */ 

static int alt_file_locked (alt_fd* fd)
{
 200b6d0:	defffd04 	addi	sp,sp,-12
 200b6d4:	df000215 	stw	fp,8(sp)
 200b6d8:	df000204 	addi	fp,sp,8
 200b6dc:	e13fff15 	stw	r4,-4(fp)

  /*
   * Mark the file descriptor as belonging to a device.
   */

  fd->fd_flags |= ALT_FD_DEV;
 200b6e0:	e0bfff17 	ldw	r2,-4(fp)
 200b6e4:	10800217 	ldw	r2,8(r2)
 200b6e8:	10d00034 	orhi	r3,r2,16384
 200b6ec:	e0bfff17 	ldw	r2,-4(fp)
 200b6f0:	10c00215 	stw	r3,8(r2)
  /*
   * Loop through all current file descriptors searching for one that's locked
   * for exclusive access. If a match is found, generate an error.
   */

  for (i = 0; i <= alt_max_fd; i++)
 200b6f4:	e03ffe15 	stw	zero,-8(fp)
 200b6f8:	00001d06 	br	200b770 <alt_file_locked+0xa0>
  {
    if ((alt_fd_list[i].dev == fd->dev) &&
 200b6fc:	008080b4 	movhi	r2,514
 200b700:	109fbf04 	addi	r2,r2,32508
 200b704:	e0fffe17 	ldw	r3,-8(fp)
 200b708:	18c00324 	muli	r3,r3,12
 200b70c:	10c5883a 	add	r2,r2,r3
 200b710:	10c00017 	ldw	r3,0(r2)
 200b714:	e0bfff17 	ldw	r2,-4(fp)
 200b718:	10800017 	ldw	r2,0(r2)
 200b71c:	1880111e 	bne	r3,r2,200b764 <alt_file_locked+0x94>
        (alt_fd_list[i].fd_flags & ALT_FD_EXCL) &&
 200b720:	008080b4 	movhi	r2,514
 200b724:	109fbf04 	addi	r2,r2,32508
 200b728:	e0fffe17 	ldw	r3,-8(fp)
 200b72c:	18c00324 	muli	r3,r3,12
 200b730:	10c5883a 	add	r2,r2,r3
 200b734:	10800204 	addi	r2,r2,8
 200b738:	10800017 	ldw	r2,0(r2)
   * for exclusive access. If a match is found, generate an error.
   */

  for (i = 0; i <= alt_max_fd; i++)
  {
    if ((alt_fd_list[i].dev == fd->dev) &&
 200b73c:	1000090e 	bge	r2,zero,200b764 <alt_file_locked+0x94>
        (alt_fd_list[i].fd_flags & ALT_FD_EXCL) &&
        (&alt_fd_list[i] != fd))
 200b740:	e0bffe17 	ldw	r2,-8(fp)
 200b744:	10c00324 	muli	r3,r2,12
 200b748:	008080b4 	movhi	r2,514
 200b74c:	109fbf04 	addi	r2,r2,32508
 200b750:	1887883a 	add	r3,r3,r2
   */

  for (i = 0; i <= alt_max_fd; i++)
  {
    if ((alt_fd_list[i].dev == fd->dev) &&
        (alt_fd_list[i].fd_flags & ALT_FD_EXCL) &&
 200b754:	e0bfff17 	ldw	r2,-4(fp)
 200b758:	18800226 	beq	r3,r2,200b764 <alt_file_locked+0x94>
        (&alt_fd_list[i] != fd))
    {
      return -EACCES;
 200b75c:	00bffcc4 	movi	r2,-13
 200b760:	00000a06 	br	200b78c <alt_file_locked+0xbc>
  /*
   * Loop through all current file descriptors searching for one that's locked
   * for exclusive access. If a match is found, generate an error.
   */

  for (i = 0; i <= alt_max_fd; i++)
 200b764:	e0bffe17 	ldw	r2,-8(fp)
 200b768:	10800044 	addi	r2,r2,1
 200b76c:	e0bffe15 	stw	r2,-8(fp)
 200b770:	008080f4 	movhi	r2,515
 200b774:	10a02e04 	addi	r2,r2,-32584
 200b778:	10800017 	ldw	r2,0(r2)
 200b77c:	1007883a 	mov	r3,r2
 200b780:	e0bffe17 	ldw	r2,-8(fp)
 200b784:	18bfdd2e 	bgeu	r3,r2,200b6fc <__alt_mem_pic_mem+0xfe0076fc>
    }
  }
  
  /* The device is not locked */
 
  return 0;
 200b788:	0005883a 	mov	r2,zero
}
 200b78c:	e037883a 	mov	sp,fp
 200b790:	df000017 	ldw	fp,0(sp)
 200b794:	dec00104 	addi	sp,sp,4
 200b798:	f800283a 	ret

0200b79c <open>:
 *
 * ALT_OPEN is mapped onto the open() system call in alt_syscall.h
 */
 
int ALT_OPEN (const char* file, int flags, int mode)
{ 
 200b79c:	defff604 	addi	sp,sp,-40
 200b7a0:	dfc00915 	stw	ra,36(sp)
 200b7a4:	df000815 	stw	fp,32(sp)
 200b7a8:	df000804 	addi	fp,sp,32
 200b7ac:	e13ffd15 	stw	r4,-12(fp)
 200b7b0:	e17ffe15 	stw	r5,-8(fp)
 200b7b4:	e1bfff15 	stw	r6,-4(fp)
  alt_dev* dev;
  alt_fd*  fd;
  int index  = -1;
 200b7b8:	00bfffc4 	movi	r2,-1
 200b7bc:	e0bff915 	stw	r2,-28(fp)
  int status = -ENODEV;
 200b7c0:	00bffb44 	movi	r2,-19
 200b7c4:	e0bffa15 	stw	r2,-24(fp)
  int isafs = 0;
 200b7c8:	e03ffb15 	stw	zero,-20(fp)
  /* 
   * Check the device list, to see if a device with a matching name is 
   * registered.
   */
  
  if (!(dev = alt_find_dev (file, &alt_dev_list)))
 200b7cc:	e13ffd17 	ldw	r4,-12(fp)
 200b7d0:	014080f4 	movhi	r5,515
 200b7d4:	29602c04 	addi	r5,r5,-32592
 200b7d8:	200b9740 	call	200b974 <alt_find_dev>
 200b7dc:	e0bff815 	stw	r2,-32(fp)
 200b7e0:	e0bff817 	ldw	r2,-32(fp)
 200b7e4:	1000051e 	bne	r2,zero,200b7fc <open+0x60>
  {
    /* No matching device, so try the filesystem list */

    dev   = alt_find_file (file);
 200b7e8:	e13ffd17 	ldw	r4,-12(fp)
 200b7ec:	200ba040 	call	200ba04 <alt_find_file>
 200b7f0:	e0bff815 	stw	r2,-32(fp)
    isafs = 1;
 200b7f4:	00800044 	movi	r2,1
 200b7f8:	e0bffb15 	stw	r2,-20(fp)

  /* 
   * If a matching device or filesystem is found, allocate a file descriptor. 
   */

  if (dev)
 200b7fc:	e0bff817 	ldw	r2,-32(fp)
 200b800:	10002926 	beq	r2,zero,200b8a8 <open+0x10c>
  {
    if ((index = alt_get_fd (dev)) < 0)
 200b804:	e13ff817 	ldw	r4,-32(fp)
 200b808:	200bb180 	call	200bb18 <alt_get_fd>
 200b80c:	e0bff915 	stw	r2,-28(fp)
 200b810:	e0bff917 	ldw	r2,-28(fp)
 200b814:	1000030e 	bge	r2,zero,200b824 <open+0x88>
    {
      status = index;
 200b818:	e0bff917 	ldw	r2,-28(fp)
 200b81c:	e0bffa15 	stw	r2,-24(fp)
 200b820:	00002306 	br	200b8b0 <open+0x114>
    }
    else
    {
      fd = &alt_fd_list[index];
 200b824:	e0bff917 	ldw	r2,-28(fp)
 200b828:	10c00324 	muli	r3,r2,12
 200b82c:	008080b4 	movhi	r2,514
 200b830:	109fbf04 	addi	r2,r2,32508
 200b834:	1885883a 	add	r2,r3,r2
 200b838:	e0bffc15 	stw	r2,-16(fp)
      fd->fd_flags = (flags & ~ALT_FD_FLAGS_MASK);
 200b83c:	e0fffe17 	ldw	r3,-8(fp)
 200b840:	00900034 	movhi	r2,16384
 200b844:	10bfffc4 	addi	r2,r2,-1
 200b848:	1886703a 	and	r3,r3,r2
 200b84c:	e0bffc17 	ldw	r2,-16(fp)
 200b850:	10c00215 	stw	r3,8(r2)
      
      /* If this is a device, ensure it isn't already locked */

      if (isafs || ((status = alt_file_locked (fd)) >= 0))
 200b854:	e0bffb17 	ldw	r2,-20(fp)
 200b858:	1000051e 	bne	r2,zero,200b870 <open+0xd4>
 200b85c:	e13ffc17 	ldw	r4,-16(fp)
 200b860:	200b6d00 	call	200b6d0 <alt_file_locked>
 200b864:	e0bffa15 	stw	r2,-24(fp)
 200b868:	e0bffa17 	ldw	r2,-24(fp)
 200b86c:	10001016 	blt	r2,zero,200b8b0 <open+0x114>
        /* 
         * If the device or filesystem provides an open() callback function,
         * call it now to perform any device/filesystem specific operations.
         */
    
        status = (dev->open) ? dev->open(fd, file, flags, mode): 0;
 200b870:	e0bff817 	ldw	r2,-32(fp)
 200b874:	10800317 	ldw	r2,12(r2)
 200b878:	10000826 	beq	r2,zero,200b89c <open+0x100>
 200b87c:	e0bff817 	ldw	r2,-32(fp)
 200b880:	10800317 	ldw	r2,12(r2)
 200b884:	e13ffc17 	ldw	r4,-16(fp)
 200b888:	e17ffd17 	ldw	r5,-12(fp)
 200b88c:	e1bffe17 	ldw	r6,-8(fp)
 200b890:	e1ffff17 	ldw	r7,-4(fp)
 200b894:	103ee83a 	callr	r2
 200b898:	00000106 	br	200b8a0 <open+0x104>
 200b89c:	0005883a 	mov	r2,zero
 200b8a0:	e0bffa15 	stw	r2,-24(fp)
 200b8a4:	00000206 	br	200b8b0 <open+0x114>
      }
    }
  }
  else
  {
    status = -ENODEV;
 200b8a8:	00bffb44 	movi	r2,-19
 200b8ac:	e0bffa15 	stw	r2,-24(fp)
  }

  /* Allocation failed, so clean up and return an error */ 

  if (status < 0)
 200b8b0:	e0bffa17 	ldw	r2,-24(fp)
 200b8b4:	1000090e 	bge	r2,zero,200b8dc <open+0x140>
  {
    alt_release_fd (index);  
 200b8b8:	e13ff917 	ldw	r4,-28(fp)
 200b8bc:	200b8f40 	call	200b8f4 <alt_release_fd>
    ALT_ERRNO = -status;
 200b8c0:	200b6800 	call	200b680 <alt_get_errno>
 200b8c4:	1007883a 	mov	r3,r2
 200b8c8:	e0bffa17 	ldw	r2,-24(fp)
 200b8cc:	0085c83a 	sub	r2,zero,r2
 200b8d0:	18800015 	stw	r2,0(r3)
    return -1;
 200b8d4:	00bfffc4 	movi	r2,-1
 200b8d8:	00000106 	br	200b8e0 <open+0x144>
  }
  
  /* return the reference upon success */

  return index;
 200b8dc:	e0bff917 	ldw	r2,-28(fp)
}
 200b8e0:	e037883a 	mov	sp,fp
 200b8e4:	dfc00117 	ldw	ra,4(sp)
 200b8e8:	df000017 	ldw	fp,0(sp)
 200b8ec:	dec00204 	addi	sp,sp,8
 200b8f0:	f800283a 	ret

0200b8f4 <alt_release_fd>:
 * File descriptors correcponding to standard in, standard out and standard 
 * error cannont be released backed to the pool. They are always reserved.
 */

void alt_release_fd (int fd)
{
 200b8f4:	defffe04 	addi	sp,sp,-8
 200b8f8:	df000115 	stw	fp,4(sp)
 200b8fc:	df000104 	addi	fp,sp,4
 200b900:	e13fff15 	stw	r4,-4(fp)
  if (fd > 2)
 200b904:	e0bfff17 	ldw	r2,-4(fp)
 200b908:	108000d0 	cmplti	r2,r2,3
 200b90c:	10000d1e 	bne	r2,zero,200b944 <alt_release_fd+0x50>
  {
    alt_fd_list[fd].fd_flags = 0;
 200b910:	008080b4 	movhi	r2,514
 200b914:	109fbf04 	addi	r2,r2,32508
 200b918:	e0ffff17 	ldw	r3,-4(fp)
 200b91c:	18c00324 	muli	r3,r3,12
 200b920:	10c5883a 	add	r2,r2,r3
 200b924:	10800204 	addi	r2,r2,8
 200b928:	10000015 	stw	zero,0(r2)
    alt_fd_list[fd].dev      = 0;
 200b92c:	008080b4 	movhi	r2,514
 200b930:	109fbf04 	addi	r2,r2,32508
 200b934:	e0ffff17 	ldw	r3,-4(fp)
 200b938:	18c00324 	muli	r3,r3,12
 200b93c:	10c5883a 	add	r2,r2,r3
 200b940:	10000015 	stw	zero,0(r2)
  }
}
 200b944:	e037883a 	mov	sp,fp
 200b948:	df000017 	ldw	fp,0(sp)
 200b94c:	dec00104 	addi	sp,sp,4
 200b950:	f800283a 	ret

0200b954 <altera_nios2_qsys_irq_init>:
/*
 * To initialize the internal interrupt controller, just clear the IENABLE
 * register so that all possible IRQs are disabled.
 */
void altera_nios2_qsys_irq_init(void) 
{
 200b954:	deffff04 	addi	sp,sp,-4
 200b958:	df000015 	stw	fp,0(sp)
 200b95c:	d839883a 	mov	fp,sp
    NIOS2_WRITE_IENABLE(0);
 200b960:	000170fa 	wrctl	ienable,zero
}
 200b964:	e037883a 	mov	sp,fp
 200b968:	df000017 	ldw	fp,0(sp)
 200b96c:	dec00104 	addi	sp,sp,4
 200b970:	f800283a 	ret

0200b974 <alt_find_dev>:
 * "name" must be an exact match for the devices registered name for a match to
 * be found.
 */
 
alt_dev* alt_find_dev(const char* name, alt_llist* llist)
{
 200b974:	defffa04 	addi	sp,sp,-24
 200b978:	dfc00515 	stw	ra,20(sp)
 200b97c:	df000415 	stw	fp,16(sp)
 200b980:	df000404 	addi	fp,sp,16
 200b984:	e13ffe15 	stw	r4,-8(fp)
 200b988:	e17fff15 	stw	r5,-4(fp)
  alt_dev* next = (alt_dev*) llist->next;
 200b98c:	e0bfff17 	ldw	r2,-4(fp)
 200b990:	10800017 	ldw	r2,0(r2)
 200b994:	e0bffc15 	stw	r2,-16(fp)
  alt_32 len;

  len  = strlen(name) + 1;
 200b998:	e13ffe17 	ldw	r4,-8(fp)
 200b99c:	200907c0 	call	200907c <strlen>
 200b9a0:	10800044 	addi	r2,r2,1
 200b9a4:	e0bffd15 	stw	r2,-12(fp)
  /*
   * Check each list entry in turn, until a match is found, or we reach the
   * end of the list (i.e. next winds up pointing back to the list head).
   */ 

  while (next != (alt_dev*) llist)
 200b9a8:	00000d06 	br	200b9e0 <alt_find_dev+0x6c>
    /* 
     * memcmp() is used here rather than strcmp() in order to reduce the size
     * of the executable.
     */

    if (!memcmp (next->name, name, len))
 200b9ac:	e0bffc17 	ldw	r2,-16(fp)
 200b9b0:	10c00217 	ldw	r3,8(r2)
 200b9b4:	e0bffd17 	ldw	r2,-12(fp)
 200b9b8:	1809883a 	mov	r4,r3
 200b9bc:	e17ffe17 	ldw	r5,-8(fp)
 200b9c0:	100d883a 	mov	r6,r2
 200b9c4:	200bc780 	call	200bc78 <memcmp>
 200b9c8:	1000021e 	bne	r2,zero,200b9d4 <alt_find_dev+0x60>
    {
      /* match found */

      return next;
 200b9cc:	e0bffc17 	ldw	r2,-16(fp)
 200b9d0:	00000706 	br	200b9f0 <alt_find_dev+0x7c>
    }
    next = (alt_dev*) next->llist.next;
 200b9d4:	e0bffc17 	ldw	r2,-16(fp)
 200b9d8:	10800017 	ldw	r2,0(r2)
 200b9dc:	e0bffc15 	stw	r2,-16(fp)
  /*
   * Check each list entry in turn, until a match is found, or we reach the
   * end of the list (i.e. next winds up pointing back to the list head).
   */ 

  while (next != (alt_dev*) llist)
 200b9e0:	e0fffc17 	ldw	r3,-16(fp)
 200b9e4:	e0bfff17 	ldw	r2,-4(fp)
 200b9e8:	18bff01e 	bne	r3,r2,200b9ac <__alt_mem_pic_mem+0xfe0079ac>
    next = (alt_dev*) next->llist.next;
  }
  
  /* No match found */
  
  return NULL;
 200b9ec:	0005883a 	mov	r2,zero
}
 200b9f0:	e037883a 	mov	sp,fp
 200b9f4:	dfc00117 	ldw	ra,4(sp)
 200b9f8:	df000017 	ldw	fp,0(sp)
 200b9fc:	dec00204 	addi	sp,sp,8
 200ba00:	f800283a 	ret

0200ba04 <alt_find_file>:
 * either '/' or '\0' is the prefix of the filename. For example the filename:
 * "/myfilesystem/junk.txt" would match: "/myfilesystem", but not: "/myfile". 
 */
 
alt_dev* alt_find_file (const char* name)
{
 200ba04:	defffb04 	addi	sp,sp,-20
 200ba08:	dfc00415 	stw	ra,16(sp)
 200ba0c:	df000315 	stw	fp,12(sp)
 200ba10:	df000304 	addi	fp,sp,12
 200ba14:	e13fff15 	stw	r4,-4(fp)
  alt_dev* next = (alt_dev*) alt_fs_list.next;   
 200ba18:	008080f4 	movhi	r2,515
 200ba1c:	10a02a04 	addi	r2,r2,-32600
 200ba20:	10800017 	ldw	r2,0(r2)
 200ba24:	e0bffd15 	stw	r2,-12(fp)
  /*
   * Check each list entry in turn, until a match is found, or we reach the
   * end of the list (i.e. next winds up pointing back to the list head).
   */ 
 
  while (next != (alt_dev*) &alt_fs_list)
 200ba28:	00003106 	br	200baf0 <alt_find_file+0xec>
  {
    len = strlen(next->name);
 200ba2c:	e0bffd17 	ldw	r2,-12(fp)
 200ba30:	10800217 	ldw	r2,8(r2)
 200ba34:	1009883a 	mov	r4,r2
 200ba38:	200907c0 	call	200907c <strlen>
 200ba3c:	e0bffe15 	stw	r2,-8(fp)
    
    if (next->name[len-1] == '/')
 200ba40:	e0bffd17 	ldw	r2,-12(fp)
 200ba44:	10c00217 	ldw	r3,8(r2)
 200ba48:	e0bffe17 	ldw	r2,-8(fp)
 200ba4c:	10bfffc4 	addi	r2,r2,-1
 200ba50:	1885883a 	add	r2,r3,r2
 200ba54:	10800003 	ldbu	r2,0(r2)
 200ba58:	10803fcc 	andi	r2,r2,255
 200ba5c:	1080201c 	xori	r2,r2,128
 200ba60:	10bfe004 	addi	r2,r2,-128
 200ba64:	10800bd8 	cmpnei	r2,r2,47
 200ba68:	1000031e 	bne	r2,zero,200ba78 <alt_find_file+0x74>
    {
      len -= 1;
 200ba6c:	e0bffe17 	ldw	r2,-8(fp)
 200ba70:	10bfffc4 	addi	r2,r2,-1
 200ba74:	e0bffe15 	stw	r2,-8(fp)
    }

    if (((name[len] == '/') || (name[len] == '\0')) && 
 200ba78:	e0bffe17 	ldw	r2,-8(fp)
 200ba7c:	e0ffff17 	ldw	r3,-4(fp)
 200ba80:	1885883a 	add	r2,r3,r2
 200ba84:	10800003 	ldbu	r2,0(r2)
 200ba88:	10803fcc 	andi	r2,r2,255
 200ba8c:	1080201c 	xori	r2,r2,128
 200ba90:	10bfe004 	addi	r2,r2,-128
 200ba94:	10800be0 	cmpeqi	r2,r2,47
 200ba98:	1000081e 	bne	r2,zero,200babc <alt_find_file+0xb8>
 200ba9c:	e0bffe17 	ldw	r2,-8(fp)
 200baa0:	e0ffff17 	ldw	r3,-4(fp)
 200baa4:	1885883a 	add	r2,r3,r2
 200baa8:	10800003 	ldbu	r2,0(r2)
 200baac:	10803fcc 	andi	r2,r2,255
 200bab0:	1080201c 	xori	r2,r2,128
 200bab4:	10bfe004 	addi	r2,r2,-128
 200bab8:	10000a1e 	bne	r2,zero,200bae4 <alt_find_file+0xe0>
        !memcmp (next->name, name, len))
 200babc:	e0bffd17 	ldw	r2,-12(fp)
 200bac0:	10c00217 	ldw	r3,8(r2)
 200bac4:	e0bffe17 	ldw	r2,-8(fp)
 200bac8:	1809883a 	mov	r4,r3
 200bacc:	e17fff17 	ldw	r5,-4(fp)
 200bad0:	100d883a 	mov	r6,r2
 200bad4:	200bc780 	call	200bc78 <memcmp>
    if (next->name[len-1] == '/')
    {
      len -= 1;
    }

    if (((name[len] == '/') || (name[len] == '\0')) && 
 200bad8:	1000021e 	bne	r2,zero,200bae4 <alt_find_file+0xe0>
        !memcmp (next->name, name, len))
    {
      /* match found */

      return next;
 200badc:	e0bffd17 	ldw	r2,-12(fp)
 200bae0:	00000806 	br	200bb04 <alt_find_file+0x100>
    }
    next = (alt_dev*) next->llist.next;
 200bae4:	e0bffd17 	ldw	r2,-12(fp)
 200bae8:	10800017 	ldw	r2,0(r2)
 200baec:	e0bffd15 	stw	r2,-12(fp)
  /*
   * Check each list entry in turn, until a match is found, or we reach the
   * end of the list (i.e. next winds up pointing back to the list head).
   */ 
 
  while (next != (alt_dev*) &alt_fs_list)
 200baf0:	e0fffd17 	ldw	r3,-12(fp)
 200baf4:	008080f4 	movhi	r2,515
 200baf8:	10a02a04 	addi	r2,r2,-32600
 200bafc:	18bfcb1e 	bne	r3,r2,200ba2c <__alt_mem_pic_mem+0xfe007a2c>
    next = (alt_dev*) next->llist.next;
  }
  
  /* No match found */
  
  return NULL;     
 200bb00:	0005883a 	mov	r2,zero
}
 200bb04:	e037883a 	mov	sp,fp
 200bb08:	dfc00117 	ldw	ra,4(sp)
 200bb0c:	df000017 	ldw	fp,0(sp)
 200bb10:	dec00204 	addi	sp,sp,8
 200bb14:	f800283a 	ret

0200bb18 <alt_get_fd>:
 * the offset of the file descriptor within the file descriptor array). A
 * negative value indicates failure.
 */

int alt_get_fd (alt_dev* dev)
{
 200bb18:	defffc04 	addi	sp,sp,-16
 200bb1c:	df000315 	stw	fp,12(sp)
 200bb20:	df000304 	addi	fp,sp,12
 200bb24:	e13fff15 	stw	r4,-4(fp)
  alt_32 i;
  int rc = -EMFILE;
 200bb28:	00bffa04 	movi	r2,-24
 200bb2c:	e0bffe15 	stw	r2,-8(fp)
   * indicates the highest file descriptor ever allocated. This is used to
   * improve efficency when searching the file descriptor list, and 
   * therefore reduce contention on the alt_fd_list_lock semaphore. 
   */

  for (i = 0; i < ALT_MAX_FD; i++)
 200bb30:	e03ffd15 	stw	zero,-12(fp)
 200bb34:	00001d06 	br	200bbac <alt_get_fd+0x94>
  {
    if (!alt_fd_list[i].dev)
 200bb38:	008080b4 	movhi	r2,514
 200bb3c:	109fbf04 	addi	r2,r2,32508
 200bb40:	e0fffd17 	ldw	r3,-12(fp)
 200bb44:	18c00324 	muli	r3,r3,12
 200bb48:	10c5883a 	add	r2,r2,r3
 200bb4c:	10800017 	ldw	r2,0(r2)
 200bb50:	1000131e 	bne	r2,zero,200bba0 <alt_get_fd+0x88>
    {
      alt_fd_list[i].dev = dev;
 200bb54:	008080b4 	movhi	r2,514
 200bb58:	109fbf04 	addi	r2,r2,32508
 200bb5c:	e0fffd17 	ldw	r3,-12(fp)
 200bb60:	18c00324 	muli	r3,r3,12
 200bb64:	10c5883a 	add	r2,r2,r3
 200bb68:	e0ffff17 	ldw	r3,-4(fp)
 200bb6c:	10c00015 	stw	r3,0(r2)
      if (i > alt_max_fd)
 200bb70:	008080f4 	movhi	r2,515
 200bb74:	10a02e04 	addi	r2,r2,-32584
 200bb78:	10c00017 	ldw	r3,0(r2)
 200bb7c:	e0bffd17 	ldw	r2,-12(fp)
 200bb80:	1880040e 	bge	r3,r2,200bb94 <alt_get_fd+0x7c>
      {
        alt_max_fd = i;
 200bb84:	008080f4 	movhi	r2,515
 200bb88:	10a02e04 	addi	r2,r2,-32584
 200bb8c:	e0fffd17 	ldw	r3,-12(fp)
 200bb90:	10c00015 	stw	r3,0(r2)
      }
      rc = i;
 200bb94:	e0bffd17 	ldw	r2,-12(fp)
 200bb98:	e0bffe15 	stw	r2,-8(fp)
      goto alt_get_fd_exit;
 200bb9c:	00000606 	br	200bbb8 <alt_get_fd+0xa0>
   * indicates the highest file descriptor ever allocated. This is used to
   * improve efficency when searching the file descriptor list, and 
   * therefore reduce contention on the alt_fd_list_lock semaphore. 
   */

  for (i = 0; i < ALT_MAX_FD; i++)
 200bba0:	e0bffd17 	ldw	r2,-12(fp)
 200bba4:	10800044 	addi	r2,r2,1
 200bba8:	e0bffd15 	stw	r2,-12(fp)
 200bbac:	e0bffd17 	ldw	r2,-12(fp)
 200bbb0:	10800810 	cmplti	r2,r2,32
 200bbb4:	103fe01e 	bne	r2,zero,200bb38 <__alt_mem_pic_mem+0xfe007b38>
   * file descriptor pool.
   */

  ALT_SEM_POST(alt_fd_list_lock);

  return rc;
 200bbb8:	e0bffe17 	ldw	r2,-8(fp)
}
 200bbbc:	e037883a 	mov	sp,fp
 200bbc0:	df000017 	ldw	fp,0(sp)
 200bbc4:	dec00104 	addi	sp,sp,4
 200bbc8:	f800283a 	ret

0200bbcc <alt_icache_flush>:
 * alt_icache_flush() is called to flush the instruction cache for a memory
 * region of length "len" bytes, starting at address "start".
 */

void alt_icache_flush (void* start, alt_u32 len)
{
 200bbcc:	defffb04 	addi	sp,sp,-20
 200bbd0:	df000415 	stw	fp,16(sp)
 200bbd4:	df000404 	addi	fp,sp,16
 200bbd8:	e13ffe15 	stw	r4,-8(fp)
 200bbdc:	e17fff15 	stw	r5,-4(fp)

  /*
   * This is the most we would ever need to flush.
   */
 
  if (len > NIOS2_ICACHE_SIZE)
 200bbe0:	e0bfff17 	ldw	r2,-4(fp)
 200bbe4:	10840070 	cmpltui	r2,r2,4097
 200bbe8:	1000021e 	bne	r2,zero,200bbf4 <alt_icache_flush+0x28>
  {
    len = NIOS2_ICACHE_SIZE;
 200bbec:	00840004 	movi	r2,4096
 200bbf0:	e0bfff15 	stw	r2,-4(fp)
  }

  end = ((char*) start) + len;
 200bbf4:	e0fffe17 	ldw	r3,-8(fp)
 200bbf8:	e0bfff17 	ldw	r2,-4(fp)
 200bbfc:	1885883a 	add	r2,r3,r2
 200bc00:	e0bffd15 	stw	r2,-12(fp)

  for (i = start; i < end; i+= NIOS2_ICACHE_LINE_SIZE)
 200bc04:	e0bffe17 	ldw	r2,-8(fp)
 200bc08:	e0bffc15 	stw	r2,-16(fp)
 200bc0c:	00000506 	br	200bc24 <alt_icache_flush+0x58>
  { 
    __asm__ volatile ("flushi %0" :: "r" (i)); 
 200bc10:	e0bffc17 	ldw	r2,-16(fp)
 200bc14:	1000603a 	flushi	r2
    len = NIOS2_ICACHE_SIZE;
  }

  end = ((char*) start) + len;

  for (i = start; i < end; i+= NIOS2_ICACHE_LINE_SIZE)
 200bc18:	e0bffc17 	ldw	r2,-16(fp)
 200bc1c:	10800804 	addi	r2,r2,32
 200bc20:	e0bffc15 	stw	r2,-16(fp)
 200bc24:	e0fffc17 	ldw	r3,-16(fp)
 200bc28:	e0bffd17 	ldw	r2,-12(fp)
 200bc2c:	18bff836 	bltu	r3,r2,200bc10 <__alt_mem_pic_mem+0xfe007c10>
   * For an unaligned flush request, we've got one more line left.
   * Note that this is dependent on NIOS2_ICACHE_LINE_SIZE to be a 
   * multiple of 2 (which it always is).
   */

  if (((alt_u32) start) & (NIOS2_ICACHE_LINE_SIZE - 1))
 200bc30:	e0bffe17 	ldw	r2,-8(fp)
 200bc34:	108007cc 	andi	r2,r2,31
 200bc38:	10000226 	beq	r2,zero,200bc44 <alt_icache_flush+0x78>
  {
    __asm__ volatile ("flushi %0" :: "r" (i));
 200bc3c:	e0bffc17 	ldw	r2,-16(fp)
 200bc40:	1000603a 	flushi	r2
  /* 
   * Having flushed the cache, flush any stale instructions in the 
   * pipeline 
   */

  __asm__ volatile ("flushp");
 200bc44:	0000203a 	flushp

#endif /* NIOS2_ICACHE_SIZE > 0 */
}
 200bc48:	e037883a 	mov	sp,fp
 200bc4c:	df000017 	ldw	fp,0(sp)
 200bc50:	dec00104 	addi	sp,sp,4
 200bc54:	f800283a 	ret

0200bc58 <exit>:
 200bc58:	defffe04 	addi	sp,sp,-8
 200bc5c:	000b883a 	mov	r5,zero
 200bc60:	dc000015 	stw	r16,0(sp)
 200bc64:	dfc00115 	stw	ra,4(sp)
 200bc68:	2021883a 	mov	r16,r4
 200bc6c:	200bca80 	call	200bca8 <__call_exitprocs>
 200bc70:	8009883a 	mov	r4,r16
 200bc74:	200be440 	call	200be44 <_exit>

0200bc78 <memcmp>:
 200bc78:	218d883a 	add	r6,r4,r6
 200bc7c:	21800826 	beq	r4,r6,200bca0 <memcmp+0x28>
 200bc80:	20800003 	ldbu	r2,0(r4)
 200bc84:	28c00003 	ldbu	r3,0(r5)
 200bc88:	10c00226 	beq	r2,r3,200bc94 <memcmp+0x1c>
 200bc8c:	10c5c83a 	sub	r2,r2,r3
 200bc90:	f800283a 	ret
 200bc94:	21000044 	addi	r4,r4,1
 200bc98:	29400044 	addi	r5,r5,1
 200bc9c:	003ff706 	br	200bc7c <__alt_mem_pic_mem+0xfe007c7c>
 200bca0:	0005883a 	mov	r2,zero
 200bca4:	f800283a 	ret

0200bca8 <__call_exitprocs>:
 200bca8:	008080f4 	movhi	r2,515
 200bcac:	10a02204 	addi	r2,r2,-32632
 200bcb0:	10800017 	ldw	r2,0(r2)
 200bcb4:	defff304 	addi	sp,sp,-52
 200bcb8:	ddc00a15 	stw	r23,40(sp)
 200bcbc:	d8800015 	stw	r2,0(sp)
 200bcc0:	05c08074 	movhi	r23,513
 200bcc4:	10800c04 	addi	r2,r2,48
 200bcc8:	dc800515 	stw	r18,20(sp)
 200bccc:	dfc00c15 	stw	ra,48(sp)
 200bcd0:	df000b15 	stw	fp,44(sp)
 200bcd4:	dd800915 	stw	r22,36(sp)
 200bcd8:	dd400815 	stw	r21,32(sp)
 200bcdc:	dd000715 	stw	r20,28(sp)
 200bce0:	dcc00615 	stw	r19,24(sp)
 200bce4:	dc400415 	stw	r17,16(sp)
 200bce8:	dc000315 	stw	r16,12(sp)
 200bcec:	d9000115 	stw	r4,4(sp)
 200bcf0:	2825883a 	mov	r18,r5
 200bcf4:	d8800215 	stw	r2,8(sp)
 200bcf8:	bde1ca04 	addi	r23,r23,-30936
 200bcfc:	d8800017 	ldw	r2,0(sp)
 200bd00:	dc400217 	ldw	r17,8(sp)
 200bd04:	14c00c17 	ldw	r19,48(r2)
 200bd08:	98004226 	beq	r19,zero,200be14 <__call_exitprocs+0x16c>
 200bd0c:	9c000117 	ldw	r16,4(r19)
 200bd10:	00900034 	movhi	r2,16384
 200bd14:	10bfffc4 	addi	r2,r2,-1
 200bd18:	9d002217 	ldw	r20,136(r19)
 200bd1c:	857fffc4 	addi	r21,r16,-1
 200bd20:	80a1883a 	add	r16,r16,r2
 200bd24:	8421883a 	add	r16,r16,r16
 200bd28:	8421883a 	add	r16,r16,r16
 200bd2c:	a42d883a 	add	r22,r20,r16
 200bd30:	84000204 	addi	r16,r16,8
 200bd34:	9c21883a 	add	r16,r19,r16
 200bd38:	a8002616 	blt	r21,zero,200bdd4 <__call_exitprocs+0x12c>
 200bd3c:	90000326 	beq	r18,zero,200bd4c <__call_exitprocs+0xa4>
 200bd40:	a0002026 	beq	r20,zero,200bdc4 <__call_exitprocs+0x11c>
 200bd44:	b1002017 	ldw	r4,128(r22)
 200bd48:	24801e1e 	bne	r4,r18,200bdc4 <__call_exitprocs+0x11c>
 200bd4c:	99000117 	ldw	r4,4(r19)
 200bd50:	82000017 	ldw	r8,0(r16)
 200bd54:	213fffc4 	addi	r4,r4,-1
 200bd58:	a900021e 	bne	r21,r4,200bd64 <__call_exitprocs+0xbc>
 200bd5c:	9d400115 	stw	r21,4(r19)
 200bd60:	00000106 	br	200bd68 <__call_exitprocs+0xc0>
 200bd64:	80000015 	stw	zero,0(r16)
 200bd68:	40001626 	beq	r8,zero,200bdc4 <__call_exitprocs+0x11c>
 200bd6c:	9f000117 	ldw	fp,4(r19)
 200bd70:	a0000526 	beq	r20,zero,200bd88 <__call_exitprocs+0xe0>
 200bd74:	00800044 	movi	r2,1
 200bd78:	1552983a 	sll	r9,r2,r21
 200bd7c:	a1404017 	ldw	r5,256(r20)
 200bd80:	494a703a 	and	r5,r9,r5
 200bd84:	2800021e 	bne	r5,zero,200bd90 <__call_exitprocs+0xe8>
 200bd88:	403ee83a 	callr	r8
 200bd8c:	00000906 	br	200bdb4 <__call_exitprocs+0x10c>
 200bd90:	a1004117 	ldw	r4,260(r20)
 200bd94:	4908703a 	and	r4,r9,r4
 200bd98:	2000041e 	bne	r4,zero,200bdac <__call_exitprocs+0x104>
 200bd9c:	d9000117 	ldw	r4,4(sp)
 200bda0:	b1400017 	ldw	r5,0(r22)
 200bda4:	403ee83a 	callr	r8
 200bda8:	00000206 	br	200bdb4 <__call_exitprocs+0x10c>
 200bdac:	b1000017 	ldw	r4,0(r22)
 200bdb0:	403ee83a 	callr	r8
 200bdb4:	99000117 	ldw	r4,4(r19)
 200bdb8:	e13fd01e 	bne	fp,r4,200bcfc <__alt_mem_pic_mem+0xfe007cfc>
 200bdbc:	89000017 	ldw	r4,0(r17)
 200bdc0:	24ffce1e 	bne	r4,r19,200bcfc <__alt_mem_pic_mem+0xfe007cfc>
 200bdc4:	ad7fffc4 	addi	r21,r21,-1
 200bdc8:	b5bfff04 	addi	r22,r22,-4
 200bdcc:	843fff04 	addi	r16,r16,-4
 200bdd0:	003fd906 	br	200bd38 <__alt_mem_pic_mem+0xfe007d38>
 200bdd4:	b8000f26 	beq	r23,zero,200be14 <__call_exitprocs+0x16c>
 200bdd8:	99000117 	ldw	r4,4(r19)
 200bddc:	20000a1e 	bne	r4,zero,200be08 <__call_exitprocs+0x160>
 200bde0:	99000017 	ldw	r4,0(r19)
 200bde4:	20000826 	beq	r4,zero,200be08 <__call_exitprocs+0x160>
 200bde8:	89000015 	stw	r4,0(r17)
 200bdec:	a0000226 	beq	r20,zero,200bdf8 <__call_exitprocs+0x150>
 200bdf0:	a009883a 	mov	r4,r20
 200bdf4:	20087280 	call	2008728 <free>
 200bdf8:	9809883a 	mov	r4,r19
 200bdfc:	20087280 	call	2008728 <free>
 200be00:	8cc00017 	ldw	r19,0(r17)
 200be04:	003fc006 	br	200bd08 <__alt_mem_pic_mem+0xfe007d08>
 200be08:	9823883a 	mov	r17,r19
 200be0c:	9cc00017 	ldw	r19,0(r19)
 200be10:	003fbd06 	br	200bd08 <__alt_mem_pic_mem+0xfe007d08>
 200be14:	dfc00c17 	ldw	ra,48(sp)
 200be18:	df000b17 	ldw	fp,44(sp)
 200be1c:	ddc00a17 	ldw	r23,40(sp)
 200be20:	dd800917 	ldw	r22,36(sp)
 200be24:	dd400817 	ldw	r21,32(sp)
 200be28:	dd000717 	ldw	r20,28(sp)
 200be2c:	dcc00617 	ldw	r19,24(sp)
 200be30:	dc800517 	ldw	r18,20(sp)
 200be34:	dc400417 	ldw	r17,16(sp)
 200be38:	dc000317 	ldw	r16,12(sp)
 200be3c:	dec00d04 	addi	sp,sp,52
 200be40:	f800283a 	ret

0200be44 <_exit>:
 *
 * ALT_EXIT is mapped onto the _exit() system call in alt_syscall.h
 */

void ALT_EXIT (int exit_code)
{
 200be44:	defffd04 	addi	sp,sp,-12
 200be48:	df000215 	stw	fp,8(sp)
 200be4c:	df000204 	addi	fp,sp,8
 200be50:	e13fff15 	stw	r4,-4(fp)
  ALT_LOG_PRINT_BOOT("[alt_exit.c] Entering _exit() function.\r\n");
  ALT_LOG_PRINT_BOOT("[alt_exit.c] Exit code from main was %d.\r\n",exit_code);
  /* Stop all other threads */

  ALT_LOG_PRINT_BOOT("[alt_exit.c] Calling ALT_OS_STOP().\r\n");
  ALT_OS_STOP();
 200be54:	0001883a 	nop
 200be58:	e0bfff17 	ldw	r2,-4(fp)
 200be5c:	e0bffe15 	stw	r2,-8(fp)
/*
 * Routine called on exit.
 */
static ALT_INLINE ALT_ALWAYS_INLINE void alt_sim_halt(int exit_code)
{
  register int r2 asm ("r2") = exit_code;
 200be60:	e0bffe17 	ldw	r2,-8(fp)
  __asm__ volatile ("\n0:\n\taddi %0,%0, -1\n\tbgt %0,zero,0b" : : "r" (ALT_CPU_FREQ/100) ); /* Delay for >30ms */

  __asm__ volatile ("break 2" : : "r"(r2), "r"(r3) ALT_GMON_DATA );

#else /* !DEBUG_STUB */
  if (r2) {
 200be64:	10000226 	beq	r2,zero,200be70 <_exit+0x2c>
    ALT_SIM_FAIL();
 200be68:	002af070 	cmpltui	zero,zero,43969
 200be6c:	00000106 	br	200be74 <_exit+0x30>
  } else {
    ALT_SIM_PASS();
 200be70:	002af0b0 	cmpltui	zero,zero,43970
  ALT_SIM_HALT(exit_code);

  /* spin forever, since there's no where to go back to */

  ALT_LOG_PRINT_BOOT("[alt_exit.c] Spinning forever.\r\n");
  while (1);
 200be74:	003fff06 	br	200be74 <__alt_mem_pic_mem+0xfe007e74>
