
LT24_SW.elf:     file format elf32-littlenios2
LT24_SW.elf
architecture: nios2:r1, flags 0x00000112:
EXEC_P, HAS_SYMS, D_PAGED
start address 0x020001bc

Program Header:
    LOAD off    0x00001000 vaddr 0x02000000 paddr 0x02000000 align 2**12
         filesz 0x00000020 memsz 0x00000020 flags r-x
    LOAD off    0x00001020 vaddr 0x02000020 paddr 0x02000020 align 2**12
         filesz 0x00025df4 memsz 0x00025df4 flags r-x
    LOAD off    0x00026e14 vaddr 0x02025e14 paddr 0x020280c0 align 2**12
         filesz 0x000022ac memsz 0x000022ac flags rw-
    LOAD off    0x0002936c vaddr 0x0202a36c paddr 0x0202a36c align 2**12
         filesz 0x00000000 memsz 0x00000154 flags rw-

Sections:
Idx Name          Size      VMA       LMA       File off  Algn
  0 .entry        00000020  02000000  02000000  00001000  2**5
                  CONTENTS, ALLOC, LOAD, READONLY, CODE
  1 .exceptions   0000019c  02000020  02000020  00001020  2**2
                  CONTENTS, ALLOC, LOAD, READONLY, CODE
  2 .text         0000bcbc  020001bc  020001bc  000011bc  2**2
                  CONTENTS, ALLOC, LOAD, READONLY, CODE
  3 .rodata       00019f9c  0200be78  0200be78  0000ce78  2**2
                  CONTENTS, ALLOC, LOAD, READONLY, DATA
  4 .rwdata       000022ac  02025e14  020280c0  00026e14  2**2
                  CONTENTS, ALLOC, LOAD, DATA, SMALL_DATA
  5 .bss          00000154  0202a36c  0202a36c  0002936c  2**2
                  ALLOC, SMALL_DATA
  6 .SDRAM        00000000  0202a4c0  0202a4c0  000290c0  2**0
                  CONTENTS
  7 .background_mem 00000000  04000000  04000000  000290c0  2**0
                  CONTENTS
  8 .pic_mem      00000000  04004000  04004000  000290c0  2**0
                  CONTENTS
  9 .comment      00000023  00000000  00000000  000290c0  2**0
                  CONTENTS, READONLY
 10 .debug_aranges 00000a90  00000000  00000000  000290e8  2**3
                  CONTENTS, READONLY, DEBUGGING
 11 .debug_info   00013366  00000000  00000000  00029b78  2**0
                  CONTENTS, READONLY, DEBUGGING
 12 .debug_abbrev 000058f8  00000000  00000000  0003cede  2**0
                  CONTENTS, READONLY, DEBUGGING
 13 .debug_line   00007194  00000000  00000000  000427d6  2**0
                  CONTENTS, READONLY, DEBUGGING
 14 .debug_frame  00001ee0  00000000  00000000  0004996c  2**2
                  CONTENTS, READONLY, DEBUGGING
 15 .debug_str    000040b9  00000000  00000000  0004b84c  2**0
                  CONTENTS, READONLY, DEBUGGING
 16 .debug_loc    00009250  00000000  00000000  0004f905  2**0
                  CONTENTS, READONLY, DEBUGGING
 17 .debug_alt_sim_info 00000060  00000000  00000000  00058b58  2**2
                  CONTENTS, READONLY, DEBUGGING
 18 .debug_ranges 00000b00  00000000  00000000  00058bb8  2**3
                  CONTENTS, READONLY, DEBUGGING
 19 .thread_model 00000003  00000000  00000000  0005de0b  2**0
                  CONTENTS, READONLY
 20 .cpu          00000003  00000000  00000000  0005de0e  2**0
                  CONTENTS, READONLY
 21 .qsys         00000001  00000000  00000000  0005de11  2**0
                  CONTENTS, READONLY
 22 .simulation_enabled 00000001  00000000  00000000  0005de12  2**0
                  CONTENTS, READONLY
 23 .stderr_dev   00000009  00000000  00000000  0005de13  2**0
                  CONTENTS, READONLY
 24 .stdin_dev    00000009  00000000  00000000  0005de1c  2**0
                  CONTENTS, READONLY
 25 .stdout_dev   00000009  00000000  00000000  0005de25  2**0
                  CONTENTS, READONLY
 26 .sopc_system_name 0000000d  00000000  00000000  0005de2e  2**0
                  CONTENTS, READONLY
 27 .quartus_project_dir 00000017  00000000  00000000  0005de3b  2**0
                  CONTENTS, READONLY
 28 .jdi          0000436e  00000000  00000000  0005de52  2**0
                  CONTENTS, READONLY
 29 .sopcinfo     0008c7a2  00000000  00000000  000621c0  2**0
                  CONTENTS, READONLY
SYMBOL TABLE:
02000000 l    d  .entry	00000000 .entry
02000020 l    d  .exceptions	00000000 .exceptions
020001bc l    d  .text	00000000 .text
0200be78 l    d  .rodata	00000000 .rodata
02025e14 l    d  .rwdata	00000000 .rwdata
0202a36c l    d  .bss	00000000 .bss
0202a4c0 l    d  .SDRAM	00000000 .SDRAM
04000000 l    d  .background_mem	00000000 .background_mem
04004000 l    d  .pic_mem	00000000 .pic_mem
00000000 l    d  .comment	00000000 .comment
00000000 l    d  .debug_aranges	00000000 .debug_aranges
00000000 l    d  .debug_info	00000000 .debug_info
00000000 l    d  .debug_abbrev	00000000 .debug_abbrev
00000000 l    d  .debug_line	00000000 .debug_line
00000000 l    d  .debug_frame	00000000 .debug_frame
00000000 l    d  .debug_str	00000000 .debug_str
00000000 l    d  .debug_loc	00000000 .debug_loc
00000000 l    d  .debug_alt_sim_info	00000000 .debug_alt_sim_info
00000000 l    d  .debug_ranges	00000000 .debug_ranges
00000000 l    df *ABS*	00000000 ../LT24_SW_bsp//obj/HAL/src/crt0.o
02000204 l       .text	00000000 alt_after_alt_main
00000000 l    df *ABS*	00000000 alt_exception_entry.o
02000094 l       .exceptions	00000000 alt_exception_unknown
00000000 l    df *ABS*	00000000 alt_irq_handler.c
00000000 l    df *ABS*	00000000 gui.c
0202a36c l     O .bss	00000004 x.3893
0202807c l     O .rwdata	00000004 y.3894
00000000 l    df *ABS*	00000000 gui_vpg.c
00000000 l    df *ABS*	00000000 tahomabold_20.c
0200bed8 l     O .rodata	000000b6 tahomabold_20_33
0200bf8e l     O .rodata	00000104 tahomabold_20_34
0200c092 l     O .rodata	000001a0 tahomabold_20_35
0200c232 l     O .rodata	00000152 tahomabold_20_36
0200c384 l     O .rodata	00000270 tahomabold_20_37
0200c5f4 l     O .rodata	000001ba tahomabold_20_38
0200c7ae l     O .rodata	0000009c tahomabold_20_39
0200c84a l     O .rodata	000000ea tahomabold_20_40
0200c934 l     O .rodata	000000ea tahomabold_20_41
0200ca1e l     O .rodata	00000152 tahomabold_20_42
0200cb70 l     O .rodata	000001a0 tahomabold_20_43
0200cd10 l     O .rodata	0000009c tahomabold_20_44
0200cdac l     O .rodata	000000ea tahomabold_20_45
0200ce96 l     O .rodata	0000009c tahomabold_20_46
0200cf32 l     O .rodata	00000138 tahomabold_20_47
0200d06a l     O .rodata	00000152 tahomabold_20_48
0200d1bc l     O .rodata	00000152 tahomabold_20_49
0200d30e l     O .rodata	00000152 tahomabold_20_50
0200d460 l     O .rodata	00000152 tahomabold_20_51
0200d5b2 l     O .rodata	00000152 tahomabold_20_52
0200d704 l     O .rodata	00000152 tahomabold_20_53
0200d856 l     O .rodata	00000152 tahomabold_20_54
0200d9a8 l     O .rodata	00000152 tahomabold_20_55
0200dafa l     O .rodata	00000152 tahomabold_20_56
0200dc4c l     O .rodata	00000152 tahomabold_20_57
0200dd9e l     O .rodata	000000b6 tahomabold_20_58
0200de54 l     O .rodata	000000b6 tahomabold_20_59
0200df0a l     O .rodata	000001a0 tahomabold_20_60
0200e0aa l     O .rodata	000001a0 tahomabold_20_61
0200e24a l     O .rodata	000001a0 tahomabold_20_62
0200e3ea l     O .rodata	0000011e tahomabold_20_63
0200e508 l     O .rodata	000001d4 tahomabold_20_64
0200e6dc l     O .rodata	0000016c tahomabold_20_65
0200e848 l     O .rodata	0000016c tahomabold_20_66
0200e9b4 l     O .rodata	00000152 tahomabold_20_67
0200eb06 l     O .rodata	00000186 tahomabold_20_68
0200ec8c l     O .rodata	00000138 tahomabold_20_69
0200edc4 l     O .rodata	00000138 tahomabold_20_70
0200eefc l     O .rodata	00000186 tahomabold_20_71
0200f082 l     O .rodata	00000186 tahomabold_20_72
0200f208 l     O .rodata	00000104 tahomabold_20_73
0200f30c l     O .rodata	00000104 tahomabold_20_74
0200f410 l     O .rodata	0000016c tahomabold_20_75
0200f57c l     O .rodata	0000011e tahomabold_20_76
0200f69a l     O .rodata	000001d4 tahomabold_20_77
0200f86e l     O .rodata	00000186 tahomabold_20_78
0200f9f4 l     O .rodata	00000186 tahomabold_20_79
0200fb7a l     O .rodata	00000152 tahomabold_20_80
0200fccc l     O .rodata	00000186 tahomabold_20_81
0200fe52 l     O .rodata	00000186 tahomabold_20_82
0200ffd8 l     O .rodata	00000152 tahomabold_20_83
0201012a l     O .rodata	00000138 tahomabold_20_84
02010262 l     O .rodata	00000186 tahomabold_20_85
020103e8 l     O .rodata	0000016c tahomabold_20_86
02010554 l     O .rodata	00000222 tahomabold_20_87
02010776 l     O .rodata	0000016c tahomabold_20_88
020108e2 l     O .rodata	0000016c tahomabold_20_89
02010a4e l     O .rodata	00000138 tahomabold_20_90
02010b86 l     O .rodata	000000ea tahomabold_20_91
02010c70 l     O .rodata	00000138 tahomabold_20_92
02010da8 l     O .rodata	000000ea tahomabold_20_93
02010e92 l     O .rodata	000001a0 tahomabold_20_94
02011032 l     O .rodata	00000152 tahomabold_20_95
02011184 l     O .rodata	0000011e tahomabold_20_96
020112a2 l     O .rodata	00000138 tahomabold_20_97
020113da l     O .rodata	00000152 tahomabold_20_98
0201152c l     O .rodata	0000011e tahomabold_20_99
0201164a l     O .rodata	00000152 tahomabold_20_100
0201179c l     O .rodata	00000138 tahomabold_20_101
020118d4 l     O .rodata	000000d0 tahomabold_20_102
020119a4 l     O .rodata	00000152 tahomabold_20_103
02011af6 l     O .rodata	00000152 tahomabold_20_104
02011c48 l     O .rodata	0000009c tahomabold_20_105
02011ce4 l     O .rodata	000000ea tahomabold_20_106
02011dce l     O .rodata	00000138 tahomabold_20_107
02011f06 l     O .rodata	0000009c tahomabold_20_108
02011fa2 l     O .rodata	000001ee tahomabold_20_109
02012190 l     O .rodata	00000152 tahomabold_20_110
020122e2 l     O .rodata	00000138 tahomabold_20_111
0201241a l     O .rodata	00000152 tahomabold_20_112
0201256c l     O .rodata	00000152 tahomabold_20_113
020126be l     O .rodata	000000ea tahomabold_20_114
020127a8 l     O .rodata	00000104 tahomabold_20_115
020128ac l     O .rodata	000000d0 tahomabold_20_116
0201297c l     O .rodata	00000152 tahomabold_20_117
02012ace l     O .rodata	00000138 tahomabold_20_118
02012c06 l     O .rodata	000001d4 tahomabold_20_119
02012dda l     O .rodata	00000138 tahomabold_20_120
02012f12 l     O .rodata	00000138 tahomabold_20_121
0201304a l     O .rodata	0000011e tahomabold_20_122
02013168 l     O .rodata	00000138 tahomabold_20_123
020132a0 l     O .rodata	00000152 tahomabold_20_124
020133f2 l     O .rodata	00000138 tahomabold_20_125
0201352a l     O .rodata	000001a0 tahomabold_20_126
00000000 l    df *ABS*	00000000 tahomabold_32.c
020136ca l     O .rodata	000001b8 tahomabold_32_33
02013882 l     O .rodata	00000280 tahomabold_32_34
02013b02 l     O .rodata	00000410 tahomabold_32_35
02013f12 l     O .rodata	00000320 tahomabold_32_36
02014232 l     O .rodata	000005f0 tahomabold_32_37
02014822 l     O .rodata	00000410 tahomabold_32_38
02014c32 l     O .rodata	00000168 tahomabold_32_39
02014d9a l     O .rodata	00000258 tahomabold_32_40
02014ff2 l     O .rodata	00000258 tahomabold_32_41
0201524a l     O .rodata	00000320 tahomabold_32_42
0201556a l     O .rodata	00000410 tahomabold_32_43
0201597a l     O .rodata	00000190 tahomabold_32_44
02015b0a l     O .rodata	00000230 tahomabold_32_45
02015d3a l     O .rodata	00000190 tahomabold_32_46
02015eca l     O .rodata	000002d0 tahomabold_32_47
0201619a l     O .rodata	00000320 tahomabold_32_48
020164ba l     O .rodata	00000320 tahomabold_32_49
020167da l     O .rodata	00000320 tahomabold_32_50
02016afa l     O .rodata	00000320 tahomabold_32_51
02016e1a l     O .rodata	00000320 tahomabold_32_52
0201713a l     O .rodata	00000320 tahomabold_32_53
0201745a l     O .rodata	00000320 tahomabold_32_54
0201777a l     O .rodata	00000320 tahomabold_32_55
02017a9a l     O .rodata	00000320 tahomabold_32_56
02017dba l     O .rodata	00000320 tahomabold_32_57
020180da l     O .rodata	000001e0 tahomabold_32_58
020182ba l     O .rodata	000001e0 tahomabold_32_59
0201849a l     O .rodata	00000410 tahomabold_32_60
020188aa l     O .rodata	00000410 tahomabold_32_61
02018cba l     O .rodata	00000410 tahomabold_32_62
020190ca l     O .rodata	000002d0 tahomabold_32_63
0201939a l     O .rodata	00000488 tahomabold_32_64
02019822 l     O .rodata	00000370 tahomabold_32_65
02019b92 l     O .rodata	00000370 tahomabold_32_66
02019f02 l     O .rodata	00000348 tahomabold_32_67
0201a24a l     O .rodata	000003c0 tahomabold_32_68
0201a60a l     O .rodata	00000320 tahomabold_32_69
0201a92a l     O .rodata	000002f8 tahomabold_32_70
0201ac22 l     O .rodata	000003c0 tahomabold_32_71
0201afe2 l     O .rodata	000003c0 tahomabold_32_72
0201b3a2 l     O .rodata	00000258 tahomabold_32_73
0201b5fa l     O .rodata	00000280 tahomabold_32_74
0201b87a l     O .rodata	00000398 tahomabold_32_75
0201bc12 l     O .rodata	000002d0 tahomabold_32_76
0201bee2 l     O .rodata	00000488 tahomabold_32_77
0201c36a l     O .rodata	000003e8 tahomabold_32_78
0201c752 l     O .rodata	000003e8 tahomabold_32_79
0201cb3a l     O .rodata	00000348 tahomabold_32_80
0201ce82 l     O .rodata	000003e8 tahomabold_32_81
0201d26a l     O .rodata	000003c0 tahomabold_32_82
0201d62a l     O .rodata	00000320 tahomabold_32_83
0201d94a l     O .rodata	00000320 tahomabold_32_84
0201dc6a l     O .rodata	000003c0 tahomabold_32_85
0201e02a l     O .rodata	00000370 tahomabold_32_86
0201e39a l     O .rodata	00000528 tahomabold_32_87
0201e8c2 l     O .rodata	00000370 tahomabold_32_88
0201ec32 l     O .rodata	00000370 tahomabold_32_89
0201efa2 l     O .rodata	00000320 tahomabold_32_90
0201f2c2 l     O .rodata	00000258 tahomabold_32_91
0201f51a l     O .rodata	000002d0 tahomabold_32_92
0201f7ea l     O .rodata	00000258 tahomabold_32_93
0201fa42 l     O .rodata	00000410 tahomabold_32_94
0201fe52 l     O .rodata	00000320 tahomabold_32_95
02020172 l     O .rodata	000002a8 tahomabold_32_96
0202041a l     O .rodata	000002f8 tahomabold_32_97
02020712 l     O .rodata	00000320 tahomabold_32_98
02020a32 l     O .rodata	000002a8 tahomabold_32_99
02020cda l     O .rodata	00000320 tahomabold_32_100
02020ffa l     O .rodata	000002f8 tahomabold_32_101
020212f2 l     O .rodata	00000230 tahomabold_32_102
02021522 l     O .rodata	00000320 tahomabold_32_103
02021842 l     O .rodata	00000320 tahomabold_32_104
02021b62 l     O .rodata	00000190 tahomabold_32_105
02021cf2 l     O .rodata	00000208 tahomabold_32_106
02021efa l     O .rodata	000002f8 tahomabold_32_107
020221f2 l     O .rodata	00000190 tahomabold_32_108
02022382 l     O .rodata	000004d8 tahomabold_32_109
0202285a l     O .rodata	00000320 tahomabold_32_110
02022b7a l     O .rodata	00000320 tahomabold_32_111
02022e9a l     O .rodata	00000320 tahomabold_32_112
020231ba l     O .rodata	00000320 tahomabold_32_113
020234da l     O .rodata	00000230 tahomabold_32_114
0202370a l     O .rodata	00000280 tahomabold_32_115
0202398a l     O .rodata	00000208 tahomabold_32_116
02023b92 l     O .rodata	00000320 tahomabold_32_117
02023eb2 l     O .rodata	000002f8 tahomabold_32_118
020241aa l     O .rodata	00000460 tahomabold_32_119
0202460a l     O .rodata	000002f8 tahomabold_32_120
02024902 l     O .rodata	000002d0 tahomabold_32_121
02024bd2 l     O .rodata	000002a8 tahomabold_32_122
02024e7a l     O .rodata	00000320 tahomabold_32_123
0202519a l     O .rodata	00000320 tahomabold_32_124
020254ba l     O .rodata	00000320 tahomabold_32_125
020257da l     O .rodata	00000410 tahomabold_32_126
00000000 l    df *ABS*	00000000 ILI9341.c
00000000 l    df *ABS*	00000000 geometry.c
00000000 l    df *ABS*	00000000 simple_graphics.c
00000000 l    df *ABS*	00000000 simple_text.c
00000000 l    df *ABS*	00000000 main.c
00000000 l    df *ABS*	00000000 touch_spi.c
00000000 l    df *ABS*	00000000 w_sqrt.c
00000000 l    df *ABS*	00000000 e_sqrt.c
00000000 l    df *ABS*	00000000 s_fpclassify.c
00000000 l    df *ABS*	00000000 s_lib_ver.c
00000000 l    df *ABS*	00000000 s_matherr.c
00000000 l    df *ABS*	00000000 lib2-divmod.c
020061e0 l     F .text	0000006c udivmodsi4
00000000 l    df *ABS*	00000000 adddf3.c
00000000 l    df *ABS*	00000000 divdf3.c
00000000 l    df *ABS*	00000000 ledf2.c
00000000 l    df *ABS*	00000000 muldf3.c
00000000 l    df *ABS*	00000000 subdf3.c
00000000 l    df *ABS*	00000000 fixdfsi.c
00000000 l    df *ABS*	00000000 floatsidf.c
00000000 l    df *ABS*	00000000 libgcc2.c
00000000 l    df *ABS*	00000000 libgcc2.c
00000000 l    df *ABS*	00000000 errno.c
00000000 l    df *ABS*	00000000 impure.c
020279c0 l     O .rwdata	000000e0 impure_data
00000000 l    df *ABS*	00000000 malloc.c
00000000 l    df *ABS*	00000000 mallocr.c
00000000 l    df *ABS*	00000000 memcpy.c
00000000 l    df *ABS*	00000000 memset.c
00000000 l    df *ABS*	00000000 printf.c
00000000 l    df *ABS*	00000000 puts.c
00000000 l    df *ABS*	00000000 sbrkr.c
00000000 l    df *ABS*	00000000 sprintf.c
00000000 l    df *ABS*	00000000 strcpy.c
00000000 l    df *ABS*	00000000 strlen.c
00000000 l    df *ABS*	00000000 vfprintf.c
02009098 l     F .text	0000006c print_repeat
00000000 l    df *ABS*	00000000 vfprintf.c
0200966c l     F .text	0000006c print_repeat
00000000 l    df *ABS*	00000000 mallocr.c
00000000 l    df *ABS*	00000000 fvwrite_small_dev.c
00000000 l    df *ABS*	00000000 fvwrite_small_str.c
00000000 l    df *ABS*	00000000 int_errno.c
00000000 l    df *ABS*	00000000 memmove.c
00000000 l    df *ABS*	00000000 writer.c
00000000 l    df *ABS*	00000000 alt_alarm_start.c
00000000 l    df *ABS*	00000000 alt_iic.c
00000000 l    df *ABS*	00000000 alt_iic_isr_register.c
00000000 l    df *ABS*	00000000 alt_irq_vars.c
00000000 l    df *ABS*	00000000 alt_load.c
0200a5fc l     F .text	00000064 alt_load_section
00000000 l    df *ABS*	00000000 alt_main.c
00000000 l    df *ABS*	00000000 alt_malloc_lock.c
00000000 l    df *ABS*	00000000 alt_sbrk.c
0202809c l     O .rwdata	00000004 heap_end
00000000 l    df *ABS*	00000000 alt_tick.c
00000000 l    df *ABS*	00000000 alt_usleep.c
00000000 l    df *ABS*	00000000 alt_write.c
0200aa04 l     F .text	00000050 alt_get_errno
00000000 l    df *ABS*	00000000 alt_sys_init.c
0200ab4c l     F .text	00000038 alt_dev_reg
02027ea8 l     O .rwdata	0000002c JTAG_UART
00000000 l    df *ABS*	00000000 altera_avalon_jtag_uart_fd.c
00000000 l    df *ABS*	00000000 altera_avalon_jtag_uart_read.c
00000000 l    df *ABS*	00000000 altera_avalon_jtag_uart_write.c
00000000 l    df *ABS*	00000000 altera_avalon_spi.c
00000000 l    df *ABS*	00000000 altera_avalon_timer_sc.c
0200b040 l     F .text	00000074 alt_avalon_timer_sc_irq
00000000 l    df *ABS*	00000000 alt_busy_sleep.c
00000000 l    df *ABS*	00000000 alt_close.c
0200b294 l     F .text	00000050 alt_get_errno
00000000 l    df *ABS*	00000000 alt_dcache_flush_all.c
00000000 l    df *ABS*	00000000 alt_dev.c
0200b3f8 l     F .text	0000002c alt_dev_null_write
00000000 l    df *ABS*	00000000 alt_dev_llist_insert.c
0200b424 l     F .text	00000050 alt_get_errno
00000000 l    df *ABS*	00000000 alt_errno.c
00000000 l    df *ABS*	00000000 alt_icache_flush_all.c
00000000 l    df *ABS*	00000000 alt_io_redirect.c
0200b548 l     F .text	000000c0 alt_open_fd
00000000 l    df *ABS*	00000000 alt_open.c
0200b680 l     F .text	00000050 alt_get_errno
0200b6d0 l     F .text	000000cc alt_file_locked
00000000 l    df *ABS*	00000000 alt_release_fd.c
00000000 l    df *ABS*	00000000 altera_nios2_qsys_irq.c
00000000 l    df *ABS*	00000000 alt_find_dev.c
00000000 l    df *ABS*	00000000 alt_find_file.c
00000000 l    df *ABS*	00000000 alt_get_fd.c
00000000 l    df *ABS*	00000000 alt_icache_flush.c
00000000 l    df *ABS*	00000000 exit.c
00000000 l    df *ABS*	00000000 memcmp.c
00000000 l    df *ABS*	00000000 __call_atexit.c
00000000 l    df *ABS*	00000000 alt_exit.c
02002dd4 g     F .text	00000078 vid_draw_horiz_line
02001488 g     F .text	0000006c LCD_DrawPoint
0200a6e0 g     F .text	00000068 alt_main
02009050 g     F .text	0000002c strcpy
02008e90 g     F .text	00000080 _puts_r
0202a3c0 g     O .bss	00000100 alt_irq
02002f38 g     F .text	0000006c vid_color_convert16_24
02005da0 g     F .text	00000130 sqrt
020280c0 g       *ABS*	00000000 __flash_rwdata_start
04004000 g       *ABS*	00000000 __alt_mem_pic_mem
020057a8 g     F .text	00000160 touch_enable_penirq
0202a4c0 g       *ABS*	00000000 __alt_heap_start
02001b60 g     F .text	00000138 LCD_Pattern_Horizon
02008e44 g     F .text	0000004c printf
02000390 g     F .text	000001d4 GUI_DeskInit
0200a768 g     F .text	00000020 __malloc_unlock
02002a2c g     F .text	00000148 vid_draw_box
020021a0 g     F .text	00000044 PtCopy
02004838 g     F .text	0000025c vid_print_string_alpha
0200a134 g     F .text	00000060 memmove
020275a8 g     O .rwdata	00000415 cour10_font_array
02002808 g     F .text	0000011c vid_move_block
02008704 g     F .text	00000010 __errno
02005150 g     F .text	000000e0 vid_string_pixel_length_alpha
0200a098 g     F .text	0000009c __sfvwrite_small_str
02000000 g     F .entry	0000001c __reset
02001db4 g     F .text	0000003c Clr_BUFFER_FLAG
02000020 g       *ABS*	00000000 __flash_exceptions_start
02001408 g     F .text	00000080 LCD_Clear
0202a37c g     O .bss	00000004 errno
0202a388 g     O .bss	00000004 alt_argv
0203007c g       *ABS*	00000000 _gp
0200a9d4 g     F .text	00000030 usleep
02000bc0 g     F .text	000000b0 VPG_ColorPanel
02004a94 g     F .text	00000148 seperate_color_channels
02027efc g     O .rwdata	00000180 alt_fd_list
0200b974 g     F .text	00000090 alt_find_dev
02008dc0 g     F .text	00000028 memcpy
020085d0 g     F .text	000000d0 .hidden __floatsidf
02003728 g     F .text	00000738 vid_round_corner_points
020054dc g     F .text	00000068 Touch_UnInit
0200b608 g     F .text	00000078 alt_io_redirect
02007474 g     F .text	000000e0 .hidden __ltdf2
02000564 g     F .text	00000090 GUI_CheckButton
02008f10 g     F .text	00000014 puts
020021e4 g     F .text	0000005c vid_clean_screen
02006164 g     F .text	00000074 __fpclassifyd
02002344 g     F .text	00000154 vid_scroll_string_init
0200acc4 g     F .text	000000e4 altera_avalon_jtag_uart_read
02008714 g     F .text	00000014 malloc
02008e08 g     F .text	0000003c _printf_r
02005368 g     F .text	00000174 Touch_Init
020062fc g     F .text	00000008 .hidden __udivsi3
020005f4 g     F .text	0000021c GUI_DeskDraw
0200bbcc g     F .text	0000008c alt_icache_flush
0202a378 g     O .bss	00000004 __malloc_top_pad
02008f24 g     F .text	00000050 _sbrk_r
02005738 g     F .text	00000030 touch_empty_fifo
020020b8 g     F .text	00000034 RectHeight
020280b8 g     O .rwdata	00000004 alt_max_fd
02000b9c g     F .text	00000024 VPG_XLine
0202a374 g     O .bss	00000004 __malloc_max_sbrked_mem
020269e8 g     O .rwdata	00000bc0 tahomabold_32
0200630c g     F .text	0000089c .hidden __adddf3
020008a4 g     F .text	0000007c GUI_ClearPaintArea
02001e74 g     F .text	00000040 PtSet
02028084 g     O .rwdata	00000004 __fdlib_version
02028088 g     O .rwdata	00000004 _global_impure_ptr
02003250 g     F .text	0000013c vid_draw_circle
0202a4c0 g       *ABS*	00000000 __bss_end
0200a50c g     F .text	000000f0 alt_iic_isr_register
0200a8d0 g     F .text	00000104 alt_tick
02001f98 g     F .text	00000088 RectOffset
02002fe8 g     F .text	00000268 vid_draw_sloped_line
02000d6c g     F .text	000000e4 VPG_VGrid
0200a4c0 g     F .text	0000004c alt_ic_irq_enabled
0200338c g     F .text	0000039c vid_draw_round_corner_box
0200a838 g     F .text	00000098 alt_alarm_stop
0202a380 g     O .bss	00000004 alt_irq_active
02001c98 g     F .text	000000e0 LCD_Pattern_Vertical
020000ec g     F .exceptions	000000d0 alt_irq_handler
02027ed4 g     O .rwdata	00000028 alt_dev_null
0200b3b4 g     F .text	00000044 alt_dcache_flush_all
02005c50 g     F .text	00000078 touch_alarm_callback
02008548 g     F .text	00000088 .hidden __fixdfsi
02005768 g     F .text	00000040 touch_is_pen_pressed
020280c0 g       *ABS*	00000000 __ram_rwdata_end
020042ac g     F .text	00000378 vid_draw_triangle
020280b0 g     O .rwdata	00000008 alt_dev_list
0200aa54 g     F .text	000000f8 write
02025e14 g     O .rwdata	00000014 szPallete
02004708 g     F .text	00000130 CropImage16
02025e14 g       *ABS*	00000000 __ram_rodata_end
02000000 g       *ABS*	00000000 __alt_mem_SDRAM
02007474 g     F .text	000000e0 .hidden __ledf2
02002498 g     F .text	00000370 vid_scroll_string
02005938 g     F .text	00000318 touch_get_xy
02006304 g     F .text	00000008 .hidden __umodsi3
020056c4 g     F .text	00000074 touch_isr
02002084 g     F .text	00000034 RectWidth
02004624 g     F .text	000000e4 CopyImage16
0202a4c0 g       *ABS*	00000000 end
02001260 g     F .text	000000a8 GUI_VPG
020002d8 g     F .text	00000060 GUI_ShowInfo
02002b74 g     F .text	000000f0 vid_print_char
04000000 g       *ABS*	00000000 __alt_stack_pointer
0200b0b4 g     F .text	00000088 alt_avalon_timer_sc_init
020086a0 g     F .text	00000064 .hidden __clzsi2
0200ada8 g     F .text	00000094 altera_avalon_jtag_uart_write
02003eb4 g     F .text	00000054 min3
020010e4 g     F .text	0000017c GUI_ShowPAT
02002240 g     F .text	000000c4 vid_draw_line
020096d8 g     F .text	00000544 ___vfprintf_internal_r
02008f74 g     F .text	00000064 _sprintf_r
02009d64 g     F .text	00000288 _free_r
02001354 g     F .text	000000b4 LCD_SetCursor
0200bca8 g     F .text	0000019c __call_exitprocs
02000c70 g     F .text	000000fc VPG_Grid
02028090 g     O .rwdata	00000004 __malloc_sbrk_base
020001bc g     F .text	0000004c _start
04000000 g       *ABS*	00000000 __alt_mem_background_mem
0202a390 g     O .bss	00000004 _alt_tick_rate
02005908 g     F .text	00000030 touch_clear_input
0200ae3c g     F .text	00000204 alt_avalon_spi_command
0202a394 g     O .bss	00000004 _alt_nticks
02003f6c g     F .text	00000100 vid_put_pixel_in_span_map
02000f34 g     F .text	000001b0 VPG_ColorBar
0200abb8 g     F .text	0000004c alt_sys_init
02002d40 g     F .text	00000094 vid_paint_block
02025e14 g       *ABS*	00000000 __ram_rwdata_start
0200be78 g       *ABS*	00000000 __ram_rodata_start
0202a398 g     O .bss	00000028 __malloc_current_mallinfo
02000e50 g     F .text	000000e4 VPG_HGrid
02002e98 g     F .text	000000a0 vid_color_convert24_16
0200ac04 g     F .text	00000060 altera_avalon_jtag_uart_read_fd
0200bb18 g     F .text	000000b4 alt_get_fd
0200b13c g     F .text	00000158 alt_busy_sleep
02000920 g     F .text	0000021c GUI
02004d50 g     F .text	0000024c alpha_blending
0200bc78 g     F .text	00000030 memcmp
0202a4c0 g       *ABS*	00000000 __alt_stack_base
02006ba8 g     F .text	000008cc .hidden __divdf3
02027aa0 g     O .rwdata	00000408 __malloc_av_
02007554 g     F .text	00000724 .hidden __muldf3
0200ba04 g     F .text	00000114 alt_find_file
0200b474 g     F .text	000000a4 alt_dev_llist_insert
0200a748 g     F .text	00000020 __malloc_lock
02002fa4 g     F .text	00000044 vid_copy_line_to_frame_buffer
0200a788 g     F .text	000000b0 sbrk
02009104 g     F .text	00000544 ___svfprintf_internal_r
02009fec g     F .text	000000ac __sfvwrite_small_dev
0202a36c g       *ABS*	00000000 __bss_start
020014f4 g     F .text	0000066c LCD_Init
02008de8 g     F .text	00000020 memset
02005230 g     F .text	00000138 main
0202a38c g     O .bss	00000004 alt_envp
0202a370 g     O .bss	00000004 __malloc_max_total_mem
0200ac64 g     F .text	00000060 altera_avalon_jtag_uart_write_fd
02000338 g     F .text	00000058 GUI_ShowTouchPoint
02025e28 g     O .rwdata	00000bc0 tahomabold_20
020061d8 g     F .text	00000008 matherr
04000000 g       *ABS*	00000000 __alt_heap_limit
02004f9c g     F .text	000001b4 vid_print_char_alpha
02028080 g     O .rwdata	00000004 cour10_font
0200873c g     F .text	00000684 _malloc_r
020280bc g     O .rwdata	00000004 alt_errno
020020ec g     F .text	000000b4 PtDistance
02001eb4 g     F .text	0000005c RectSet
02001308 g     F .text	0000004c Delay_Ms
0200624c g     F .text	00000054 .hidden __divsi3
02002020 g     F .text	00000064 RectCopy
02009c40 g     F .text	00000124 _malloc_trim_r
02004d0c g     F .text	00000044 read_from_frame
0200be78 g       *ABS*	00000000 __flash_rodata_start
02002d00 g     F .text	00000040 vid_get_pixel
0200ab84 g     F .text	00000034 alt_irq_init
0200b8f4 g     F .text	00000060 alt_release_fd
02008fd8 g     F .text	00000078 sprintf
02025ce1 g     O .rodata	00000100 .hidden __clz_tab
0200a194 g     F .text	00000058 _write_r
02001df0 g     F .text	00000084 IsPtInRect
0202808c g     O .rwdata	00000004 _impure_ptr
0202a384 g     O .bss	00000004 alt_argc
02000020 g       .exceptions	00000000 alt_irq_entry
0200557c g     F .text	00000148 Touch_GetXY
020280a8 g     O .rwdata	00000008 alt_fs_list
02009648 g     F .text	00000024 __vfprintf_internal_unused
02002924 g     F .text	00000108 vid_print_string
02000020 g       *ABS*	00000000 __ram_exceptions_start
02005ed0 g     F .text	00000294 __ieee754_sqrt
0200a32c g     F .text	00000050 alt_ic_isr_register
020280c0 g       *ABS*	00000000 _edata
0202a4c0 g       *ABS*	00000000 _end
02000b3c g     F .text	00000060 ShowInfo
02003e60 g     F .text	00000054 max3
020001bc g       *ABS*	00000000 __ram_exceptions_end
0200a41c g     F .text	000000a4 alt_ic_irq_disable
02002e4c g     F .text	0000004c vid_merge_colors
02028094 g     O .rwdata	00000004 __malloc_trim_threshold
0200b954 g     F .text	00000020 altera_nios2_qsys_irq_init
0200bc58 g     F .text	00000020 exit
02000810 g     F .text	00000094 IsContinuedPoint
020062a0 g     F .text	0000005c .hidden __modsi3
04000000 g       *ABS*	00000000 __alt_data_end
02000020 g     F .exceptions	00000000 alt_exception
02005cc8 g     F .text	000000d8 touch_xy_transform
02002c64 g     F .text	0000009c vid_set_pixel
02001d78 g     F .text	0000003c Set_BUFFER_FLAG
0200be44 g     F .text	00000034 _exit
0200a1ec g     F .text	00000140 alt_alarm_start
02002304 g     F .text	00000040 vid_scroll_string_quit
0200907c g     F .text	0000001c strlen
0200b79c g     F .text	00000158 open
02001f10 g     F .text	00000088 RectInflate
0200b518 g     F .text	00000030 alt_icache_flush_all
02028098 g     O .rwdata	00000004 alt_priority_mask
0200a37c g     F .text	000000a0 alt_ic_irq_enable
02009c1c g     F .text	00000024 __vfprintf_internal
02007c78 g     F .text	000008d0 .hidden __subdf3
0200406c g     F .text	00000240 vid_bres_scan_edges
020280a0 g     O .rwdata	00000008 alt_alarm_list
02003f08 g     F .text	00000064 max_diff3
02000208 g     F .text	000000d0 GUI_ShowWelcome
02004bdc g     F .text	00000130 merge_color_channels
0200b2e4 g     F .text	000000d0 close
0200a660 g     F .text	00000080 alt_load
02005544 g     F .text	00000038 Touch_EmptyFifo
02008728 g     F .text	00000014 free



Disassembly of section .entry:

02000000 <__reset>:
#if NIOS2_ICACHE_SIZE > 0 && defined(ALT_ALLOW_CODE_AT_RESET) && !defined(ALT_SIM_OPTIMIZE)
    /* Assume the instruction cache size is always a power of two. */
#if NIOS2_ICACHE_SIZE > 0x8000
    movhi r2, %hi(NIOS2_ICACHE_SIZE)
#else
    movui r2, NIOS2_ICACHE_SIZE
 2000000:	00840014 	movui	r2,4096
#endif

0:
    initi r2
 2000004:	1001483a 	initi	r2
    addi r2, r2, -NIOS2_ICACHE_LINE_SIZE
 2000008:	10bff804 	addi	r2,r2,-32
    bgt r2, zero, 0b
 200000c:	00bffd16 	blt	zero,r2,2000004 <__alt_mem_pic_mem+0xfdffc004>
 * Jump to the _start entry point in the .text section if reset code
 * is allowed or if optimizing for RTL simulation.
 */
#if defined(ALT_ALLOW_CODE_AT_RESET) || defined(ALT_SIM_OPTIMIZE)
    /* Jump to the _start entry point in the .text section. */
    movhi r1, %hi(_start)
 2000010:	00408034 	movhi	at,512
    ori r1, r1, %lo(_start)
 2000014:	08406f14 	ori	at,at,444
    jmp r1
 2000018:	0800683a 	jmp	at
 200001c:	00000000 	call	0 <__reset-0x2000000>

Disassembly of section .exceptions:

02000020 <alt_exception>:

#else /* ALT_EXCEPTION_STACK disabled */
        /* 
         * Reserve space on normal stack for registers about to be pushed.
         */
        addi  sp, sp, -76
 2000020:	deffed04 	addi	sp,sp,-76
         * documentation for details).
         *
         * Leave a gap in the stack frame at 4(sp) for the muldiv handler to
         * store zero into.
         */
        stw   ra,  0(sp)
 2000024:	dfc00015 	stw	ra,0(sp)
        stw   r1,   8(sp)
 2000028:	d8400215 	stw	at,8(sp)
        stw   r2,  12(sp)
 200002c:	d8800315 	stw	r2,12(sp)
        stw   r3,  16(sp)
 2000030:	d8c00415 	stw	r3,16(sp)
        stw   r4,  20(sp)
 2000034:	d9000515 	stw	r4,20(sp)
        stw   r5,  24(sp)
 2000038:	d9400615 	stw	r5,24(sp)
        stw   r6,  28(sp)
 200003c:	d9800715 	stw	r6,28(sp)
        stw   r7,  32(sp)
 2000040:	d9c00815 	stw	r7,32(sp)
        rdctl r5, estatus   /* Read early to avoid usage stall */
 2000044:	000b307a 	rdctl	r5,estatus
        stw   r8,  36(sp)
 2000048:	da000915 	stw	r8,36(sp)
        stw   r9,  40(sp)
 200004c:	da400a15 	stw	r9,40(sp)
        stw   r10, 44(sp)
 2000050:	da800b15 	stw	r10,44(sp)
        stw   r11, 48(sp)
 2000054:	dac00c15 	stw	r11,48(sp)
        stw   r12, 52(sp)
 2000058:	db000d15 	stw	r12,52(sp)
        stw   r13, 56(sp)
 200005c:	db400e15 	stw	r13,56(sp)
        stw   r14, 60(sp)
 2000060:	db800f15 	stw	r14,60(sp)
        stw   r15, 64(sp)
 2000064:	dbc01015 	stw	r15,64(sp)
        /*
         * ea-4 contains the address of the instruction being executed
         * when the exception occured. For interrupt exceptions, we will
         * will be re-issue the isntruction. Store it in 72(sp)
         */
        stw   r5,  68(sp)  /* estatus */
 2000068:	d9401115 	stw	r5,68(sp)
        addi  r15, ea, -4  /* instruction that caused exception */
 200006c:	ebffff04 	addi	r15,ea,-4
        stw   r15,  72(sp)
 2000070:	dbc01215 	stw	r15,72(sp)
#else
        /*
         * Test to see if the exception was a software exception or caused 
         * by an external interrupt, and vector accordingly.
         */
        rdctl r4, ipending
 2000074:	0009313a 	rdctl	r4,ipending
        andi  r2, r5, 1
 2000078:	2880004c 	andi	r2,r5,1
        beq   r2, zero, .Lnot_irq
 200007c:	10000326 	beq	r2,zero,200008c <alt_exception+0x6c>
        beq   r4, zero, .Lnot_irq
 2000080:	20000226 	beq	r4,zero,200008c <alt_exception+0x6c>
        /*
         * Now that all necessary registers have been preserved, call 
         * alt_irq_handler() to process the interrupts.
         */

        call alt_irq_handler
 2000084:	20000ec0 	call	20000ec <alt_irq_handler>

        .section .exceptions.irqreturn, "xa"

        br    .Lexception_exit
 2000088:	00000306 	br	2000098 <alt_exception_unknown+0x4>
         * upon completion, so we write ea (address of instruction *after*
         * the one where the exception occured) into 72(sp). The actual
         * instruction that caused the exception is written in r2, which these
         * handlers will utilize.
         */
        stw   ea,  72(sp)  /* Don't re-issue */
 200008c:	df401215 	stw	ea,72(sp)
        ldw   r2, -4(ea)   /* Instruction that caused exception */
 2000090:	e8bfff17 	ldw	r2,-4(ea)

02000094 <alt_exception_unknown>:
#ifdef NIOS2_HAS_DEBUG_STUB
       /*
        *  Either tell the user now (if there is a debugger attached) or go into
        *  the debug monitor which will loop until a debugger is attached.
        */
        break
 2000094:	003da03a 	break	0
        /* 
         * Restore the saved registers, so that all general purpose registers 
         * have been restored to their state at the time the interrupt occured.
         */

        ldw   r5,  68(sp)
 2000098:	d9401117 	ldw	r5,68(sp)
        ldw   ea,  72(sp)  /* This becomes the PC once eret is executed */
 200009c:	df401217 	ldw	ea,72(sp)
        ldw   ra,   0(sp)
 20000a0:	dfc00017 	ldw	ra,0(sp)

        wrctl estatus, r5
 20000a4:	2801707a 	wrctl	estatus,r5

        ldw   r1,   8(sp)
 20000a8:	d8400217 	ldw	at,8(sp)
        ldw   r2,  12(sp)
 20000ac:	d8800317 	ldw	r2,12(sp)
        ldw   r3,  16(sp)
 20000b0:	d8c00417 	ldw	r3,16(sp)
        ldw   r4,  20(sp)
 20000b4:	d9000517 	ldw	r4,20(sp)
        ldw   r5,  24(sp)
 20000b8:	d9400617 	ldw	r5,24(sp)
        ldw   r6,  28(sp)
 20000bc:	d9800717 	ldw	r6,28(sp)
        ldw   r7,  32(sp)
 20000c0:	d9c00817 	ldw	r7,32(sp)

#if defined(ALT_EXCEPTION_STACK) && defined(ALT_STACK_CHECK)
        ldw   et, %gprel(alt_exception_old_stack_limit)(gp)
#endif

        ldw   r8,  36(sp)
 20000c4:	da000917 	ldw	r8,36(sp)
        ldw   r9,  40(sp)
 20000c8:	da400a17 	ldw	r9,40(sp)
        ldw   r10, 44(sp)
 20000cc:	da800b17 	ldw	r10,44(sp)
        ldw   r11, 48(sp)
 20000d0:	dac00c17 	ldw	r11,48(sp)
        ldw   r12, 52(sp)
 20000d4:	db000d17 	ldw	r12,52(sp)
        ldw   r13, 56(sp)
 20000d8:	db400e17 	ldw	r13,56(sp)
        ldw   r14, 60(sp)
 20000dc:	db800f17 	ldw	r14,60(sp)
        ldw   r15, 64(sp)
 20000e0:	dbc01017 	ldw	r15,64(sp)
        stw   et, %gprel(alt_stack_limit_value)(gp)
        stw   zero, %gprel(alt_exception_old_stack_limit)(gp)
#endif /* ALT_STACK_CHECK */
        ldw   sp,  76(sp)
#else /* ALT_EXCEPTION_STACK disabled */
        addi  sp, sp, 76
 20000e4:	dec01304 	addi	sp,sp,76

        /*
         * Return to the interrupted instruction.
         */

        eret
 20000e8:	ef80083a 	eret

020000ec <alt_irq_handler>:
 * instruction is present if the macro ALT_CI_INTERRUPT_VECTOR defined.
 */

void alt_irq_handler (void) __attribute__ ((section (".exceptions")));
void alt_irq_handler (void)
{
 20000ec:	defff904 	addi	sp,sp,-28
 20000f0:	dfc00615 	stw	ra,24(sp)
 20000f4:	df000515 	stw	fp,20(sp)
 20000f8:	df000504 	addi	fp,sp,20
  
  /*
   * Notify the operating system that we are at interrupt level.
   */ 
  
  ALT_OS_INT_ENTER();
 20000fc:	0001883a 	nop
#ifndef NIOS2_EIC_PRESENT
static ALT_INLINE alt_u32 ALT_ALWAYS_INLINE alt_irq_pending (void)
{
  alt_u32 active;

  NIOS2_READ_IPENDING (active);
 2000100:	0005313a 	rdctl	r2,ipending
 2000104:	e0bffe15 	stw	r2,-8(fp)

  return active;
 2000108:	e0bffe17 	ldw	r2,-8(fp)
   * Consider the case where the high priority interupt is asserted during
   * the interrupt entry sequence for a lower priority interrupt to see why
   * this is the case.
   */

  active = alt_irq_pending ();
 200010c:	e0bffb15 	stw	r2,-20(fp)

  do
  {
    i = 0;
 2000110:	e03ffd15 	stw	zero,-12(fp)
    mask = 1;
 2000114:	00800044 	movi	r2,1
 2000118:	e0bffc15 	stw	r2,-16(fp)
     * called to clear the interrupt condition.
     */

    do
    {
      if (active & mask)
 200011c:	e0fffb17 	ldw	r3,-20(fp)
 2000120:	e0bffc17 	ldw	r2,-16(fp)
 2000124:	1884703a 	and	r2,r3,r2
 2000128:	10001426 	beq	r2,zero,200017c <alt_irq_handler+0x90>
      { 
#ifdef ALT_ENHANCED_INTERRUPT_API_PRESENT
        alt_irq[i].handler(alt_irq[i].context); 
 200012c:	008080f4 	movhi	r2,515
 2000130:	10a8f004 	addi	r2,r2,-23616
 2000134:	e0fffd17 	ldw	r3,-12(fp)
 2000138:	180690fa 	slli	r3,r3,3
 200013c:	10c5883a 	add	r2,r2,r3
 2000140:	10c00017 	ldw	r3,0(r2)
 2000144:	008080f4 	movhi	r2,515
 2000148:	10a8f004 	addi	r2,r2,-23616
 200014c:	e13ffd17 	ldw	r4,-12(fp)
 2000150:	200890fa 	slli	r4,r4,3
 2000154:	1105883a 	add	r2,r2,r4
 2000158:	10800104 	addi	r2,r2,4
 200015c:	10800017 	ldw	r2,0(r2)
 2000160:	1009883a 	mov	r4,r2
 2000164:	183ee83a 	callr	r3
#else
        alt_irq[i].handler(alt_irq[i].context, i); 
#endif
        break;
 2000168:	0001883a 	nop
#ifndef NIOS2_EIC_PRESENT
static ALT_INLINE alt_u32 ALT_ALWAYS_INLINE alt_irq_pending (void)
{
  alt_u32 active;

  NIOS2_READ_IPENDING (active);
 200016c:	0005313a 	rdctl	r2,ipending
 2000170:	e0bfff15 	stw	r2,-4(fp)

  return active;
 2000174:	e0bfff17 	ldw	r2,-4(fp)
 2000178:	00000706 	br	2000198 <alt_irq_handler+0xac>
      }
      mask <<= 1;
 200017c:	e0bffc17 	ldw	r2,-16(fp)
 2000180:	1085883a 	add	r2,r2,r2
 2000184:	e0bffc15 	stw	r2,-16(fp)
      i++;
 2000188:	e0bffd17 	ldw	r2,-12(fp)
 200018c:	10800044 	addi	r2,r2,1
 2000190:	e0bffd15 	stw	r2,-12(fp)

    } while (1);
 2000194:	003fe106 	br	200011c <__alt_mem_pic_mem+0xfdffc11c>

    active = alt_irq_pending ();
 2000198:	e0bffb15 	stw	r2,-20(fp)
    
  } while (active);
 200019c:	e0bffb17 	ldw	r2,-20(fp)
 20001a0:	103fdb1e 	bne	r2,zero,2000110 <__alt_mem_pic_mem+0xfdffc110>

  /*
   * Notify the operating system that interrupt processing is complete.
   */ 

  ALT_OS_INT_EXIT();
 20001a4:	0001883a 	nop
}
 20001a8:	e037883a 	mov	sp,fp
 20001ac:	dfc00117 	ldw	ra,4(sp)
 20001b0:	df000017 	ldw	fp,0(sp)
 20001b4:	dec00204 	addi	sp,sp,8
 20001b8:	f800283a 	ret

Disassembly of section .text:

020001bc <_start>:

    /* Assume the data cache size is always a power of two. */
#if NIOS2_DCACHE_SIZE > 0x8000
    movhi r2, %hi(NIOS2_DCACHE_SIZE)
#else
    movui r2, NIOS2_DCACHE_SIZE
 20001bc:	00820014 	movui	r2,2048
#endif

0:
    initd 0(r2)
 20001c0:	10000033 	initd	0(r2)
#ifdef NIOS2_ECC_PRESENT
    addi r2, r2, -4
#else
    addi r2, r2, -NIOS2_DCACHE_LINE_SIZE
 20001c4:	10bff804 	addi	r2,r2,-32
#endif
    bgt r2, zero, 0b
 20001c8:	00bffd16 	blt	zero,r2,20001c0 <__alt_mem_pic_mem+0xfdffc1c0>

    /*
     * Now that the caches are initialized, set up the stack pointer and global pointer.
     * The values provided by the linker are assumed to be correctly aligned.
     */
    movhi sp, %hi(__alt_stack_pointer)
 20001cc:	06c10034 	movhi	sp,1024
    ori sp, sp, %lo(__alt_stack_pointer)
 20001d0:	dec00014 	ori	sp,sp,0
    movhi gp, %hi(_gp)
 20001d4:	068080f4 	movhi	gp,515
    ori gp, gp, %lo(_gp)
 20001d8:	d6801f14 	ori	gp,gp,124
 */
#ifndef ALT_SIM_OPTIMIZE
    /* Log that the BSS is about to be cleared. */
    ALT_LOG_PUTS(alt_log_msg_bss)

    movhi r2, %hi(__bss_start)
 20001dc:	008080b4 	movhi	r2,514
    ori r2, r2, %lo(__bss_start)
 20001e0:	10a8db14 	ori	r2,r2,41836

    movhi r3, %hi(__bss_end)
 20001e4:	00c080b4 	movhi	r3,514
    ori r3, r3, %lo(__bss_end)
 20001e8:	18e93014 	ori	r3,r3,42176

    beq r2, r3, 1f
 20001ec:	10c00326 	beq	r2,r3,20001fc <_start+0x40>

0:
    stw zero, (r2)
 20001f0:	10000015 	stw	zero,0(r2)
    addi r2, r2, 4
 20001f4:	10800104 	addi	r2,r2,4
    bltu r2, r3, 0b
 20001f8:	10fffd36 	bltu	r2,r3,20001f0 <__alt_mem_pic_mem+0xfdffc1f0>
     * section aren't defined until alt_load() has been called).
     */
    mov   et, zero
#endif

    call alt_load
 20001fc:	200a6600 	call	200a660 <alt_load>

    /* Log that alt_main is about to be called. */
    ALT_LOG_PUTS(alt_log_msg_alt_main)

    /* Call the C entry point. It should never return. */
    call alt_main
 2000200:	200a6e00 	call	200a6e0 <alt_main>

02000204 <alt_after_alt_main>:

    /* Wait in infinite loop in case alt_main does return. */
alt_after_alt_main:
    br alt_after_alt_main
 2000204:	003fff06 	br	2000204 <__alt_mem_pic_mem+0xfdffc204>

02000208 <GUI_ShowWelcome>:
    RECT rcPaint;
    PALETTE_INFO szPalette[BTN_NUM];
}DESK_INFO;


void GUI_ShowWelcome(alt_video_display *pDisplay){
 2000208:	defff804 	addi	sp,sp,-32
 200020c:	dfc00715 	stw	ra,28(sp)
 2000210:	df000615 	stw	fp,24(sp)
 2000214:	df000604 	addi	fp,sp,24
 2000218:	e13fff15 	stw	r4,-4(fp)
	int x, y;


	x = pDisplay->width / 2 - 60;
 200021c:	e0bfff17 	ldw	r2,-4(fp)
 2000220:	10800117 	ldw	r2,4(r2)
 2000224:	1006d7fa 	srli	r3,r2,31
 2000228:	1885883a 	add	r2,r3,r2
 200022c:	1005d07a 	srai	r2,r2,1
 2000230:	10bff104 	addi	r2,r2,-60
 2000234:	e0bffd15 	stw	r2,-12(fp)
	y = pDisplay->height / 2 - 10;
 2000238:	e0bfff17 	ldw	r2,-4(fp)
 200023c:	10800217 	ldw	r2,8(r2)
 2000240:	1006d7fa 	srli	r3,r2,31
 2000244:	1885883a 	add	r2,r3,r2
 2000248:	1005d07a 	srai	r2,r2,1
 200024c:	10bffd84 	addi	r2,r2,-10
 2000250:	e0bffe15 	stw	r2,-8(fp)

	vid_print_string_alpha(x, y, BLUE_24, BLACK_24, tahomabold_20, pDisplay, "Terasic");
 2000254:	008080b4 	movhi	r2,514
 2000258:	10978a04 	addi	r2,r2,24104
 200025c:	d8800015 	stw	r2,0(sp)
 2000260:	e0bfff17 	ldw	r2,-4(fp)
 2000264:	d8800115 	stw	r2,4(sp)
 2000268:	00808074 	movhi	r2,513
 200026c:	10af9e04 	addi	r2,r2,-16776
 2000270:	d8800215 	stw	r2,8(sp)
 2000274:	e13ffd17 	ldw	r4,-12(fp)
 2000278:	e17ffe17 	ldw	r5,-8(fp)
 200027c:	01803fc4 	movi	r6,255
 2000280:	000f883a 	mov	r7,zero
 2000284:	20048380 	call	2004838 <vid_print_string_alpha>
	vid_print_string_alpha(x, y+22, BLUE_24, BLACK_24, tahomabold_20, pDisplay, "Touch Demo");
 2000288:	e0bffe17 	ldw	r2,-8(fp)
 200028c:	10c00584 	addi	r3,r2,22
 2000290:	008080b4 	movhi	r2,514
 2000294:	10978a04 	addi	r2,r2,24104
 2000298:	d8800015 	stw	r2,0(sp)
 200029c:	e0bfff17 	ldw	r2,-4(fp)
 20002a0:	d8800115 	stw	r2,4(sp)
 20002a4:	00808074 	movhi	r2,513
 20002a8:	10afa004 	addi	r2,r2,-16768
 20002ac:	d8800215 	stw	r2,8(sp)
 20002b0:	e13ffd17 	ldw	r4,-12(fp)
 20002b4:	180b883a 	mov	r5,r3
 20002b8:	01803fc4 	movi	r6,255
 20002bc:	000f883a 	mov	r7,zero
 20002c0:	20048380 	call	2004838 <vid_print_string_alpha>
}
 20002c4:	e037883a 	mov	sp,fp
 20002c8:	dfc00117 	ldw	ra,4(sp)
 20002cc:	df000017 	ldw	fp,0(sp)
 20002d0:	dec00204 	addi	sp,sp,8
 20002d4:	f800283a 	ret

020002d8 <GUI_ShowInfo>:

void GUI_ShowInfo(alt_video_display *pDisplay, char *pText){
 20002d8:	defff904 	addi	sp,sp,-28
 20002dc:	dfc00615 	stw	ra,24(sp)
 20002e0:	df000515 	stw	fp,20(sp)
 20002e4:	df000504 	addi	fp,sp,20
 20002e8:	e13ffe15 	stw	r4,-8(fp)
 20002ec:	e17fff15 	stw	r5,-4(fp)
    static int x=0,y=100;
   // vid_clean_screen(pReader, BLACK_24);
    vid_print_string_alpha(x, y, BLUE_24, BLACK_24, tahomabold_20, pDisplay, pText);
 20002f0:	d128bc17 	ldw	r4,-23824(gp)
 20002f4:	d0e00017 	ldw	r3,-32768(gp)
 20002f8:	008080b4 	movhi	r2,514
 20002fc:	10978a04 	addi	r2,r2,24104
 2000300:	d8800015 	stw	r2,0(sp)
 2000304:	e0bffe17 	ldw	r2,-8(fp)
 2000308:	d8800115 	stw	r2,4(sp)
 200030c:	e0bfff17 	ldw	r2,-4(fp)
 2000310:	d8800215 	stw	r2,8(sp)
 2000314:	180b883a 	mov	r5,r3
 2000318:	01803fc4 	movi	r6,255
 200031c:	000f883a 	mov	r7,zero
 2000320:	20048380 	call	2004838 <vid_print_string_alpha>
 //   VIPFR_ActiveDrawFrame(pReader);
}
 2000324:	e037883a 	mov	sp,fp
 2000328:	dfc00117 	ldw	ra,4(sp)
 200032c:	df000017 	ldw	fp,0(sp)
 2000330:	dec00204 	addi	sp,sp,8
 2000334:	f800283a 	ret

02000338 <GUI_ShowTouchPoint>:

void GUI_ShowTouchPoint(alt_video_display *pDisplay, int X, int Y, int color){
 2000338:	defff804 	addi	sp,sp,-32
 200033c:	dfc00715 	stw	ra,28(sp)
 2000340:	df000615 	stw	fp,24(sp)
 2000344:	df000604 	addi	fp,sp,24
 2000348:	e13ffc15 	stw	r4,-16(fp)
 200034c:	e17ffd15 	stw	r5,-12(fp)
 2000350:	e1bffe15 	stw	r6,-8(fp)
 2000354:	e1ffff15 	stw	r7,-4(fp)
    vid_draw_circle(X, Y, 10, color, DO_FILL, pDisplay);
 2000358:	00800044 	movi	r2,1
 200035c:	d8800015 	stw	r2,0(sp)
 2000360:	e0bffc17 	ldw	r2,-16(fp)
 2000364:	d8800115 	stw	r2,4(sp)
 2000368:	e13ffd17 	ldw	r4,-12(fp)
 200036c:	e17ffe17 	ldw	r5,-8(fp)
 2000370:	01800284 	movi	r6,10
 2000374:	e1ffff17 	ldw	r7,-4(fp)
 2000378:	20032500 	call	2003250 <vid_draw_circle>
   // VIPFR_ActiveDrawFrame(pReader);
}
 200037c:	e037883a 	mov	sp,fp
 2000380:	dfc00117 	ldw	ra,4(sp)
 2000384:	df000017 	ldw	fp,0(sp)
 2000388:	dec00204 	addi	sp,sp,8
 200038c:	f800283a 	ret

02000390 <GUI_DeskInit>:


//----------------------------------------------------------------------------------------------------

void GUI_DeskInit(alt_video_display *pDisplay, DESK_INFO *pDeskInfo){
 2000390:	deffef04 	addi	sp,sp,-68
 2000394:	dfc01015 	stw	ra,64(sp)
 2000398:	df000f15 	stw	fp,60(sp)
 200039c:	df000f04 	addi	fp,sp,60
 20003a0:	e13ffe15 	stw	r4,-8(fp)
 20003a4:	e17fff15 	stw	r5,-4(fp)
    int i;
    RECT rc;
    const int BoxH = 40;
 20003a8:	00800a04 	movi	r2,40
 20003ac:	e0bff315 	stw	r2,-52(fp)
    const int BoxW = 40;
 20003b0:	00800a04 	movi	r2,40
 20003b4:	e0bff415 	stw	r2,-48(fp)
    const int GapH = 5;
 20003b8:	00800144 	movi	r2,5
 20003bc:	e0bff515 	stw	r2,-44(fp)
    const int DrawBorder = 2;
 20003c0:	00800084 	movi	r2,2
 20003c4:	e0bff615 	stw	r2,-40(fp)
    const int TextW = 0;
 20003c8:	e03ff715 	stw	zero,-36(fp)
    const int ClearExtraW = 30;
 20003cc:	00800784 	movi	r2,30
 20003d0:	e0bff815 	stw	r2,-32(fp)
    int GapW;

    
    GapW = (pDisplay->width - TextW - ClearExtraW - (BTN_NUM*BoxW))/(BTN_NUM+1);
 20003d4:	e0bffe17 	ldw	r2,-8(fp)
 20003d8:	10c00117 	ldw	r3,4(r2)
 20003dc:	e0bff717 	ldw	r2,-36(fp)
 20003e0:	1887c83a 	sub	r3,r3,r2
 20003e4:	e0bff817 	ldw	r2,-32(fp)
 20003e8:	1887c83a 	sub	r3,r3,r2
 20003ec:	e0bff417 	ldw	r2,-48(fp)
 20003f0:	10bffee4 	muli	r2,r2,-5
 20003f4:	1885883a 	add	r2,r3,r2
 20003f8:	1009883a 	mov	r4,r2
 20003fc:	01400184 	movi	r5,6
 2000400:	200624c0 	call	200624c <__divsi3>
 2000404:	e0bff915 	stw	r2,-28(fp)
    //printf("GapW=%d\r\n", GapW);
    rc.top = pDisplay->height - BoxH - GapH;
 2000408:	e0bffe17 	ldw	r2,-8(fp)
 200040c:	10c00217 	ldw	r3,8(r2)
 2000410:	e0bff317 	ldw	r2,-52(fp)
 2000414:	1887c83a 	sub	r3,r3,r2
 2000418:	e0bff517 	ldw	r2,-44(fp)
 200041c:	1885c83a 	sub	r2,r3,r2
 2000420:	e0bffc15 	stw	r2,-16(fp)
    rc.bottom = rc.top + BoxH;
 2000424:	e0fffc17 	ldw	r3,-16(fp)
 2000428:	e0bff317 	ldw	r2,-52(fp)
 200042c:	1885883a 	add	r2,r3,r2
 2000430:	e0bffd15 	stw	r2,-12(fp)
    rc.left = GapW + TextW + ClearExtraW;
 2000434:	e0fff917 	ldw	r3,-28(fp)
 2000438:	e0bff717 	ldw	r2,-36(fp)
 200043c:	1887883a 	add	r3,r3,r2
 2000440:	e0bff817 	ldw	r2,-32(fp)
 2000444:	1885883a 	add	r2,r3,r2
 2000448:	e0bffa15 	stw	r2,-24(fp)
    rc.right = rc.left + BoxW;
 200044c:	e0fffa17 	ldw	r3,-24(fp)
 2000450:	e0bff417 	ldw	r2,-48(fp)
 2000454:	1885883a 	add	r2,r3,r2
 2000458:	e0bffb15 	stw	r2,-20(fp)
    
    // desk drawing area    
    RectSet(&pDeskInfo->rcPaint, DrawBorder, pDisplay->width-DrawBorder, DrawBorder, rc.top - DrawBorder);
 200045c:	e0bfff17 	ldw	r2,-4(fp)
 2000460:	11000104 	addi	r4,r2,4
 2000464:	e0bffe17 	ldw	r2,-8(fp)
 2000468:	10c00117 	ldw	r3,4(r2)
 200046c:	e0bff617 	ldw	r2,-40(fp)
 2000470:	188dc83a 	sub	r6,r3,r2
 2000474:	e0fffc17 	ldw	r3,-16(fp)
 2000478:	e0bff617 	ldw	r2,-40(fp)
 200047c:	1885c83a 	sub	r2,r3,r2
 2000480:	d8800015 	stw	r2,0(sp)
 2000484:	e17ff617 	ldw	r5,-40(fp)
 2000488:	e1fff617 	ldw	r7,-40(fp)
 200048c:	2001eb40 	call	2001eb4 <RectSet>
    
    for(i=0;i<BTN_NUM;i++){
 2000490:	e03ff215 	stw	zero,-56(fp)
 2000494:	00002206 	br	2000520 <GUI_DeskInit+0x190>
        RectCopy(&pDeskInfo->szPalette[i].rc, &rc);
 2000498:	e0bff217 	ldw	r2,-56(fp)
 200049c:	10800044 	addi	r2,r2,1
 20004a0:	10800524 	muli	r2,r2,20
 20004a4:	e0ffff17 	ldw	r3,-4(fp)
 20004a8:	1887883a 	add	r3,r3,r2
 20004ac:	e0bffa04 	addi	r2,fp,-24
 20004b0:	1809883a 	mov	r4,r3
 20004b4:	100b883a 	mov	r5,r2
 20004b8:	20020200 	call	2002020 <RectCopy>
        pDeskInfo->szPalette[i].color = szPallete[i];
 20004bc:	008080b4 	movhi	r2,514
 20004c0:	10978504 	addi	r2,r2,24084
 20004c4:	e0fff217 	ldw	r3,-56(fp)
 20004c8:	18c7883a 	add	r3,r3,r3
 20004cc:	18c7883a 	add	r3,r3,r3
 20004d0:	10c5883a 	add	r2,r2,r3
 20004d4:	10800017 	ldw	r2,0(r2)
 20004d8:	1009883a 	mov	r4,r2
 20004dc:	e0ffff17 	ldw	r3,-4(fp)
 20004e0:	e0bff217 	ldw	r2,-56(fp)
 20004e4:	10800524 	muli	r2,r2,20
 20004e8:	1885883a 	add	r2,r3,r2
 20004ec:	10800904 	addi	r2,r2,36
 20004f0:	11000015 	stw	r4,0(r2)
        RectOffset(&rc, BoxW+GapW, 0);
 20004f4:	e0fff417 	ldw	r3,-48(fp)
 20004f8:	e0bff917 	ldw	r2,-28(fp)
 20004fc:	1885883a 	add	r2,r3,r2
 2000500:	e0fffa04 	addi	r3,fp,-24
 2000504:	1809883a 	mov	r4,r3
 2000508:	100b883a 	mov	r5,r2
 200050c:	000d883a 	mov	r6,zero
 2000510:	2001f980 	call	2001f98 <RectOffset>
    rc.right = rc.left + BoxW;
    
    // desk drawing area    
    RectSet(&pDeskInfo->rcPaint, DrawBorder, pDisplay->width-DrawBorder, DrawBorder, rc.top - DrawBorder);
    
    for(i=0;i<BTN_NUM;i++){
 2000514:	e0bff217 	ldw	r2,-56(fp)
 2000518:	10800044 	addi	r2,r2,1
 200051c:	e0bff215 	stw	r2,-56(fp)
 2000520:	e0bff217 	ldw	r2,-56(fp)
 2000524:	10800150 	cmplti	r2,r2,5
 2000528:	103fdb1e 	bne	r2,zero,2000498 <__alt_mem_pic_mem+0xfdffc498>
        RectCopy(&pDeskInfo->szPalette[i].rc, &rc);
        pDeskInfo->szPalette[i].color = szPallete[i];
        RectOffset(&rc, BoxW+GapW, 0);
    }
    pDeskInfo->szPalette[BTN_CLEAR].rc.left -= ClearExtraW;
 200052c:	e0bfff17 	ldw	r2,-4(fp)
 2000530:	10c00517 	ldw	r3,20(r2)
 2000534:	e0bff817 	ldw	r2,-32(fp)
 2000538:	1887c83a 	sub	r3,r3,r2
 200053c:	e0bfff17 	ldw	r2,-4(fp)
 2000540:	10c00515 	stw	r3,20(r2)
    pDeskInfo->Paint_Index = BTN_BLUE;
 2000544:	e0bfff17 	ldw	r2,-4(fp)
 2000548:	00c00084 	movi	r3,2
 200054c:	10c00015 	stw	r3,0(r2)
}
 2000550:	e037883a 	mov	sp,fp
 2000554:	dfc00117 	ldw	ra,4(sp)
 2000558:	df000017 	ldw	fp,0(sp)
 200055c:	dec00204 	addi	sp,sp,8
 2000560:	f800283a 	ret

02000564 <GUI_CheckButton>:

//----------------------------------------------------------------------------------------------------

int GUI_CheckButton(DESK_INFO *pDeskInfo, POINT *pt){
 2000564:	defffa04 	addi	sp,sp,-24
 2000568:	dfc00515 	stw	ra,20(sp)
 200056c:	df000415 	stw	fp,16(sp)
 2000570:	df000404 	addi	fp,sp,16
 2000574:	e13ffe15 	stw	r4,-8(fp)
 2000578:	e17fff15 	stw	r5,-4(fp)
    int ButtonId = BTN_NONE;
 200057c:	00800184 	movi	r2,6
 2000580:	e0bffc15 	stw	r2,-16(fp)
    int i;
    
    for(i=0;i<BTN_NUM && (ButtonId == BTN_NONE);i++){
 2000584:	e03ffd15 	stw	zero,-12(fp)
 2000588:	00000e06 	br	20005c4 <GUI_CheckButton+0x60>
        if (IsPtInRect(pt, &pDeskInfo->szPalette[i].rc))
 200058c:	e0bffd17 	ldw	r2,-12(fp)
 2000590:	10800044 	addi	r2,r2,1
 2000594:	10800524 	muli	r2,r2,20
 2000598:	e0fffe17 	ldw	r3,-8(fp)
 200059c:	1885883a 	add	r2,r3,r2
 20005a0:	e13fff17 	ldw	r4,-4(fp)
 20005a4:	100b883a 	mov	r5,r2
 20005a8:	2001df00 	call	2001df0 <IsPtInRect>
 20005ac:	10000226 	beq	r2,zero,20005b8 <GUI_CheckButton+0x54>
            ButtonId = i;
 20005b0:	e0bffd17 	ldw	r2,-12(fp)
 20005b4:	e0bffc15 	stw	r2,-16(fp)

int GUI_CheckButton(DESK_INFO *pDeskInfo, POINT *pt){
    int ButtonId = BTN_NONE;
    int i;
    
    for(i=0;i<BTN_NUM && (ButtonId == BTN_NONE);i++){
 20005b8:	e0bffd17 	ldw	r2,-12(fp)
 20005bc:	10800044 	addi	r2,r2,1
 20005c0:	e0bffd15 	stw	r2,-12(fp)
 20005c4:	e0bffd17 	ldw	r2,-12(fp)
 20005c8:	10800148 	cmpgei	r2,r2,5
 20005cc:	1000031e 	bne	r2,zero,20005dc <GUI_CheckButton+0x78>
 20005d0:	e0bffc17 	ldw	r2,-16(fp)
 20005d4:	108001a0 	cmpeqi	r2,r2,6
 20005d8:	103fec1e 	bne	r2,zero,200058c <__alt_mem_pic_mem+0xfdffc58c>
        if (IsPtInRect(pt, &pDeskInfo->szPalette[i].rc))
            ButtonId = i;
    }
    return ButtonId;
 20005dc:	e0bffc17 	ldw	r2,-16(fp)
}
 20005e0:	e037883a 	mov	sp,fp
 20005e4:	dfc00117 	ldw	ra,4(sp)
 20005e8:	df000017 	ldw	fp,0(sp)
 20005ec:	dec00204 	addi	sp,sp,8
 20005f0:	f800283a 	ret

020005f4 <GUI_DeskDraw>:

//----------------------------------------------------------------------------------------------------

void GUI_DeskDraw(alt_video_display *pDisplay, DESK_INFO *pDeskInfo){
 20005f4:	defff104 	addi	sp,sp,-60
 20005f8:	dfc00e15 	stw	ra,56(sp)
 20005fc:	df000d15 	stw	fp,52(sp)
 2000600:	dc400c15 	stw	r17,48(sp)
 2000604:	dc000b15 	stw	r16,44(sp)
 2000608:	df000d04 	addi	fp,sp,52
 200060c:	e13ffc15 	stw	r4,-16(fp)
 2000610:	e17ffd15 	stw	r5,-12(fp)
    // show text
    //  vid_print_string_alpha(pDeskInfo->rcPaint.left, pDeskInfo->szPalette[0].rc.top, BLUE_24, BLACK_24, tahomabold_20, pDisplay, "Terasic");
    //  vid_print_string_alpha(pDeskInfo->rcPaint.left, pDeskInfo->szPalette[0].rc.top+22, BLUE_24, BLACK_24, tahomabold_20, pDisplay, "Touch");

    // draw border
    RectCopy(&rc, &pDeskInfo->rcPaint);
 2000614:	e0bffd17 	ldw	r2,-12(fp)
 2000618:	10800104 	addi	r2,r2,4
 200061c:	e0fff804 	addi	r3,fp,-32
 2000620:	1809883a 	mov	r4,r3
 2000624:	100b883a 	mov	r5,r2
 2000628:	20020200 	call	2002020 <RectCopy>
    vid_draw_box (rc.left, rc.top, rc.right, rc.bottom, WHITE_24, DO_NOT_FILL, pDisplay);
 200062c:	e13ff817 	ldw	r4,-32(fp)
 2000630:	e17ffa17 	ldw	r5,-24(fp)
 2000634:	e1bff917 	ldw	r6,-28(fp)
 2000638:	e0fffb17 	ldw	r3,-20(fp)
 200063c:	00804034 	movhi	r2,256
 2000640:	10bfffc4 	addi	r2,r2,-1
 2000644:	d8800015 	stw	r2,0(sp)
 2000648:	d8000115 	stw	zero,4(sp)
 200064c:	e0bffc17 	ldw	r2,-16(fp)
 2000650:	d8800215 	stw	r2,8(sp)
 2000654:	180f883a 	mov	r7,r3
 2000658:	2002a2c0 	call	2002a2c <vid_draw_box>
    

    // draw palette
	active = pDeskInfo->Paint_Index;
 200065c:	e0bffd17 	ldw	r2,-12(fp)
 2000660:	10800017 	ldw	r2,0(r2)
 2000664:	e0bff715 	stw	r2,-36(fp)
    for(i=0;i<BTN_NUM;i++){
 2000668:	e03ff615 	stw	zero,-40(fp)
 200066c:	00005e06 	br	20007e8 <GUI_DeskDraw+0x1f4>
        RectCopy(&rc, &(pDeskInfo->szPalette[i].rc));
 2000670:	e0bff617 	ldw	r2,-40(fp)
 2000674:	10800044 	addi	r2,r2,1
 2000678:	10800524 	muli	r2,r2,20
 200067c:	e0fffd17 	ldw	r3,-12(fp)
 2000680:	1885883a 	add	r2,r3,r2
 2000684:	e0fff804 	addi	r3,fp,-32
 2000688:	1809883a 	mov	r4,r3
 200068c:	100b883a 	mov	r5,r2
 2000690:	20020200 	call	2002020 <RectCopy>
        if (i == BTN_CLEAR){
 2000694:	e0bff617 	ldw	r2,-40(fp)
 2000698:	10002d1e 	bne	r2,zero,2000750 <GUI_DeskDraw+0x15c>
            vid_draw_box (rc.left, rc.top, rc.right, rc.bottom, pDeskInfo->szPalette[i].color, DO_NOT_FILL, pDisplay);
 200069c:	e13ff817 	ldw	r4,-32(fp)
 20006a0:	e17ffa17 	ldw	r5,-24(fp)
 20006a4:	e1bff917 	ldw	r6,-28(fp)
 20006a8:	e1fffb17 	ldw	r7,-20(fp)
 20006ac:	e0fffd17 	ldw	r3,-12(fp)
 20006b0:	e0bff617 	ldw	r2,-40(fp)
 20006b4:	10800524 	muli	r2,r2,20
 20006b8:	1885883a 	add	r2,r3,r2
 20006bc:	10800904 	addi	r2,r2,36
 20006c0:	10800017 	ldw	r2,0(r2)
 20006c4:	d8800015 	stw	r2,0(sp)
 20006c8:	d8000115 	stw	zero,4(sp)
 20006cc:	e0bffc17 	ldw	r2,-16(fp)
 20006d0:	d8800215 	stw	r2,8(sp)
 20006d4:	2002a2c0 	call	2002a2c <vid_draw_box>
            vid_print_string_alpha(rc.left+8, rc.top+(RectHeight(&rc)-22)/2, pDeskInfo->szPalette[i].color, BLACK_24, tahomabold_20, pDisplay, "Clear");
 20006d8:	e0bff817 	ldw	r2,-32(fp)
 20006dc:	14400204 	addi	r17,r2,8
 20006e0:	e43ffa17 	ldw	r16,-24(fp)
 20006e4:	e0bff804 	addi	r2,fp,-32
 20006e8:	1009883a 	mov	r4,r2
 20006ec:	20020b80 	call	20020b8 <RectHeight>
 20006f0:	10bffa84 	addi	r2,r2,-22
 20006f4:	1006d7fa 	srli	r3,r2,31
 20006f8:	1885883a 	add	r2,r3,r2
 20006fc:	1005d07a 	srai	r2,r2,1
 2000700:	808b883a 	add	r5,r16,r2
 2000704:	e0fffd17 	ldw	r3,-12(fp)
 2000708:	e0bff617 	ldw	r2,-40(fp)
 200070c:	10800524 	muli	r2,r2,20
 2000710:	1885883a 	add	r2,r3,r2
 2000714:	10800904 	addi	r2,r2,36
 2000718:	10c00017 	ldw	r3,0(r2)
 200071c:	008080b4 	movhi	r2,514
 2000720:	10978a04 	addi	r2,r2,24104
 2000724:	d8800015 	stw	r2,0(sp)
 2000728:	e0bffc17 	ldw	r2,-16(fp)
 200072c:	d8800115 	stw	r2,4(sp)
 2000730:	00808074 	movhi	r2,513
 2000734:	10afa304 	addi	r2,r2,-16756
 2000738:	d8800215 	stw	r2,8(sp)
 200073c:	8809883a 	mov	r4,r17
 2000740:	180d883a 	mov	r6,r3
 2000744:	000f883a 	mov	r7,zero
 2000748:	20048380 	call	2004838 <vid_print_string_alpha>
 200074c:	00002306 	br	20007dc <GUI_DeskDraw+0x1e8>
        }else{
        	if (active != i){
 2000750:	e0fff717 	ldw	r3,-36(fp)
 2000754:	e0bff617 	ldw	r2,-40(fp)
 2000758:	18801026 	beq	r3,r2,200079c <GUI_DeskDraw+0x1a8>
          		vid_draw_box (rc.left, rc.top, rc.right, rc.bottom, BLACK_24, DO_FILL, pDisplay);
 200075c:	e13ff817 	ldw	r4,-32(fp)
 2000760:	e17ffa17 	ldw	r5,-24(fp)
 2000764:	e1bff917 	ldw	r6,-28(fp)
 2000768:	e0fffb17 	ldw	r3,-20(fp)
 200076c:	d8000015 	stw	zero,0(sp)
 2000770:	00800044 	movi	r2,1
 2000774:	d8800115 	stw	r2,4(sp)
 2000778:	e0bffc17 	ldw	r2,-16(fp)
 200077c:	d8800215 	stw	r2,8(sp)
 2000780:	180f883a 	mov	r7,r3
 2000784:	2002a2c0 	call	2002a2c <vid_draw_box>
        		RectInflate(&rc, -4, -4);
 2000788:	e0bff804 	addi	r2,fp,-32
 200078c:	1009883a 	mov	r4,r2
 2000790:	017fff04 	movi	r5,-4
 2000794:	01bfff04 	movi	r6,-4
 2000798:	2001f100 	call	2001f10 <RectInflate>
        	}
      		vid_draw_box (rc.left, rc.top, rc.right, rc.bottom, pDeskInfo->szPalette[i].color, DO_FILL, pDisplay);
 200079c:	e13ff817 	ldw	r4,-32(fp)
 20007a0:	e17ffa17 	ldw	r5,-24(fp)
 20007a4:	e1bff917 	ldw	r6,-28(fp)
 20007a8:	e1fffb17 	ldw	r7,-20(fp)
 20007ac:	e0fffd17 	ldw	r3,-12(fp)
 20007b0:	e0bff617 	ldw	r2,-40(fp)
 20007b4:	10800524 	muli	r2,r2,20
 20007b8:	1885883a 	add	r2,r3,r2
 20007bc:	10800904 	addi	r2,r2,36
 20007c0:	10800017 	ldw	r2,0(r2)
 20007c4:	d8800015 	stw	r2,0(sp)
 20007c8:	00800044 	movi	r2,1
 20007cc:	d8800115 	stw	r2,4(sp)
 20007d0:	e0bffc17 	ldw	r2,-16(fp)
 20007d4:	d8800215 	stw	r2,8(sp)
 20007d8:	2002a2c0 	call	2002a2c <vid_draw_box>
    vid_draw_box (rc.left, rc.top, rc.right, rc.bottom, WHITE_24, DO_NOT_FILL, pDisplay);
    

    // draw palette
	active = pDeskInfo->Paint_Index;
    for(i=0;i<BTN_NUM;i++){
 20007dc:	e0bff617 	ldw	r2,-40(fp)
 20007e0:	10800044 	addi	r2,r2,1
 20007e4:	e0bff615 	stw	r2,-40(fp)
 20007e8:	e0bff617 	ldw	r2,-40(fp)
 20007ec:	10800150 	cmplti	r2,r2,5
 20007f0:	103f9f1e 	bne	r2,zero,2000670 <__alt_mem_pic_mem+0xfdffc670>
    //  vid_print_string_alpha(rc.left+2, rc.top+2, BLACK_24, pDeskInfo->szPalette[active].color, tahomabold_20, pDisplay, "*");
        
    //active = pDeskInfo->Paint1_Index;
    //RectCopy(&rc, &pDeskInfo->szPalette[active].rc);
    //vid_print_string_alpha(rc.left+2, rc.top+2, BLACK_24, pDeskInfo->szPalette[active].color, tahomabold_20, pDisplay, "2");
}
 20007f4:	e6fffe04 	addi	sp,fp,-8
 20007f8:	dfc00317 	ldw	ra,12(sp)
 20007fc:	df000217 	ldw	fp,8(sp)
 2000800:	dc400117 	ldw	r17,4(sp)
 2000804:	dc000017 	ldw	r16,0(sp)
 2000808:	dec00404 	addi	sp,sp,16
 200080c:	f800283a 	ret

02000810 <IsContinuedPoint>:

//----------------------------------------------------------------------------------------------------

bool IsContinuedPoint(POINT *ptPre, POINT *ptNew){
 2000810:	defffb04 	addi	sp,sp,-20
 2000814:	df000415 	stw	fp,16(sp)
 2000818:	df000404 	addi	fp,sp,16
 200081c:	e13ffe15 	stw	r4,-8(fp)
 2000820:	e17fff15 	stw	r5,-4(fp)
    bool bYes = TRUE;
 2000824:	00800044 	movi	r2,1
 2000828:	e0bffc15 	stw	r2,-16(fp)
    const int nMax = 50;
 200082c:	00800c84 	movi	r2,50
 2000830:	e0bffd15 	stw	r2,-12(fp)
    if (abs(ptPre->x - ptNew->x) > nMax)
 2000834:	e0bffe17 	ldw	r2,-8(fp)
 2000838:	10c00017 	ldw	r3,0(r2)
 200083c:	e0bfff17 	ldw	r2,-4(fp)
 2000840:	10800017 	ldw	r2,0(r2)
 2000844:	1885c83a 	sub	r2,r3,r2
 2000848:	1000010e 	bge	r2,zero,2000850 <IsContinuedPoint+0x40>
 200084c:	0085c83a 	sub	r2,zero,r2
 2000850:	1007883a 	mov	r3,r2
 2000854:	e0bffd17 	ldw	r2,-12(fp)
 2000858:	10c0020e 	bge	r2,r3,2000864 <IsContinuedPoint+0x54>
        bYes = FALSE;
 200085c:	e03ffc15 	stw	zero,-16(fp)
 2000860:	00000b06 	br	2000890 <IsContinuedPoint+0x80>
    else if (abs(ptPre->y - ptNew->y) > nMax)
 2000864:	e0bffe17 	ldw	r2,-8(fp)
 2000868:	10c00117 	ldw	r3,4(r2)
 200086c:	e0bfff17 	ldw	r2,-4(fp)
 2000870:	10800117 	ldw	r2,4(r2)
 2000874:	1885c83a 	sub	r2,r3,r2
 2000878:	1000010e 	bge	r2,zero,2000880 <IsContinuedPoint+0x70>
 200087c:	0085c83a 	sub	r2,zero,r2
 2000880:	1007883a 	mov	r3,r2
 2000884:	e0bffd17 	ldw	r2,-12(fp)
 2000888:	10c0010e 	bge	r2,r3,2000890 <IsContinuedPoint+0x80>
        bYes = FALSE;
 200088c:	e03ffc15 	stw	zero,-16(fp)
        
    return bYes;
 2000890:	e0bffc17 	ldw	r2,-16(fp)
}
 2000894:	e037883a 	mov	sp,fp
 2000898:	df000017 	ldw	fp,0(sp)
 200089c:	dec00104 	addi	sp,sp,4
 20008a0:	f800283a 	ret

020008a4 <GUI_ClearPaintArea>:

//----------------------------------------------------------------------------------------------------

void GUI_ClearPaintArea(alt_video_display *pDisplay, DESK_INFO *pDeskInfo){
 20008a4:	defff504 	addi	sp,sp,-44
 20008a8:	dfc00a15 	stw	ra,40(sp)
 20008ac:	df000915 	stw	fp,36(sp)
 20008b0:	df000904 	addi	fp,sp,36
 20008b4:	e13ffe15 	stw	r4,-8(fp)
 20008b8:	e17fff15 	stw	r5,-4(fp)
    RECT rc;
    RectCopy(&rc, &pDeskInfo->rcPaint);
 20008bc:	e0bfff17 	ldw	r2,-4(fp)
 20008c0:	10800104 	addi	r2,r2,4
 20008c4:	e13ffa04 	addi	r4,fp,-24
 20008c8:	100b883a 	mov	r5,r2
 20008cc:	20020200 	call	2002020 <RectCopy>
    RectInflate(&rc, -1, -1);
 20008d0:	e13ffa04 	addi	r4,fp,-24
 20008d4:	017fffc4 	movi	r5,-1
 20008d8:	01bfffc4 	movi	r6,-1
 20008dc:	2001f100 	call	2001f10 <RectInflate>
    vid_draw_box (rc.left, rc.top, rc.right, rc.bottom, BLACK_24, DO_FILL, pDisplay);
 20008e0:	e13ffa17 	ldw	r4,-24(fp)
 20008e4:	e17ffc17 	ldw	r5,-16(fp)
 20008e8:	e1bffb17 	ldw	r6,-20(fp)
 20008ec:	e0fffd17 	ldw	r3,-12(fp)
 20008f0:	d8000015 	stw	zero,0(sp)
 20008f4:	00800044 	movi	r2,1
 20008f8:	d8800115 	stw	r2,4(sp)
 20008fc:	e0bffe17 	ldw	r2,-8(fp)
 2000900:	d8800215 	stw	r2,8(sp)
 2000904:	180f883a 	mov	r7,r3
 2000908:	2002a2c0 	call	2002a2c <vid_draw_box>
    //
  //  RectCopy(&rc, &pDeskInfo->szPalette[BTN_GESTRUE].rc);
  //  vid_draw_box (rc.left, rc.top, rc.right, rc.bottom, BLACK_24, DO_FILL, pDisplay);
}
 200090c:	e037883a 	mov	sp,fp
 2000910:	dfc00117 	ldw	ra,4(sp)
 2000914:	df000017 	ldw	fp,0(sp)
 2000918:	dec00204 	addi	sp,sp,8
 200091c:	f800283a 	ret

02000920 <GUI>:

//----------------------------------------------------------------------------------------------------

void GUI(alt_video_display *pDisplay, TOUCH_HANDLE *pTouch){
 2000920:	deffd004 	addi	sp,sp,-192
 2000924:	dfc02f15 	stw	ra,188(sp)
 2000928:	df002e15 	stw	fp,184(sp)
 200092c:	df002e04 	addi	fp,sp,184
 2000930:	e13ffe15 	stw	r4,-8(fp)
 2000934:	e17fff15 	stw	r5,-4(fp)
    // video
    DESK_INFO DeskInfo;
    int X, Y;
    POINT Pt;
    const int nDotSize = DOT_SIZE;
 2000938:	00800144 	movi	r2,5
 200093c:	e0bfd615 	stw	r2,-168(fp)
    RECT rcTouch;
    int ColorPen, ButtonId;
    bool UpdatePalette;

    // clean screen
    vid_clean_screen(pDisplay, BLACK_24);
 2000940:	e13ffe17 	ldw	r4,-8(fp)
 2000944:	000b883a 	mov	r5,zero
 2000948:	20021e40 	call	20021e4 <vid_clean_screen>
    
    // Show Terasic Welcome
    GUI_ShowWelcome(pDisplay);
 200094c:	e13ffe17 	ldw	r4,-8(fp)
 2000950:	20002080 	call	2000208 <GUI_ShowWelcome>
    usleep(4*1000*1000);
 2000954:	01000f74 	movhi	r4,61
 2000958:	21024004 	addi	r4,r4,2304
 200095c:	200a9d40 	call	200a9d4 <usleep>
    vid_clean_screen(pDisplay, BLACK_24);
 2000960:	e13ffe17 	ldw	r4,-8(fp)
 2000964:	000b883a 	mov	r5,zero
 2000968:	20021e40 	call	20021e4 <vid_clean_screen>

    GUI_DeskInit(pDisplay, &DeskInfo);
 200096c:	e0bfd804 	addi	r2,fp,-160
 2000970:	e13ffe17 	ldw	r4,-8(fp)
 2000974:	100b883a 	mov	r5,r2
 2000978:	20003900 	call	2000390 <GUI_DeskInit>
    GUI_DeskDraw(pDisplay, &DeskInfo);
 200097c:	e0bfd804 	addi	r2,fp,-160
 2000980:	e13ffe17 	ldw	r4,-8(fp)
 2000984:	100b883a 	mov	r5,r2
 2000988:	20005f40 	call	20005f4 <GUI_DeskDraw>
    
    RectCopy(&rcTouch, &DeskInfo.rcPaint);
 200098c:	e0fffa04 	addi	r3,fp,-24
 2000990:	e0bfd804 	addi	r2,fp,-160
 2000994:	10800104 	addi	r2,r2,4
 2000998:	1809883a 	mov	r4,r3
 200099c:	100b883a 	mov	r5,r2
 20009a0:	20020200 	call	2002020 <RectCopy>
    RectInflate(&rcTouch, -nDotSize-2, -nDotSize-2);
 20009a4:	00ffff84 	movi	r3,-2
 20009a8:	e0bfd617 	ldw	r2,-168(fp)
 20009ac:	188bc83a 	sub	r5,r3,r2
 20009b0:	00ffff84 	movi	r3,-2
 20009b4:	e0bfd617 	ldw	r2,-168(fp)
 20009b8:	1885c83a 	sub	r2,r3,r2
 20009bc:	e0fffa04 	addi	r3,fp,-24
 20009c0:	1809883a 	mov	r4,r3
 20009c4:	100d883a 	mov	r6,r2
 20009c8:	2001f100 	call	2001f10 <RectInflate>
    
    ColorPen = DeskInfo.szPalette[DeskInfo.Paint_Index].color;
 20009cc:	e0bfd817 	ldw	r2,-160(fp)
 20009d0:	10800524 	muli	r2,r2,20
 20009d4:	e0ffd404 	addi	r3,fp,-176
 20009d8:	1885883a 	add	r2,r3,r2
 20009dc:	10800d04 	addi	r2,r2,52
 20009e0:	10800017 	ldw	r2,0(r2)
 20009e4:	e0bfd415 	stw	r2,-176(fp)
   //  printf("ContinuedTime=%d\r\n", ContinuedTime);
   // PtSet(&ptGesture, DeskInfo.szPalette[BTN_GESTRUE].rc.left+5, DeskInfo.szPalette[BTN_GESTRUE].rc.top+5);

    while(1){
            // touch
            if (Touch_GetXY(pTouch, &X, &Y)){
 20009e8:	e0fff604 	addi	r3,fp,-40
 20009ec:	e0bff704 	addi	r2,fp,-36
 20009f0:	e13fff17 	ldw	r4,-4(fp)
 20009f4:	180b883a 	mov	r5,r3
 20009f8:	100d883a 	mov	r6,r2
 20009fc:	200557c0 	call	200557c <Touch_GetXY>
 2000a00:	10004d26 	beq	r2,zero,2000b38 <GUI+0x218>

                printf("x=%d, y=%d\r\n", X,Y);
 2000a04:	e0fff617 	ldw	r3,-40(fp)
 2000a08:	e0bff717 	ldw	r2,-36(fp)
 2000a0c:	01008074 	movhi	r4,513
 2000a10:	212fa504 	addi	r4,r4,-16748
 2000a14:	180b883a 	mov	r5,r3
 2000a18:	100d883a 	mov	r6,r2
 2000a1c:	2008e440 	call	2008e44 <printf>
                PtSet(&Pt, X, Y);
 2000a20:	e0fff617 	ldw	r3,-40(fp)
 2000a24:	e0bff717 	ldw	r2,-36(fp)
 2000a28:	e13ff804 	addi	r4,fp,-32
 2000a2c:	180b883a 	mov	r5,r3
 2000a30:	100d883a 	mov	r6,r2
 2000a34:	2001e740 	call	2001e74 <PtSet>


                //   printf("t:%d, %d\r\n", (int)alt_nticks(), LastTimePt1);
                if ( IsPtInRect(&Pt, &rcTouch)){
 2000a38:	e0fff804 	addi	r3,fp,-32
 2000a3c:	e0bffa04 	addi	r2,fp,-24
 2000a40:	1809883a 	mov	r4,r3
 2000a44:	100b883a 	mov	r5,r2
 2000a48:	2001df00 	call	2001df0 <IsPtInRect>
 2000a4c:	10000b26 	beq	r2,zero,2000a7c <GUI+0x15c>

                    vid_draw_circle(Pt.x, Pt.y, nDotSize, ColorPen, DO_FILL, pDisplay);
 2000a50:	e13ff817 	ldw	r4,-32(fp)
 2000a54:	e0fff917 	ldw	r3,-28(fp)
 2000a58:	00800044 	movi	r2,1
 2000a5c:	d8800015 	stw	r2,0(sp)
 2000a60:	e0bffe17 	ldw	r2,-8(fp)
 2000a64:	d8800115 	stw	r2,4(sp)
 2000a68:	180b883a 	mov	r5,r3
 2000a6c:	e1bfd617 	ldw	r6,-168(fp)
 2000a70:	e1ffd417 	ldw	r7,-176(fp)
 2000a74:	20032500 	call	2003250 <vid_draw_circle>
 2000a78:	00002f06 	br	2000b38 <GUI+0x218>

                }else if (GUI_CheckButton(&DeskInfo, &Pt) == BTN_CLEAR){
 2000a7c:	e0ffd804 	addi	r3,fp,-160
 2000a80:	e0bff804 	addi	r2,fp,-32
 2000a84:	1809883a 	mov	r4,r3
 2000a88:	100b883a 	mov	r5,r2
 2000a8c:	20005640 	call	2000564 <GUI_CheckButton>
 2000a90:	1000071e 	bne	r2,zero,2000ab0 <GUI+0x190>
                    GUI_ClearPaintArea(pDisplay, &DeskInfo);
 2000a94:	e0bfd804 	addi	r2,fp,-160
 2000a98:	e13ffe17 	ldw	r4,-8(fp)
 2000a9c:	100b883a 	mov	r5,r2
 2000aa0:	20008a40 	call	20008a4 <GUI_ClearPaintArea>
                    Touch_EmptyFifo(pTouch);
 2000aa4:	e13fff17 	ldw	r4,-4(fp)
 2000aa8:	20055440 	call	2005544 <Touch_EmptyFifo>
 2000aac:	00002206 	br	2000b38 <GUI+0x218>
                }else {
                    ButtonId = GUI_CheckButton(&DeskInfo, &Pt);
 2000ab0:	e0ffd804 	addi	r3,fp,-160
 2000ab4:	e0bff804 	addi	r2,fp,-32
 2000ab8:	1809883a 	mov	r4,r3
 2000abc:	100b883a 	mov	r5,r2
 2000ac0:	20005640 	call	2000564 <GUI_CheckButton>
 2000ac4:	e0bfd715 	stw	r2,-164(fp)
                    UpdatePalette = FALSE;
 2000ac8:	e03fd515 	stw	zero,-172(fp)
                    if (ButtonId != BTN_NONE && ButtonId != BTN_CLEAR){
 2000acc:	e0bfd717 	ldw	r2,-164(fp)
 2000ad0:	108001a0 	cmpeqi	r2,r2,6
 2000ad4:	1000181e 	bne	r2,zero,2000b38 <GUI+0x218>
 2000ad8:	e0bfd717 	ldw	r2,-164(fp)
 2000adc:	10001626 	beq	r2,zero,2000b38 <GUI+0x218>
                        // chang draw color
                        if ( ButtonId != DeskInfo.Paint_Index ){
 2000ae0:	e0ffd817 	ldw	r3,-160(fp)
 2000ae4:	e0bfd717 	ldw	r2,-164(fp)
 2000ae8:	18800426 	beq	r3,r2,2000afc <GUI+0x1dc>
                            DeskInfo.Paint_Index = ButtonId;
 2000aec:	e0bfd717 	ldw	r2,-164(fp)
 2000af0:	e0bfd815 	stw	r2,-160(fp)
                            UpdatePalette = TRUE;
 2000af4:	00800044 	movi	r2,1
 2000af8:	e0bfd515 	stw	r2,-172(fp)
                        }

                        if (UpdatePalette){
 2000afc:	e0bfd517 	ldw	r2,-172(fp)
 2000b00:	10000d26 	beq	r2,zero,2000b38 <GUI+0x218>
                            ColorPen = DeskInfo.szPalette[DeskInfo.Paint_Index].color;
 2000b04:	e0bfd817 	ldw	r2,-160(fp)
 2000b08:	10800524 	muli	r2,r2,20
 2000b0c:	e0ffd404 	addi	r3,fp,-176
 2000b10:	1885883a 	add	r2,r3,r2
 2000b14:	10800d04 	addi	r2,r2,52
 2000b18:	10800017 	ldw	r2,0(r2)
 2000b1c:	e0bfd415 	stw	r2,-176(fp)
                            GUI_DeskDraw(pDisplay, &DeskInfo);
 2000b20:	e0bfd804 	addi	r2,fp,-160
 2000b24:	e13ffe17 	ldw	r4,-8(fp)
 2000b28:	100b883a 	mov	r5,r2
 2000b2c:	20005f40 	call	20005f4 <GUI_DeskDraw>
                            Touch_EmptyFifo(pTouch);
 2000b30:	e13fff17 	ldw	r4,-4(fp)
 2000b34:	20055440 	call	2005544 <Touch_EmptyFifo>
                        }
                    }
                }
            } // if touch
        } // while
 2000b38:	003fab06 	br	20009e8 <__alt_mem_pic_mem+0xfdffc9e8>

02000b3c <ShowInfo>:
#include "../graphic_lib/simple_graphics.h"
#include "../graphic_lib/geometry.h"



void ShowInfo(alt_video_display *pDisplay, char *pText){
 2000b3c:	defff904 	addi	sp,sp,-28
 2000b40:	dfc00615 	stw	ra,24(sp)
 2000b44:	df000515 	stw	fp,20(sp)
 2000b48:	df000504 	addi	fp,sp,20
 2000b4c:	e13ffe15 	stw	r4,-8(fp)
 2000b50:	e17fff15 	stw	r5,-4(fp)
    vid_print_string_alpha(1, 1, WHITE_24, BLACK_24, tahomabold_20, pDisplay, pText);
 2000b54:	008080b4 	movhi	r2,514
 2000b58:	10978a04 	addi	r2,r2,24104
 2000b5c:	d8800015 	stw	r2,0(sp)
 2000b60:	e0bffe17 	ldw	r2,-8(fp)
 2000b64:	d8800115 	stw	r2,4(sp)
 2000b68:	e0bfff17 	ldw	r2,-4(fp)
 2000b6c:	d8800215 	stw	r2,8(sp)
 2000b70:	01000044 	movi	r4,1
 2000b74:	01400044 	movi	r5,1
 2000b78:	01804034 	movhi	r6,256
 2000b7c:	31bfffc4 	addi	r6,r6,-1
 2000b80:	000f883a 	mov	r7,zero
 2000b84:	20048380 	call	2004838 <vid_print_string_alpha>
}
 2000b88:	e037883a 	mov	sp,fp
 2000b8c:	dfc00117 	ldw	ra,4(sp)
 2000b90:	df000017 	ldw	fp,0(sp)
 2000b94:	dec00204 	addi	sp,sp,8
 2000b98:	f800283a 	ret

02000b9c <VPG_XLine>:


void VPG_XLine(alt_video_display *pDisplay){
 2000b9c:	defffe04 	addi	sp,sp,-8
 2000ba0:	df000115 	stw	fp,4(sp)
 2000ba4:	df000104 	addi	fp,sp,4
 2000ba8:	e13fff15 	stw	r4,-4(fp)
return ;
 2000bac:	0001883a 	nop

    // show text
    ShowInfo(pDisplay, "X Line");


}
 2000bb0:	e037883a 	mov	sp,fp
 2000bb4:	df000017 	ldw	fp,0(sp)
 2000bb8:	dec00104 	addi	sp,sp,4
 2000bbc:	f800283a 	ret

02000bc0 <VPG_ColorPanel>:


void VPG_ColorPanel(alt_video_display *pDisplay, alt_u32 Color){
 2000bc0:	defff204 	addi	sp,sp,-56
 2000bc4:	dfc00d15 	stw	ra,52(sp)
 2000bc8:	df000c15 	stw	fp,48(sp)
 2000bcc:	df000c04 	addi	fp,sp,48
 2000bd0:	e13ffe15 	stw	r4,-8(fp)
 2000bd4:	e17fff15 	stw	r5,-4(fp)
    int x, y;
    char szText[32];

    for(y=0;y<pDisplay->height;y++){
 2000bd8:	e03ff515 	stw	zero,-44(fp)
 2000bdc:	00001106 	br	2000c24 <VPG_ColorPanel+0x64>
        for(x=0;x<pDisplay->width;x++){
 2000be0:	e03ff415 	stw	zero,-48(fp)
 2000be4:	00000806 	br	2000c08 <VPG_ColorPanel+0x48>
        	vid_set_pixel(x,y,Color, pDisplay);
 2000be8:	e13ff417 	ldw	r4,-48(fp)
 2000bec:	e17ff517 	ldw	r5,-44(fp)
 2000bf0:	e1bfff17 	ldw	r6,-4(fp)
 2000bf4:	e1fffe17 	ldw	r7,-8(fp)
 2000bf8:	2002c640 	call	2002c64 <vid_set_pixel>
void VPG_ColorPanel(alt_video_display *pDisplay, alt_u32 Color){
    int x, y;
    char szText[32];

    for(y=0;y<pDisplay->height;y++){
        for(x=0;x<pDisplay->width;x++){
 2000bfc:	e0bff417 	ldw	r2,-48(fp)
 2000c00:	10800044 	addi	r2,r2,1
 2000c04:	e0bff415 	stw	r2,-48(fp)
 2000c08:	e0bffe17 	ldw	r2,-8(fp)
 2000c0c:	10800117 	ldw	r2,4(r2)
 2000c10:	e0fff417 	ldw	r3,-48(fp)
 2000c14:	18bff416 	blt	r3,r2,2000be8 <__alt_mem_pic_mem+0xfdffcbe8>

void VPG_ColorPanel(alt_video_display *pDisplay, alt_u32 Color){
    int x, y;
    char szText[32];

    for(y=0;y<pDisplay->height;y++){
 2000c18:	e0bff517 	ldw	r2,-44(fp)
 2000c1c:	10800044 	addi	r2,r2,1
 2000c20:	e0bff515 	stw	r2,-44(fp)
 2000c24:	e0bffe17 	ldw	r2,-8(fp)
 2000c28:	10800217 	ldw	r2,8(r2)
 2000c2c:	e0fff517 	ldw	r3,-44(fp)
 2000c30:	18bfeb16 	blt	r3,r2,2000be0 <__alt_mem_pic_mem+0xfdffcbe0>
        	vid_set_pixel(x,y,Color, pDisplay);
        }
    }

    // show text
    sprintf(szText,"Panel: %08xh", (unsigned int) Color);
 2000c34:	e0bff604 	addi	r2,fp,-40
 2000c38:	1009883a 	mov	r4,r2
 2000c3c:	01408074 	movhi	r5,513
 2000c40:	296fa904 	addi	r5,r5,-16732
 2000c44:	e1bfff17 	ldw	r6,-4(fp)
 2000c48:	2008fd80 	call	2008fd8 <sprintf>
    ShowInfo(pDisplay, szText);
 2000c4c:	e0bff604 	addi	r2,fp,-40
 2000c50:	e13ffe17 	ldw	r4,-8(fp)
 2000c54:	100b883a 	mov	r5,r2
 2000c58:	2000b3c0 	call	2000b3c <ShowInfo>



}
 2000c5c:	e037883a 	mov	sp,fp
 2000c60:	dfc00117 	ldw	ra,4(sp)
 2000c64:	df000017 	ldw	fp,0(sp)
 2000c68:	dec00204 	addi	sp,sp,8
 2000c6c:	f800283a 	ret

02000c70 <VPG_Grid>:

void VPG_Grid(alt_video_display *pDisplay, alt_u8 GridSize){
 2000c70:	defff104 	addi	sp,sp,-60
 2000c74:	dfc00e15 	stw	ra,56(sp)
 2000c78:	df000d15 	stw	fp,52(sp)
 2000c7c:	df000d04 	addi	fp,sp,52
 2000c80:	e13ffe15 	stw	r4,-8(fp)
 2000c84:	2805883a 	mov	r2,r5
 2000c88:	e0bfff05 	stb	r2,-4(fp)
    int x,y;
    alt_u32 Value32;
    char szText[32];


    for(y=0;y<pDisplay->height;y++){
 2000c8c:	e03ff415 	stw	zero,-48(fp)
 2000c90:	00002206 	br	2000d1c <VPG_Grid+0xac>
        for(x=0;x<pDisplay->width;x++){
 2000c94:	e03ff315 	stw	zero,-52(fp)
 2000c98:	00001906 	br	2000d00 <VPG_Grid+0x90>
            if (x%GridSize == 0 || y%GridSize == 0)
 2000c9c:	e0bfff03 	ldbu	r2,-4(fp)
 2000ca0:	e0fff317 	ldw	r3,-52(fp)
 2000ca4:	1809883a 	mov	r4,r3
 2000ca8:	100b883a 	mov	r5,r2
 2000cac:	20062a00 	call	20062a0 <__modsi3>
 2000cb0:	10000626 	beq	r2,zero,2000ccc <VPG_Grid+0x5c>
 2000cb4:	e0bfff03 	ldbu	r2,-4(fp)
 2000cb8:	e0fff417 	ldw	r3,-48(fp)
 2000cbc:	1809883a 	mov	r4,r3
 2000cc0:	100b883a 	mov	r5,r2
 2000cc4:	20062a00 	call	20062a0 <__modsi3>
 2000cc8:	1000041e 	bne	r2,zero,2000cdc <VPG_Grid+0x6c>
                Value32 = WHITE_24;
 2000ccc:	00804034 	movhi	r2,256
 2000cd0:	10bfffc4 	addi	r2,r2,-1
 2000cd4:	e0bff515 	stw	r2,-44(fp)
 2000cd8:	00000106 	br	2000ce0 <VPG_Grid+0x70>
            else
                Value32 = BLACK_24;
 2000cdc:	e03ff515 	stw	zero,-44(fp)
            vid_set_pixel(x,y,Value32, pDisplay);
 2000ce0:	e13ff317 	ldw	r4,-52(fp)
 2000ce4:	e17ff417 	ldw	r5,-48(fp)
 2000ce8:	e1bff517 	ldw	r6,-44(fp)
 2000cec:	e1fffe17 	ldw	r7,-8(fp)
 2000cf0:	2002c640 	call	2002c64 <vid_set_pixel>
    alt_u32 Value32;
    char szText[32];


    for(y=0;y<pDisplay->height;y++){
        for(x=0;x<pDisplay->width;x++){
 2000cf4:	e0bff317 	ldw	r2,-52(fp)
 2000cf8:	10800044 	addi	r2,r2,1
 2000cfc:	e0bff315 	stw	r2,-52(fp)
 2000d00:	e0bffe17 	ldw	r2,-8(fp)
 2000d04:	10800117 	ldw	r2,4(r2)
 2000d08:	e0fff317 	ldw	r3,-52(fp)
 2000d0c:	18bfe316 	blt	r3,r2,2000c9c <__alt_mem_pic_mem+0xfdffcc9c>
    int x,y;
    alt_u32 Value32;
    char szText[32];


    for(y=0;y<pDisplay->height;y++){
 2000d10:	e0bff417 	ldw	r2,-48(fp)
 2000d14:	10800044 	addi	r2,r2,1
 2000d18:	e0bff415 	stw	r2,-48(fp)
 2000d1c:	e0bffe17 	ldw	r2,-8(fp)
 2000d20:	10800217 	ldw	r2,8(r2)
 2000d24:	e0fff417 	ldw	r3,-48(fp)
 2000d28:	18bfda16 	blt	r3,r2,2000c94 <__alt_mem_pic_mem+0xfdffcc94>
            vid_set_pixel(x,y,Value32, pDisplay);
        }

    }
    // show text
    sprintf(szText,"Grid%d", GridSize);
 2000d2c:	e0bfff03 	ldbu	r2,-4(fp)
 2000d30:	e0fff604 	addi	r3,fp,-40
 2000d34:	1809883a 	mov	r4,r3
 2000d38:	01408074 	movhi	r5,513
 2000d3c:	296fad04 	addi	r5,r5,-16716
 2000d40:	100d883a 	mov	r6,r2
 2000d44:	2008fd80 	call	2008fd8 <sprintf>
    ShowInfo(pDisplay, szText);
 2000d48:	e0bff604 	addi	r2,fp,-40
 2000d4c:	e13ffe17 	ldw	r4,-8(fp)
 2000d50:	100b883a 	mov	r5,r2
 2000d54:	2000b3c0 	call	2000b3c <ShowInfo>

}
 2000d58:	e037883a 	mov	sp,fp
 2000d5c:	dfc00117 	ldw	ra,4(sp)
 2000d60:	df000017 	ldw	fp,0(sp)
 2000d64:	dec00204 	addi	sp,sp,8
 2000d68:	f800283a 	ret

02000d6c <VPG_VGrid>:

void VPG_VGrid(alt_video_display *pDisplay, alt_u8 GridSize){
 2000d6c:	defff104 	addi	sp,sp,-60
 2000d70:	dfc00e15 	stw	ra,56(sp)
 2000d74:	df000d15 	stw	fp,52(sp)
 2000d78:	df000d04 	addi	fp,sp,52
 2000d7c:	e13ffe15 	stw	r4,-8(fp)
 2000d80:	2805883a 	mov	r2,r5
 2000d84:	e0bfff05 	stb	r2,-4(fp)
    int x,y;
    alt_u32 Value32;
    char szText[32];


    for(y=0;y<pDisplay->height;y++){
 2000d88:	e03ff415 	stw	zero,-48(fp)
 2000d8c:	00001c06 	br	2000e00 <VPG_VGrid+0x94>
        for(x=0;x<pDisplay->width;x++){
 2000d90:	e03ff315 	stw	zero,-52(fp)
 2000d94:	00001306 	br	2000de4 <VPG_VGrid+0x78>
            if (x%GridSize == 0)
 2000d98:	e0bfff03 	ldbu	r2,-4(fp)
 2000d9c:	e0fff317 	ldw	r3,-52(fp)
 2000da0:	1809883a 	mov	r4,r3
 2000da4:	100b883a 	mov	r5,r2
 2000da8:	20062a00 	call	20062a0 <__modsi3>
 2000dac:	1000041e 	bne	r2,zero,2000dc0 <VPG_VGrid+0x54>
                Value32 = WHITE_24;
 2000db0:	00804034 	movhi	r2,256
 2000db4:	10bfffc4 	addi	r2,r2,-1
 2000db8:	e0bff515 	stw	r2,-44(fp)
 2000dbc:	00000106 	br	2000dc4 <VPG_VGrid+0x58>
            else
                Value32 = BLACK_24;
 2000dc0:	e03ff515 	stw	zero,-44(fp)
            vid_set_pixel(x,y,Value32, pDisplay);
 2000dc4:	e13ff317 	ldw	r4,-52(fp)
 2000dc8:	e17ff417 	ldw	r5,-48(fp)
 2000dcc:	e1bff517 	ldw	r6,-44(fp)
 2000dd0:	e1fffe17 	ldw	r7,-8(fp)
 2000dd4:	2002c640 	call	2002c64 <vid_set_pixel>
    alt_u32 Value32;
    char szText[32];


    for(y=0;y<pDisplay->height;y++){
        for(x=0;x<pDisplay->width;x++){
 2000dd8:	e0bff317 	ldw	r2,-52(fp)
 2000ddc:	10800044 	addi	r2,r2,1
 2000de0:	e0bff315 	stw	r2,-52(fp)
 2000de4:	e0bffe17 	ldw	r2,-8(fp)
 2000de8:	10800117 	ldw	r2,4(r2)
 2000dec:	e0fff317 	ldw	r3,-52(fp)
 2000df0:	18bfe916 	blt	r3,r2,2000d98 <__alt_mem_pic_mem+0xfdffcd98>
    int x,y;
    alt_u32 Value32;
    char szText[32];


    for(y=0;y<pDisplay->height;y++){
 2000df4:	e0bff417 	ldw	r2,-48(fp)
 2000df8:	10800044 	addi	r2,r2,1
 2000dfc:	e0bff415 	stw	r2,-48(fp)
 2000e00:	e0bffe17 	ldw	r2,-8(fp)
 2000e04:	10800217 	ldw	r2,8(r2)
 2000e08:	e0fff417 	ldw	r3,-48(fp)
 2000e0c:	18bfe016 	blt	r3,r2,2000d90 <__alt_mem_pic_mem+0xfdffcd90>
            vid_set_pixel(x,y,Value32, pDisplay);
        }

    }
    // show text
    sprintf(szText,"VGrid%d", GridSize);
 2000e10:	e0bfff03 	ldbu	r2,-4(fp)
 2000e14:	e0fff604 	addi	r3,fp,-40
 2000e18:	1809883a 	mov	r4,r3
 2000e1c:	01408074 	movhi	r5,513
 2000e20:	296faf04 	addi	r5,r5,-16708
 2000e24:	100d883a 	mov	r6,r2
 2000e28:	2008fd80 	call	2008fd8 <sprintf>
    ShowInfo(pDisplay, szText);
 2000e2c:	e0bff604 	addi	r2,fp,-40
 2000e30:	e13ffe17 	ldw	r4,-8(fp)
 2000e34:	100b883a 	mov	r5,r2
 2000e38:	2000b3c0 	call	2000b3c <ShowInfo>

}
 2000e3c:	e037883a 	mov	sp,fp
 2000e40:	dfc00117 	ldw	ra,4(sp)
 2000e44:	df000017 	ldw	fp,0(sp)
 2000e48:	dec00204 	addi	sp,sp,8
 2000e4c:	f800283a 	ret

02000e50 <VPG_HGrid>:

void VPG_HGrid(alt_video_display *pDisplay, alt_u8 GridSize){
 2000e50:	defff104 	addi	sp,sp,-60
 2000e54:	dfc00e15 	stw	ra,56(sp)
 2000e58:	df000d15 	stw	fp,52(sp)
 2000e5c:	df000d04 	addi	fp,sp,52
 2000e60:	e13ffe15 	stw	r4,-8(fp)
 2000e64:	2805883a 	mov	r2,r5
 2000e68:	e0bfff05 	stb	r2,-4(fp)
    int x,y;
    alt_u32 Value32;
    char szText[32];

    for(y=0;y<pDisplay->height;y++){
 2000e6c:	e03ff415 	stw	zero,-48(fp)
 2000e70:	00001c06 	br	2000ee4 <VPG_HGrid+0x94>
        for(x=0;x<pDisplay->width;x++){
 2000e74:	e03ff315 	stw	zero,-52(fp)
 2000e78:	00001306 	br	2000ec8 <VPG_HGrid+0x78>
            if (y%GridSize == 0)
 2000e7c:	e0bfff03 	ldbu	r2,-4(fp)
 2000e80:	e0fff417 	ldw	r3,-48(fp)
 2000e84:	1809883a 	mov	r4,r3
 2000e88:	100b883a 	mov	r5,r2
 2000e8c:	20062a00 	call	20062a0 <__modsi3>
 2000e90:	1000041e 	bne	r2,zero,2000ea4 <VPG_HGrid+0x54>
                Value32 = WHITE_24;
 2000e94:	00804034 	movhi	r2,256
 2000e98:	10bfffc4 	addi	r2,r2,-1
 2000e9c:	e0bff515 	stw	r2,-44(fp)
 2000ea0:	00000106 	br	2000ea8 <VPG_HGrid+0x58>
            else
                Value32 = BLACK_24;
 2000ea4:	e03ff515 	stw	zero,-44(fp)
            vid_set_pixel(x,y,Value32, pDisplay);
 2000ea8:	e13ff317 	ldw	r4,-52(fp)
 2000eac:	e17ff417 	ldw	r5,-48(fp)
 2000eb0:	e1bff517 	ldw	r6,-44(fp)
 2000eb4:	e1fffe17 	ldw	r7,-8(fp)
 2000eb8:	2002c640 	call	2002c64 <vid_set_pixel>
    int x,y;
    alt_u32 Value32;
    char szText[32];

    for(y=0;y<pDisplay->height;y++){
        for(x=0;x<pDisplay->width;x++){
 2000ebc:	e0bff317 	ldw	r2,-52(fp)
 2000ec0:	10800044 	addi	r2,r2,1
 2000ec4:	e0bff315 	stw	r2,-52(fp)
 2000ec8:	e0bffe17 	ldw	r2,-8(fp)
 2000ecc:	10800117 	ldw	r2,4(r2)
 2000ed0:	e0fff317 	ldw	r3,-52(fp)
 2000ed4:	18bfe916 	blt	r3,r2,2000e7c <__alt_mem_pic_mem+0xfdffce7c>
void VPG_HGrid(alt_video_display *pDisplay, alt_u8 GridSize){
    int x,y;
    alt_u32 Value32;
    char szText[32];

    for(y=0;y<pDisplay->height;y++){
 2000ed8:	e0bff417 	ldw	r2,-48(fp)
 2000edc:	10800044 	addi	r2,r2,1
 2000ee0:	e0bff415 	stw	r2,-48(fp)
 2000ee4:	e0bffe17 	ldw	r2,-8(fp)
 2000ee8:	10800217 	ldw	r2,8(r2)
 2000eec:	e0fff417 	ldw	r3,-48(fp)
 2000ef0:	18bfe016 	blt	r3,r2,2000e74 <__alt_mem_pic_mem+0xfdffce74>
            vid_set_pixel(x,y,Value32, pDisplay);
        }

    }
    // show text
    sprintf(szText,"HGrid%d", GridSize);
 2000ef4:	e0bfff03 	ldbu	r2,-4(fp)
 2000ef8:	e0fff604 	addi	r3,fp,-40
 2000efc:	1809883a 	mov	r4,r3
 2000f00:	01408074 	movhi	r5,513
 2000f04:	296fb104 	addi	r5,r5,-16700
 2000f08:	100d883a 	mov	r6,r2
 2000f0c:	2008fd80 	call	2008fd8 <sprintf>
    ShowInfo(pDisplay, szText);
 2000f10:	e0bff604 	addi	r2,fp,-40
 2000f14:	e13ffe17 	ldw	r4,-8(fp)
 2000f18:	100b883a 	mov	r5,r2
 2000f1c:	2000b3c0 	call	2000b3c <ShowInfo>

}
 2000f20:	e037883a 	mov	sp,fp
 2000f24:	dfc00117 	ldw	ra,4(sp)
 2000f28:	df000017 	ldw	fp,0(sp)
 2000f2c:	dec00204 	addi	sp,sp,8
 2000f30:	f800283a 	ret

02000f34 <VPG_ColorBar>:




void VPG_ColorBar(alt_video_display *pDisplay){
 2000f34:	defffa04 	addi	sp,sp,-24
 2000f38:	dfc00515 	stw	ra,20(sp)
 2000f3c:	df000415 	stw	fp,16(sp)
 2000f40:	df000404 	addi	fp,sp,16
 2000f44:	e13fff15 	stw	r4,-4(fp)
    int x,y;
    alt_u32 Value32;

    for(y=0;y<pDisplay->height;y++){
 2000f48:	e03ffd15 	stw	zero,-12(fp)
 2000f4c:	00005c06 	br	20010c0 <VPG_ColorBar+0x18c>
        for(x=0;x<pDisplay->width;x++){
 2000f50:	e03ffc15 	stw	zero,-16(fp)
 2000f54:	00005306 	br	20010a4 <VPG_ColorBar+0x170>
            if (x == 0 || y == 0 || x == pDisplay->width-1 || y == pDisplay->height-1){
 2000f58:	e0bffc17 	ldw	r2,-16(fp)
 2000f5c:	10000c26 	beq	r2,zero,2000f90 <VPG_ColorBar+0x5c>
 2000f60:	e0bffd17 	ldw	r2,-12(fp)
 2000f64:	10000a26 	beq	r2,zero,2000f90 <VPG_ColorBar+0x5c>
 2000f68:	e0bfff17 	ldw	r2,-4(fp)
 2000f6c:	10800117 	ldw	r2,4(r2)
 2000f70:	10ffffc4 	addi	r3,r2,-1
 2000f74:	e0bffc17 	ldw	r2,-16(fp)
 2000f78:	18800526 	beq	r3,r2,2000f90 <VPG_ColorBar+0x5c>
 2000f7c:	e0bfff17 	ldw	r2,-4(fp)
 2000f80:	10800217 	ldw	r2,8(r2)
 2000f84:	10ffffc4 	addi	r3,r2,-1
 2000f88:	e0bffd17 	ldw	r2,-12(fp)
 2000f8c:	1880041e 	bne	r3,r2,2000fa0 <VPG_ColorBar+0x6c>
                Value32 = WHITE_24;
 2000f90:	00804034 	movhi	r2,256
 2000f94:	10bfffc4 	addi	r2,r2,-1
 2000f98:	e0bffe15 	stw	r2,-8(fp)
 2000f9c:	00003906 	br	2001084 <VPG_ColorBar+0x150>
            }else if (y < pDisplay->height/4){
 2000fa0:	e0bfff17 	ldw	r2,-4(fp)
 2000fa4:	10800217 	ldw	r2,8(r2)
 2000fa8:	1000010e 	bge	r2,zero,2000fb0 <VPG_ColorBar+0x7c>
 2000fac:	108000c4 	addi	r2,r2,3
 2000fb0:	1005d0ba 	srai	r2,r2,2
 2000fb4:	1007883a 	mov	r3,r2
 2000fb8:	e0bffd17 	ldw	r2,-12(fp)
 2000fbc:	10c0040e 	bge	r2,r3,2000fd0 <VPG_ColorBar+0x9c>
                // red
                Value32 = x & 0xFF;
 2000fc0:	e0bffc17 	ldw	r2,-16(fp)
 2000fc4:	10803fcc 	andi	r2,r2,255
 2000fc8:	e0bffe15 	stw	r2,-8(fp)
 2000fcc:	00002d06 	br	2001084 <VPG_ColorBar+0x150>
            }else if (y < pDisplay->height/2){
 2000fd0:	e0bfff17 	ldw	r2,-4(fp)
 2000fd4:	10800217 	ldw	r2,8(r2)
 2000fd8:	1006d7fa 	srli	r3,r2,31
 2000fdc:	1885883a 	add	r2,r3,r2
 2000fe0:	1005d07a 	srai	r2,r2,1
 2000fe4:	1007883a 	mov	r3,r2
 2000fe8:	e0bffd17 	ldw	r2,-12(fp)
 2000fec:	10c0050e 	bge	r2,r3,2001004 <VPG_ColorBar+0xd0>
                Value32 = (x & 0xFF) << 8;
 2000ff0:	e0bffc17 	ldw	r2,-16(fp)
 2000ff4:	1004923a 	slli	r2,r2,8
 2000ff8:	10bfffcc 	andi	r2,r2,65535
 2000ffc:	e0bffe15 	stw	r2,-8(fp)
 2001000:	00002006 	br	2001084 <VPG_ColorBar+0x150>
            }else if (y < pDisplay->height*3/4){
 2001004:	e0bfff17 	ldw	r2,-4(fp)
 2001008:	10c00217 	ldw	r3,8(r2)
 200100c:	1805883a 	mov	r2,r3
 2001010:	1085883a 	add	r2,r2,r2
 2001014:	10c5883a 	add	r2,r2,r3
 2001018:	1000010e 	bge	r2,zero,2001020 <VPG_ColorBar+0xec>
 200101c:	108000c4 	addi	r2,r2,3
 2001020:	1005d0ba 	srai	r2,r2,2
 2001024:	1007883a 	mov	r3,r2
 2001028:	e0bffd17 	ldw	r2,-12(fp)
 200102c:	10c0050e 	bge	r2,r3,2001044 <VPG_ColorBar+0x110>
                Value32 = (x & 0xFF) << 16;
 2001030:	e0bffc17 	ldw	r2,-16(fp)
 2001034:	10803fcc 	andi	r2,r2,255
 2001038:	1004943a 	slli	r2,r2,16
 200103c:	e0bffe15 	stw	r2,-8(fp)
 2001040:	00001006 	br	2001084 <VPG_ColorBar+0x150>
            }else{
                Value32 = x & 0xFF;
 2001044:	e0bffc17 	ldw	r2,-16(fp)
 2001048:	10803fcc 	andi	r2,r2,255
 200104c:	e0bffe15 	stw	r2,-8(fp)
                Value32 |= (x & 0xFF) << 8;
 2001050:	e0bffc17 	ldw	r2,-16(fp)
 2001054:	1004923a 	slli	r2,r2,8
 2001058:	10bfffcc 	andi	r2,r2,65535
 200105c:	e0fffe17 	ldw	r3,-8(fp)
 2001060:	1884b03a 	or	r2,r3,r2
 2001064:	e0bffe15 	stw	r2,-8(fp)
                Value32 |= (x & 0xFF) << 16;
 2001068:	e0bffc17 	ldw	r2,-16(fp)
 200106c:	10803fcc 	andi	r2,r2,255
 2001070:	1004943a 	slli	r2,r2,16
 2001074:	1007883a 	mov	r3,r2
 2001078:	e0bffe17 	ldw	r2,-8(fp)
 200107c:	10c4b03a 	or	r2,r2,r3
 2001080:	e0bffe15 	stw	r2,-8(fp)
            }
            vid_set_pixel(x,y,Value32, pDisplay);
 2001084:	e13ffc17 	ldw	r4,-16(fp)
 2001088:	e17ffd17 	ldw	r5,-12(fp)
 200108c:	e1bffe17 	ldw	r6,-8(fp)
 2001090:	e1ffff17 	ldw	r7,-4(fp)
 2001094:	2002c640 	call	2002c64 <vid_set_pixel>
void VPG_ColorBar(alt_video_display *pDisplay){
    int x,y;
    alt_u32 Value32;

    for(y=0;y<pDisplay->height;y++){
        for(x=0;x<pDisplay->width;x++){
 2001098:	e0bffc17 	ldw	r2,-16(fp)
 200109c:	10800044 	addi	r2,r2,1
 20010a0:	e0bffc15 	stw	r2,-16(fp)
 20010a4:	e0bfff17 	ldw	r2,-4(fp)
 20010a8:	10800117 	ldw	r2,4(r2)
 20010ac:	e0fffc17 	ldw	r3,-16(fp)
 20010b0:	18bfa916 	blt	r3,r2,2000f58 <__alt_mem_pic_mem+0xfdffcf58>

void VPG_ColorBar(alt_video_display *pDisplay){
    int x,y;
    alt_u32 Value32;

    for(y=0;y<pDisplay->height;y++){
 20010b4:	e0bffd17 	ldw	r2,-12(fp)
 20010b8:	10800044 	addi	r2,r2,1
 20010bc:	e0bffd15 	stw	r2,-12(fp)
 20010c0:	e0bfff17 	ldw	r2,-4(fp)
 20010c4:	10800217 	ldw	r2,8(r2)
 20010c8:	e0fffd17 	ldw	r3,-12(fp)
 20010cc:	18bfa016 	blt	r3,r2,2000f50 <__alt_mem_pic_mem+0xfdffcf50>

        }

    }

}
 20010d0:	e037883a 	mov	sp,fp
 20010d4:	dfc00117 	ldw	ra,4(sp)
 20010d8:	df000017 	ldw	fp,0(sp)
 20010dc:	dec00204 	addi	sp,sp,8
 20010e0:	f800283a 	ret

020010e4 <GUI_ShowPAT>:


void GUI_ShowPAT(alt_video_display *pDisplay, int PatId){
 20010e4:	defffc04 	addi	sp,sp,-16
 20010e8:	dfc00315 	stw	ra,12(sp)
 20010ec:	df000215 	stw	fp,8(sp)
 20010f0:	df000204 	addi	fp,sp,8
 20010f4:	e13ffe15 	stw	r4,-8(fp)
 20010f8:	e17fff15 	stw	r5,-4(fp)

                switch(PatId){
 20010fc:	e0bfff17 	ldw	r2,-4(fp)
 2001100:	108003e8 	cmpgeui	r2,r2,15
 2001104:	1000511e 	bne	r2,zero,200124c <GUI_ShowPAT+0x168>
 2001108:	e0bfff17 	ldw	r2,-4(fp)
 200110c:	100690ba 	slli	r3,r2,2
 2001110:	00808034 	movhi	r2,512
 2001114:	10844904 	addi	r2,r2,4388
 2001118:	1885883a 	add	r2,r3,r2
 200111c:	10800017 	ldw	r2,0(r2)
 2001120:	1000683a 	jmp	r2
 2001124:	02001160 	cmpeqi	r8,zero,69
 2001128:	0200116c 	andhi	r8,zero,69
 200112c:	02001180 	call	200118 <__reset-0x1dffee8>
 2001130:	02001190 	cmplti	r8,zero,70
 2001134:	020011a0 	cmpeqi	r8,zero,70
 2001138:	020011b0 	cmpltui	r8,zero,70
 200113c:	020011bc 	xorhi	r8,zero,70
 2001140:	020011cc 	andi	r8,zero,71
 2001144:	020011dc 	xori	r8,zero,71
 2001148:	020011ec 	andhi	r8,zero,71
 200114c:	020011fc 	xorhi	r8,zero,71
 2001150:	0200120c 	andi	r8,zero,72
 2001154:	0200121c 	xori	r8,zero,72
 2001158:	0200122c 	andhi	r8,zero,72
 200115c:	0200123c 	xorhi	r8,zero,72
                    case 0: VPG_ColorBar(pDisplay); break;
 2001160:	e13ffe17 	ldw	r4,-8(fp)
 2001164:	2000f340 	call	2000f34 <VPG_ColorBar>
 2001168:	00003806 	br	200124c <GUI_ShowPAT+0x168>
                    case 1: VPG_ColorPanel(pDisplay, WHITE_24); break;
 200116c:	e13ffe17 	ldw	r4,-8(fp)
 2001170:	01404034 	movhi	r5,256
 2001174:	297fffc4 	addi	r5,r5,-1
 2001178:	2000bc00 	call	2000bc0 <VPG_ColorPanel>
 200117c:	00003306 	br	200124c <GUI_ShowPAT+0x168>
                    case 2: VPG_ColorPanel(pDisplay, RED_24); break;
 2001180:	e13ffe17 	ldw	r4,-8(fp)
 2001184:	01403ff4 	movhi	r5,255
 2001188:	2000bc00 	call	2000bc0 <VPG_ColorPanel>
 200118c:	00002f06 	br	200124c <GUI_ShowPAT+0x168>
                    case 3: VPG_ColorPanel(pDisplay, GREEN_24); break;
 2001190:	e13ffe17 	ldw	r4,-8(fp)
 2001194:	01600014 	movui	r5,32768
 2001198:	2000bc00 	call	2000bc0 <VPG_ColorPanel>
 200119c:	00002b06 	br	200124c <GUI_ShowPAT+0x168>
                    case 4: VPG_ColorPanel(pDisplay, BLUE_24); break;
 20011a0:	e13ffe17 	ldw	r4,-8(fp)
 20011a4:	01403fc4 	movi	r5,255
 20011a8:	2000bc00 	call	2000bc0 <VPG_ColorPanel>
 20011ac:	00002706 	br	200124c <GUI_ShowPAT+0x168>
                    case 5: VPG_XLine(pDisplay); break;
 20011b0:	e13ffe17 	ldw	r4,-8(fp)
 20011b4:	2000b9c0 	call	2000b9c <VPG_XLine>
 20011b8:	00002406 	br	200124c <GUI_ShowPAT+0x168>
                    case 6: VPG_VGrid(pDisplay, 2); break;
 20011bc:	e13ffe17 	ldw	r4,-8(fp)
 20011c0:	01400084 	movi	r5,2
 20011c4:	2000d6c0 	call	2000d6c <VPG_VGrid>
 20011c8:	00002006 	br	200124c <GUI_ShowPAT+0x168>
                    case 7: VPG_VGrid(pDisplay, 4); break;
 20011cc:	e13ffe17 	ldw	r4,-8(fp)
 20011d0:	01400104 	movi	r5,4
 20011d4:	2000d6c0 	call	2000d6c <VPG_VGrid>
 20011d8:	00001c06 	br	200124c <GUI_ShowPAT+0x168>
                    case 8: VPG_VGrid(pDisplay, 8); break;
 20011dc:	e13ffe17 	ldw	r4,-8(fp)
 20011e0:	01400204 	movi	r5,8
 20011e4:	2000d6c0 	call	2000d6c <VPG_VGrid>
 20011e8:	00001806 	br	200124c <GUI_ShowPAT+0x168>
                    case 9: VPG_HGrid(pDisplay, 2); break;
 20011ec:	e13ffe17 	ldw	r4,-8(fp)
 20011f0:	01400084 	movi	r5,2
 20011f4:	2000e500 	call	2000e50 <VPG_HGrid>
 20011f8:	00001406 	br	200124c <GUI_ShowPAT+0x168>
                    case 10: VPG_HGrid(pDisplay, 4); break;
 20011fc:	e13ffe17 	ldw	r4,-8(fp)
 2001200:	01400104 	movi	r5,4
 2001204:	2000e500 	call	2000e50 <VPG_HGrid>
 2001208:	00001006 	br	200124c <GUI_ShowPAT+0x168>
                    case 11: VPG_HGrid(pDisplay, 8); break;
 200120c:	e13ffe17 	ldw	r4,-8(fp)
 2001210:	01400204 	movi	r5,8
 2001214:	2000e500 	call	2000e50 <VPG_HGrid>
 2001218:	00000c06 	br	200124c <GUI_ShowPAT+0x168>
                    case 12: VPG_Grid(pDisplay, 2); break;
 200121c:	e13ffe17 	ldw	r4,-8(fp)
 2001220:	01400084 	movi	r5,2
 2001224:	2000c700 	call	2000c70 <VPG_Grid>
 2001228:	00000806 	br	200124c <GUI_ShowPAT+0x168>
                    case 13: VPG_Grid(pDisplay, 4); break;
 200122c:	e13ffe17 	ldw	r4,-8(fp)
 2001230:	01400104 	movi	r5,4
 2001234:	2000c700 	call	2000c70 <VPG_Grid>
 2001238:	00000406 	br	200124c <GUI_ShowPAT+0x168>
                    case 14: VPG_Grid(pDisplay, 8); break;
 200123c:	e13ffe17 	ldw	r4,-8(fp)
 2001240:	01400204 	movi	r5,8
 2001244:	2000c700 	call	2000c70 <VPG_Grid>
 2001248:	0001883a 	nop
                }

}
 200124c:	e037883a 	mov	sp,fp
 2001250:	dfc00117 	ldw	ra,4(sp)
 2001254:	df000017 	ldw	fp,0(sp)
 2001258:	dec00204 	addi	sp,sp,8
 200125c:	f800283a 	ret

02001260 <GUI_VPG>:

void GUI_VPG(alt_video_display *pDisplay, TOUCH_HANDLE *pTouch){
 2001260:	defff904 	addi	sp,sp,-28
 2001264:	dfc00615 	stw	ra,24(sp)
 2001268:	df000515 	stw	fp,20(sp)
 200126c:	df000504 	addi	fp,sp,20
 2001270:	e13ffe15 	stw	r4,-8(fp)
 2001274:	e17fff15 	stw	r5,-4(fp)
	int X, Y;
	int PatId = 0;
 2001278:	e03ffb15 	stw	zero,-20(fp)

    // clean screen
    vid_clean_screen(pDisplay, BLACK_24);
 200127c:	e13ffe17 	ldw	r4,-8(fp)
 2001280:	000b883a 	mov	r5,zero
 2001284:	20021e40 	call	20021e4 <vid_clean_screen>


    VPG_ColorBar(pDisplay);
 2001288:	e13ffe17 	ldw	r4,-8(fp)
 200128c:	2000f340 	call	2000f34 <VPG_ColorBar>

    GUI_ShowPAT(pDisplay, PatId);
 2001290:	e13ffe17 	ldw	r4,-8(fp)
 2001294:	e17ffb17 	ldw	r5,-20(fp)
 2001298:	20010e40 	call	20010e4 <GUI_ShowPAT>

    while(1){
        if (Touch_GetXY(pTouch, &X, &Y)){
 200129c:	e0fffc04 	addi	r3,fp,-16
 20012a0:	e0bffd04 	addi	r2,fp,-12
 20012a4:	e13fff17 	ldw	r4,-4(fp)
 20012a8:	180b883a 	mov	r5,r3
 20012ac:	100d883a 	mov	r6,r2
 20012b0:	200557c0 	call	200557c <Touch_GetXY>
 20012b4:	10001326 	beq	r2,zero,2001304 <GUI_VPG+0xa4>
            //printf(".");

            // change pattern
            PatId++;
 20012b8:	e0bffb17 	ldw	r2,-20(fp)
 20012bc:	10800044 	addi	r2,r2,1
 20012c0:	e0bffb15 	stw	r2,-20(fp)
            if (PatId > 14)
 20012c4:	e0bffb17 	ldw	r2,-20(fp)
 20012c8:	108003d0 	cmplti	r2,r2,15
 20012cc:	1000011e 	bne	r2,zero,20012d4 <GUI_VPG+0x74>
                PatId = 0;
 20012d0:	e03ffb15 	stw	zero,-20(fp)

            printf("PatId=%d\r\n", PatId);
 20012d4:	01008074 	movhi	r4,513
 20012d8:	212fb304 	addi	r4,r4,-16692
 20012dc:	e17ffb17 	ldw	r5,-20(fp)
 20012e0:	2008e440 	call	2008e44 <printf>
            GUI_ShowPAT(pDisplay, PatId);
 20012e4:	e13ffe17 	ldw	r4,-8(fp)
 20012e8:	e17ffb17 	ldw	r5,-20(fp)
 20012ec:	20010e40 	call	20010e4 <GUI_ShowPAT>
            usleep(300*1000); // debounce
 20012f0:	01000174 	movhi	r4,5
 20012f4:	2124f804 	addi	r4,r4,-27680
 20012f8:	200a9d40 	call	200a9d4 <usleep>
            Touch_EmptyFifo( pTouch);
 20012fc:	e13fff17 	ldw	r4,-4(fp)
 2001300:	20055440 	call	2005544 <Touch_EmptyFifo>
        }
    }
 2001304:	003fe506 	br	200129c <__alt_mem_pic_mem+0xfdffd29c>

02001308 <Delay_Ms>:
When  D/CX=0,  D [17:0] bits are commands.
*/


void Delay_Ms(alt_u16 count_ms)
{
 2001308:	defffd04 	addi	sp,sp,-12
 200130c:	dfc00215 	stw	ra,8(sp)
 2001310:	df000115 	stw	fp,4(sp)
 2001314:	df000104 	addi	fp,sp,4
 2001318:	2005883a 	mov	r2,r4
 200131c:	e0bfff0d 	sth	r2,-4(fp)
    while(count_ms--)
 2001320:	00000206 	br	200132c <Delay_Ms+0x24>
    {
        usleep(1000);
 2001324:	0100fa04 	movi	r4,1000
 2001328:	200a9d40 	call	200a9d4 <usleep>
*/


void Delay_Ms(alt_u16 count_ms)
{
    while(count_ms--)
 200132c:	e0bfff0b 	ldhu	r2,-4(fp)
 2001330:	10ffffc4 	addi	r3,r2,-1
 2001334:	e0ffff0d 	sth	r3,-4(fp)
 2001338:	10bfffcc 	andi	r2,r2,65535
 200133c:	103ff91e 	bne	r2,zero,2001324 <__alt_mem_pic_mem+0xfdffd324>
    {
        usleep(1000);
    }
}
 2001340:	e037883a 	mov	sp,fp
 2001344:	dfc00117 	ldw	ra,4(sp)
 2001348:	df000017 	ldw	fp,0(sp)
 200134c:	dec00204 	addi	sp,sp,8
 2001350:	f800283a 	ret

02001354 <LCD_SetCursor>:

//-------------------------------------------------------------

void LCD_SetCursor(alt_u16 Xpos, alt_u16 Ypos)
{
 2001354:	defffd04 	addi	sp,sp,-12
 2001358:	df000215 	stw	fp,8(sp)
 200135c:	df000204 	addi	fp,sp,8
 2001360:	2007883a 	mov	r3,r4
 2001364:	2805883a 	mov	r2,r5
 2001368:	e0fffe0d 	sth	r3,-8(fp)
 200136c:	e0bfff0d 	sth	r2,-4(fp)
	 LCD_WR_REG(0x002A);
 2001370:	00c00a84 	movi	r3,42
 2001374:	00810034 	movhi	r2,1024
 2001378:	109e2804 	addi	r2,r2,30880
 200137c:	10c00035 	stwio	r3,0(r2)
		 LCD_WR_DATA(Xpos>>8);
 2001380:	e0bffe0b 	ldhu	r2,-8(fp)
 2001384:	1004d23a 	srli	r2,r2,8
 2001388:	10ffffcc 	andi	r3,r2,65535
 200138c:	00810034 	movhi	r2,1024
 2001390:	109e2904 	addi	r2,r2,30884
 2001394:	10c00035 	stwio	r3,0(r2)
		 LCD_WR_DATA(Xpos&0XFF);
 2001398:	e0bffe0b 	ldhu	r2,-8(fp)
 200139c:	10c03fcc 	andi	r3,r2,255
 20013a0:	00810034 	movhi	r2,1024
 20013a4:	109e2904 	addi	r2,r2,30884
 20013a8:	10c00035 	stwio	r3,0(r2)
	 LCD_WR_REG(0x002B);
 20013ac:	00c00ac4 	movi	r3,43
 20013b0:	00810034 	movhi	r2,1024
 20013b4:	109e2804 	addi	r2,r2,30880
 20013b8:	10c00035 	stwio	r3,0(r2)
		 LCD_WR_DATA(Ypos>>8);
 20013bc:	e0bfff0b 	ldhu	r2,-4(fp)
 20013c0:	1004d23a 	srli	r2,r2,8
 20013c4:	10ffffcc 	andi	r3,r2,65535
 20013c8:	00810034 	movhi	r2,1024
 20013cc:	109e2904 	addi	r2,r2,30884
 20013d0:	10c00035 	stwio	r3,0(r2)
		 LCD_WR_DATA(Ypos&0XFF);
 20013d4:	e0bfff0b 	ldhu	r2,-4(fp)
 20013d8:	10c03fcc 	andi	r3,r2,255
 20013dc:	00810034 	movhi	r2,1024
 20013e0:	109e2904 	addi	r2,r2,30884
 20013e4:	10c00035 	stwio	r3,0(r2)
	 LCD_WR_REG(0x002C);
 20013e8:	00c00b04 	movi	r3,44
 20013ec:	00810034 	movhi	r2,1024
 20013f0:	109e2804 	addi	r2,r2,30880
 20013f4:	10c00035 	stwio	r3,0(r2)
}
 20013f8:	e037883a 	mov	sp,fp
 20013fc:	df000017 	ldw	fp,0(sp)
 2001400:	dec00104 	addi	sp,sp,4
 2001404:	f800283a 	ret

02001408 <LCD_Clear>:

//-------------------------------------------------------------

void LCD_Clear(alt_u16 Color)
{
 2001408:	defffc04 	addi	sp,sp,-16
 200140c:	dfc00315 	stw	ra,12(sp)
 2001410:	df000215 	stw	fp,8(sp)
 2001414:	df000204 	addi	fp,sp,8
 2001418:	2005883a 	mov	r2,r4
 200141c:	e0bfff0d 	sth	r2,-4(fp)
        alt_u32 index=0;
 2001420:	e03ffe15 	stw	zero,-8(fp)
        LCD_SetCursor(0x00,0x0000);
 2001424:	0009883a 	mov	r4,zero
 2001428:	000b883a 	mov	r5,zero
 200142c:	20013540 	call	2001354 <LCD_SetCursor>
        LCD_WR_REG(0x002C);
 2001430:	00c00b04 	movi	r3,44
 2001434:	00810034 	movhi	r2,1024
 2001438:	109e2804 	addi	r2,r2,30880
 200143c:	10c00035 	stwio	r3,0(r2)
        for(index=0;index<76800;index++)
 2001440:	e03ffe15 	stw	zero,-8(fp)
 2001444:	00000706 	br	2001464 <LCD_Clear+0x5c>
        {
        	LCD_WR_DATA(Color);
 2001448:	e0ffff0b 	ldhu	r3,-4(fp)
 200144c:	00810034 	movhi	r2,1024
 2001450:	109e2904 	addi	r2,r2,30884
 2001454:	10c00035 	stwio	r3,0(r2)
void LCD_Clear(alt_u16 Color)
{
        alt_u32 index=0;
        LCD_SetCursor(0x00,0x0000);
        LCD_WR_REG(0x002C);
        for(index=0;index<76800;index++)
 2001458:	e0bffe17 	ldw	r2,-8(fp)
 200145c:	10800044 	addi	r2,r2,1
 2001460:	e0bffe15 	stw	r2,-8(fp)
 2001464:	e0fffe17 	ldw	r3,-8(fp)
 2001468:	00800074 	movhi	r2,1
 200146c:	108affc4 	addi	r2,r2,11263
 2001470:	10fff52e 	bgeu	r2,r3,2001448 <__alt_mem_pic_mem+0xfdffd448>
        {
        	LCD_WR_DATA(Color);
        }
}
 2001474:	e037883a 	mov	sp,fp
 2001478:	dfc00117 	ldw	ra,4(sp)
 200147c:	df000017 	ldw	fp,0(sp)
 2001480:	dec00204 	addi	sp,sp,8
 2001484:	f800283a 	ret

02001488 <LCD_DrawPoint>:

//-------------------------------------------------------------

void LCD_DrawPoint(alt_u16 x,alt_u16 y,alt_u16 color )
{
 2001488:	defffb04 	addi	sp,sp,-20
 200148c:	dfc00415 	stw	ra,16(sp)
 2001490:	df000315 	stw	fp,12(sp)
 2001494:	df000304 	addi	fp,sp,12
 2001498:	2807883a 	mov	r3,r5
 200149c:	3005883a 	mov	r2,r6
 20014a0:	e13ffd0d 	sth	r4,-12(fp)
 20014a4:	e0fffe0d 	sth	r3,-8(fp)
 20014a8:	e0bfff0d 	sth	r2,-4(fp)
        LCD_SetCursor(x,y);
 20014ac:	e0fffd0b 	ldhu	r3,-12(fp)
 20014b0:	e0bffe0b 	ldhu	r2,-8(fp)
 20014b4:	1809883a 	mov	r4,r3
 20014b8:	100b883a 	mov	r5,r2
 20014bc:	20013540 	call	2001354 <LCD_SetCursor>
        LCD_WR_REG(0x002C);
 20014c0:	00c00b04 	movi	r3,44
 20014c4:	00810034 	movhi	r2,1024
 20014c8:	109e2804 	addi	r2,r2,30880
 20014cc:	10c00035 	stwio	r3,0(r2)
        LCD_WR_DATA(color);
 20014d0:	e0ffff0b 	ldhu	r3,-4(fp)
 20014d4:	00810034 	movhi	r2,1024
 20014d8:	109e2904 	addi	r2,r2,30884
 20014dc:	10c00035 	stwio	r3,0(r2)
}
 20014e0:	e037883a 	mov	sp,fp
 20014e4:	dfc00117 	ldw	ra,4(sp)
 20014e8:	df000017 	ldw	fp,0(sp)
 20014ec:	dec00204 	addi	sp,sp,8
 20014f0:	f800283a 	ret

020014f4 <LCD_Init>:

//-------------------------------------------------------------

void LCD_Init()
{
 20014f4:	defffe04 	addi	sp,sp,-8
 20014f8:	dfc00115 	stw	ra,4(sp)
 20014fc:	df000015 	stw	fp,0(sp)
 2001500:	d839883a 	mov	fp,sp
	Set_LCD_RST;
 2001504:	00c00044 	movi	r3,1
 2001508:	00810034 	movhi	r2,1024
 200150c:	109e1c04 	addi	r2,r2,30832
 2001510:	10c00035 	stwio	r3,0(r2)
	Delay_Ms(1);
 2001514:	01000044 	movi	r4,1
 2001518:	20013080 	call	2001308 <Delay_Ms>
	Clr_LCD_RST;
 200151c:	0007883a 	mov	r3,zero
 2001520:	00810034 	movhi	r2,1024
 2001524:	109e1c04 	addi	r2,r2,30832
 2001528:	10c00035 	stwio	r3,0(r2)
	Delay_Ms(10);       // Delay 10ms // This delay time is necessary
 200152c:	01000284 	movi	r4,10
 2001530:	20013080 	call	2001308 <Delay_Ms>
	Set_LCD_RST;
 2001534:	00c00044 	movi	r3,1
 2001538:	00810034 	movhi	r2,1024
 200153c:	109e1c04 	addi	r2,r2,30832
 2001540:	10c00035 	stwio	r3,0(r2)
	Delay_Ms(120);       // Delay 120 ms
 2001544:	01001e04 	movi	r4,120
 2001548:	20013080 	call	2001308 <Delay_Ms>
//	Clr_LCD_CS;

	LCD_WR_REG(0x0011); //Exit Sleep
 200154c:	00c00444 	movi	r3,17
 2001550:	00810034 	movhi	r2,1024
 2001554:	109e2804 	addi	r2,r2,30880
 2001558:	10c00035 	stwio	r3,0(r2)
	LCD_WR_REG(0x00CF);
 200155c:	00c033c4 	movi	r3,207
 2001560:	00810034 	movhi	r2,1024
 2001564:	109e2804 	addi	r2,r2,30880
 2001568:	10c00035 	stwio	r3,0(r2)
		LCD_WR_DATA(0x0000);
 200156c:	0007883a 	mov	r3,zero
 2001570:	00810034 	movhi	r2,1024
 2001574:	109e2904 	addi	r2,r2,30884
 2001578:	10c00035 	stwio	r3,0(r2)
		LCD_WR_DATA(0x0081);
 200157c:	00c02044 	movi	r3,129
 2001580:	00810034 	movhi	r2,1024
 2001584:	109e2904 	addi	r2,r2,30884
 2001588:	10c00035 	stwio	r3,0(r2)
		LCD_WR_DATA(0X00c0);
 200158c:	00c03004 	movi	r3,192
 2001590:	00810034 	movhi	r2,1024
 2001594:	109e2904 	addi	r2,r2,30884
 2001598:	10c00035 	stwio	r3,0(r2)

	LCD_WR_REG(0x00ED);
 200159c:	00c03b44 	movi	r3,237
 20015a0:	00810034 	movhi	r2,1024
 20015a4:	109e2804 	addi	r2,r2,30880
 20015a8:	10c00035 	stwio	r3,0(r2)
		LCD_WR_DATA(0x0064);
 20015ac:	00c01904 	movi	r3,100
 20015b0:	00810034 	movhi	r2,1024
 20015b4:	109e2904 	addi	r2,r2,30884
 20015b8:	10c00035 	stwio	r3,0(r2)
		LCD_WR_DATA(0x0003);
 20015bc:	00c000c4 	movi	r3,3
 20015c0:	00810034 	movhi	r2,1024
 20015c4:	109e2904 	addi	r2,r2,30884
 20015c8:	10c00035 	stwio	r3,0(r2)
		LCD_WR_DATA(0X0012);
 20015cc:	00c00484 	movi	r3,18
 20015d0:	00810034 	movhi	r2,1024
 20015d4:	109e2904 	addi	r2,r2,30884
 20015d8:	10c00035 	stwio	r3,0(r2)
		LCD_WR_DATA(0X0081);
 20015dc:	00c02044 	movi	r3,129
 20015e0:	00810034 	movhi	r2,1024
 20015e4:	109e2904 	addi	r2,r2,30884
 20015e8:	10c00035 	stwio	r3,0(r2)

	LCD_WR_REG(0x00E8);
 20015ec:	00c03a04 	movi	r3,232
 20015f0:	00810034 	movhi	r2,1024
 20015f4:	109e2804 	addi	r2,r2,30880
 20015f8:	10c00035 	stwio	r3,0(r2)
		LCD_WR_DATA(0x0085);
 20015fc:	00c02144 	movi	r3,133
 2001600:	00810034 	movhi	r2,1024
 2001604:	109e2904 	addi	r2,r2,30884
 2001608:	10c00035 	stwio	r3,0(r2)
		LCD_WR_DATA(0x0001);
 200160c:	00c00044 	movi	r3,1
 2001610:	00810034 	movhi	r2,1024
 2001614:	109e2904 	addi	r2,r2,30884
 2001618:	10c00035 	stwio	r3,0(r2)
		LCD_WR_DATA(0x00798);
 200161c:	00c1e604 	movi	r3,1944
 2001620:	00810034 	movhi	r2,1024
 2001624:	109e2904 	addi	r2,r2,30884
 2001628:	10c00035 	stwio	r3,0(r2)

	LCD_WR_REG(0x00CB);
 200162c:	00c032c4 	movi	r3,203
 2001630:	00810034 	movhi	r2,1024
 2001634:	109e2804 	addi	r2,r2,30880
 2001638:	10c00035 	stwio	r3,0(r2)
		LCD_WR_DATA(0x0039);
 200163c:	00c00e44 	movi	r3,57
 2001640:	00810034 	movhi	r2,1024
 2001644:	109e2904 	addi	r2,r2,30884
 2001648:	10c00035 	stwio	r3,0(r2)
		LCD_WR_DATA(0x002C);
 200164c:	00c00b04 	movi	r3,44
 2001650:	00810034 	movhi	r2,1024
 2001654:	109e2904 	addi	r2,r2,30884
 2001658:	10c00035 	stwio	r3,0(r2)
		LCD_WR_DATA(0x0000);
 200165c:	0007883a 	mov	r3,zero
 2001660:	00810034 	movhi	r2,1024
 2001664:	109e2904 	addi	r2,r2,30884
 2001668:	10c00035 	stwio	r3,0(r2)
		LCD_WR_DATA(0x0034);
 200166c:	00c00d04 	movi	r3,52
 2001670:	00810034 	movhi	r2,1024
 2001674:	109e2904 	addi	r2,r2,30884
 2001678:	10c00035 	stwio	r3,0(r2)
		LCD_WR_DATA(0x0002);
 200167c:	00c00084 	movi	r3,2
 2001680:	00810034 	movhi	r2,1024
 2001684:	109e2904 	addi	r2,r2,30884
 2001688:	10c00035 	stwio	r3,0(r2)

	LCD_WR_REG(0x00F7);
 200168c:	00c03dc4 	movi	r3,247
 2001690:	00810034 	movhi	r2,1024
 2001694:	109e2804 	addi	r2,r2,30880
 2001698:	10c00035 	stwio	r3,0(r2)
		LCD_WR_DATA(0x0020);
 200169c:	00c00804 	movi	r3,32
 20016a0:	00810034 	movhi	r2,1024
 20016a4:	109e2904 	addi	r2,r2,30884
 20016a8:	10c00035 	stwio	r3,0(r2)

	LCD_WR_REG(0x00EA);
 20016ac:	00c03a84 	movi	r3,234
 20016b0:	00810034 	movhi	r2,1024
 20016b4:	109e2804 	addi	r2,r2,30880
 20016b8:	10c00035 	stwio	r3,0(r2)
		LCD_WR_DATA(0x0000);
 20016bc:	0007883a 	mov	r3,zero
 20016c0:	00810034 	movhi	r2,1024
 20016c4:	109e2904 	addi	r2,r2,30884
 20016c8:	10c00035 	stwio	r3,0(r2)
		LCD_WR_DATA(0x0000);
 20016cc:	0007883a 	mov	r3,zero
 20016d0:	00810034 	movhi	r2,1024
 20016d4:	109e2904 	addi	r2,r2,30884
 20016d8:	10c00035 	stwio	r3,0(r2)

	LCD_WR_REG(0x00B1);
 20016dc:	00c02c44 	movi	r3,177
 20016e0:	00810034 	movhi	r2,1024
 20016e4:	109e2804 	addi	r2,r2,30880
 20016e8:	10c00035 	stwio	r3,0(r2)
		LCD_WR_DATA(0x0000);
 20016ec:	0007883a 	mov	r3,zero
 20016f0:	00810034 	movhi	r2,1024
 20016f4:	109e2904 	addi	r2,r2,30884
 20016f8:	10c00035 	stwio	r3,0(r2)
		LCD_WR_DATA(0x001b);
 20016fc:	00c006c4 	movi	r3,27
 2001700:	00810034 	movhi	r2,1024
 2001704:	109e2904 	addi	r2,r2,30884
 2001708:	10c00035 	stwio	r3,0(r2)

	LCD_WR_REG(0x00B6);
 200170c:	00c02d84 	movi	r3,182
 2001710:	00810034 	movhi	r2,1024
 2001714:	109e2804 	addi	r2,r2,30880
 2001718:	10c00035 	stwio	r3,0(r2)
		LCD_WR_DATA(0x000A);
 200171c:	00c00284 	movi	r3,10
 2001720:	00810034 	movhi	r2,1024
 2001724:	109e2904 	addi	r2,r2,30884
 2001728:	10c00035 	stwio	r3,0(r2)
		LCD_WR_DATA(0x00A2);
 200172c:	00c02884 	movi	r3,162
 2001730:	00810034 	movhi	r2,1024
 2001734:	109e2904 	addi	r2,r2,30884
 2001738:	10c00035 	stwio	r3,0(r2)

	LCD_WR_REG(0x00C0);    //Power control
 200173c:	00c03004 	movi	r3,192
 2001740:	00810034 	movhi	r2,1024
 2001744:	109e2804 	addi	r2,r2,30880
 2001748:	10c00035 	stwio	r3,0(r2)
		LCD_WR_DATA(0x0005);   //VRH[5:0]
 200174c:	00c00144 	movi	r3,5
 2001750:	00810034 	movhi	r2,1024
 2001754:	109e2904 	addi	r2,r2,30884
 2001758:	10c00035 	stwio	r3,0(r2)

	LCD_WR_REG(0x00C1);    //Power control
 200175c:	00c03044 	movi	r3,193
 2001760:	00810034 	movhi	r2,1024
 2001764:	109e2804 	addi	r2,r2,30880
 2001768:	10c00035 	stwio	r3,0(r2)
		LCD_WR_DATA(0x0011);   //SAP[2:0];BT[3:0]
 200176c:	00c00444 	movi	r3,17
 2001770:	00810034 	movhi	r2,1024
 2001774:	109e2904 	addi	r2,r2,30884
 2001778:	10c00035 	stwio	r3,0(r2)

	LCD_WR_REG(0x00C5);    //VCM control
 200177c:	00c03144 	movi	r3,197
 2001780:	00810034 	movhi	r2,1024
 2001784:	109e2804 	addi	r2,r2,30880
 2001788:	10c00035 	stwio	r3,0(r2)
		LCD_WR_DATA(0x0045);       //3F
 200178c:	00c01144 	movi	r3,69
 2001790:	00810034 	movhi	r2,1024
 2001794:	109e2904 	addi	r2,r2,30884
 2001798:	10c00035 	stwio	r3,0(r2)
		LCD_WR_DATA(0x0045);       //3C
 200179c:	00c01144 	movi	r3,69
 20017a0:	00810034 	movhi	r2,1024
 20017a4:	109e2904 	addi	r2,r2,30884
 20017a8:	10c00035 	stwio	r3,0(r2)

	 LCD_WR_REG(0x00C7);    //VCM control2
 20017ac:	00c031c4 	movi	r3,199
 20017b0:	00810034 	movhi	r2,1024
 20017b4:	109e2804 	addi	r2,r2,30880
 20017b8:	10c00035 	stwio	r3,0(r2)
		 LCD_WR_DATA(0X00a2);
 20017bc:	00c02884 	movi	r3,162
 20017c0:	00810034 	movhi	r2,1024
 20017c4:	109e2904 	addi	r2,r2,30884
 20017c8:	10c00035 	stwio	r3,0(r2)

	LCD_WR_REG(0x0036);    // Memory Access Control
 20017cc:	00c00d84 	movi	r3,54
 20017d0:	00810034 	movhi	r2,1024
 20017d4:	109e2804 	addi	r2,r2,30880
 20017d8:	10c00035 	stwio	r3,0(r2)
		LCD_WR_DATA(0x0008);//48
 20017dc:	00c00204 	movi	r3,8
 20017e0:	00810034 	movhi	r2,1024
 20017e4:	109e2904 	addi	r2,r2,30884
 20017e8:	10c00035 	stwio	r3,0(r2)

	LCD_WR_REG(0x00F2);    // 3Gamma Function Disable
 20017ec:	00c03c84 	movi	r3,242
 20017f0:	00810034 	movhi	r2,1024
 20017f4:	109e2804 	addi	r2,r2,30880
 20017f8:	10c00035 	stwio	r3,0(r2)
		LCD_WR_DATA(0x0000);
 20017fc:	0007883a 	mov	r3,zero
 2001800:	00810034 	movhi	r2,1024
 2001804:	109e2904 	addi	r2,r2,30884
 2001808:	10c00035 	stwio	r3,0(r2)

	LCD_WR_REG(0x0026);    //Gamma curve selected
 200180c:	00c00984 	movi	r3,38
 2001810:	00810034 	movhi	r2,1024
 2001814:	109e2804 	addi	r2,r2,30880
 2001818:	10c00035 	stwio	r3,0(r2)
		LCD_WR_DATA(0x0001);
 200181c:	00c00044 	movi	r3,1
 2001820:	00810034 	movhi	r2,1024
 2001824:	109e2904 	addi	r2,r2,30884
 2001828:	10c00035 	stwio	r3,0(r2)

	LCD_WR_REG(0x00E0);    //Set Gamma
 200182c:	00c03804 	movi	r3,224
 2001830:	00810034 	movhi	r2,1024
 2001834:	109e2804 	addi	r2,r2,30880
 2001838:	10c00035 	stwio	r3,0(r2)
		LCD_WR_DATA(0x000F);
 200183c:	00c003c4 	movi	r3,15
 2001840:	00810034 	movhi	r2,1024
 2001844:	109e2904 	addi	r2,r2,30884
 2001848:	10c00035 	stwio	r3,0(r2)
		LCD_WR_DATA(0x0026);
 200184c:	00c00984 	movi	r3,38
 2001850:	00810034 	movhi	r2,1024
 2001854:	109e2904 	addi	r2,r2,30884
 2001858:	10c00035 	stwio	r3,0(r2)
		LCD_WR_DATA(0x0024);
 200185c:	00c00904 	movi	r3,36
 2001860:	00810034 	movhi	r2,1024
 2001864:	109e2904 	addi	r2,r2,30884
 2001868:	10c00035 	stwio	r3,0(r2)
		LCD_WR_DATA(0x000b);
 200186c:	00c002c4 	movi	r3,11
 2001870:	00810034 	movhi	r2,1024
 2001874:	109e2904 	addi	r2,r2,30884
 2001878:	10c00035 	stwio	r3,0(r2)
		LCD_WR_DATA(0x000E);
 200187c:	00c00384 	movi	r3,14
 2001880:	00810034 	movhi	r2,1024
 2001884:	109e2904 	addi	r2,r2,30884
 2001888:	10c00035 	stwio	r3,0(r2)
		LCD_WR_DATA(0x0008);
 200188c:	00c00204 	movi	r3,8
 2001890:	00810034 	movhi	r2,1024
 2001894:	109e2904 	addi	r2,r2,30884
 2001898:	10c00035 	stwio	r3,0(r2)
		LCD_WR_DATA(0x004b);
 200189c:	00c012c4 	movi	r3,75
 20018a0:	00810034 	movhi	r2,1024
 20018a4:	109e2904 	addi	r2,r2,30884
 20018a8:	10c00035 	stwio	r3,0(r2)
		LCD_WR_DATA(0X00a8);
 20018ac:	00c02a04 	movi	r3,168
 20018b0:	00810034 	movhi	r2,1024
 20018b4:	109e2904 	addi	r2,r2,30884
 20018b8:	10c00035 	stwio	r3,0(r2)
		LCD_WR_DATA(0x003b);
 20018bc:	00c00ec4 	movi	r3,59
 20018c0:	00810034 	movhi	r2,1024
 20018c4:	109e2904 	addi	r2,r2,30884
 20018c8:	10c00035 	stwio	r3,0(r2)
		LCD_WR_DATA(0x000a);
 20018cc:	00c00284 	movi	r3,10
 20018d0:	00810034 	movhi	r2,1024
 20018d4:	109e2904 	addi	r2,r2,30884
 20018d8:	10c00035 	stwio	r3,0(r2)
		LCD_WR_DATA(0x0014);
 20018dc:	00c00504 	movi	r3,20
 20018e0:	00810034 	movhi	r2,1024
 20018e4:	109e2904 	addi	r2,r2,30884
 20018e8:	10c00035 	stwio	r3,0(r2)
		LCD_WR_DATA(0x0006);
 20018ec:	00c00184 	movi	r3,6
 20018f0:	00810034 	movhi	r2,1024
 20018f4:	109e2904 	addi	r2,r2,30884
 20018f8:	10c00035 	stwio	r3,0(r2)
		LCD_WR_DATA(0x0010);
 20018fc:	00c00404 	movi	r3,16
 2001900:	00810034 	movhi	r2,1024
 2001904:	109e2904 	addi	r2,r2,30884
 2001908:	10c00035 	stwio	r3,0(r2)
		LCD_WR_DATA(0x0009);
 200190c:	00c00244 	movi	r3,9
 2001910:	00810034 	movhi	r2,1024
 2001914:	109e2904 	addi	r2,r2,30884
 2001918:	10c00035 	stwio	r3,0(r2)
		LCD_WR_DATA(0x0000);
 200191c:	0007883a 	mov	r3,zero
 2001920:	00810034 	movhi	r2,1024
 2001924:	109e2904 	addi	r2,r2,30884
 2001928:	10c00035 	stwio	r3,0(r2)

	LCD_WR_REG(0X00E1);    //Set Gamma
 200192c:	00c03844 	movi	r3,225
 2001930:	00810034 	movhi	r2,1024
 2001934:	109e2804 	addi	r2,r2,30880
 2001938:	10c00035 	stwio	r3,0(r2)
		LCD_WR_DATA(0x0000);
 200193c:	0007883a 	mov	r3,zero
 2001940:	00810034 	movhi	r2,1024
 2001944:	109e2904 	addi	r2,r2,30884
 2001948:	10c00035 	stwio	r3,0(r2)
		LCD_WR_DATA(0x001c);
 200194c:	00c00704 	movi	r3,28
 2001950:	00810034 	movhi	r2,1024
 2001954:	109e2904 	addi	r2,r2,30884
 2001958:	10c00035 	stwio	r3,0(r2)
		LCD_WR_DATA(0x0020);
 200195c:	00c00804 	movi	r3,32
 2001960:	00810034 	movhi	r2,1024
 2001964:	109e2904 	addi	r2,r2,30884
 2001968:	10c00035 	stwio	r3,0(r2)
		LCD_WR_DATA(0x0004);
 200196c:	00c00104 	movi	r3,4
 2001970:	00810034 	movhi	r2,1024
 2001974:	109e2904 	addi	r2,r2,30884
 2001978:	10c00035 	stwio	r3,0(r2)
		LCD_WR_DATA(0x0010);
 200197c:	00c00404 	movi	r3,16
 2001980:	00810034 	movhi	r2,1024
 2001984:	109e2904 	addi	r2,r2,30884
 2001988:	10c00035 	stwio	r3,0(r2)
		LCD_WR_DATA(0x0008);
 200198c:	00c00204 	movi	r3,8
 2001990:	00810034 	movhi	r2,1024
 2001994:	109e2904 	addi	r2,r2,30884
 2001998:	10c00035 	stwio	r3,0(r2)
		LCD_WR_DATA(0x0034);
 200199c:	00c00d04 	movi	r3,52
 20019a0:	00810034 	movhi	r2,1024
 20019a4:	109e2904 	addi	r2,r2,30884
 20019a8:	10c00035 	stwio	r3,0(r2)
		LCD_WR_DATA(0x0047);
 20019ac:	00c011c4 	movi	r3,71
 20019b0:	00810034 	movhi	r2,1024
 20019b4:	109e2904 	addi	r2,r2,30884
 20019b8:	10c00035 	stwio	r3,0(r2)
		LCD_WR_DATA(0x0044);
 20019bc:	00c01104 	movi	r3,68
 20019c0:	00810034 	movhi	r2,1024
 20019c4:	109e2904 	addi	r2,r2,30884
 20019c8:	10c00035 	stwio	r3,0(r2)
		LCD_WR_DATA(0x0005);
 20019cc:	00c00144 	movi	r3,5
 20019d0:	00810034 	movhi	r2,1024
 20019d4:	109e2904 	addi	r2,r2,30884
 20019d8:	10c00035 	stwio	r3,0(r2)
		LCD_WR_DATA(0x000b);
 20019dc:	00c002c4 	movi	r3,11
 20019e0:	00810034 	movhi	r2,1024
 20019e4:	109e2904 	addi	r2,r2,30884
 20019e8:	10c00035 	stwio	r3,0(r2)
		LCD_WR_DATA(0x0009);
 20019ec:	00c00244 	movi	r3,9
 20019f0:	00810034 	movhi	r2,1024
 20019f4:	109e2904 	addi	r2,r2,30884
 20019f8:	10c00035 	stwio	r3,0(r2)
		LCD_WR_DATA(0x002f);
 20019fc:	00c00bc4 	movi	r3,47
 2001a00:	00810034 	movhi	r2,1024
 2001a04:	109e2904 	addi	r2,r2,30884
 2001a08:	10c00035 	stwio	r3,0(r2)
		LCD_WR_DATA(0x0036);
 2001a0c:	00c00d84 	movi	r3,54
 2001a10:	00810034 	movhi	r2,1024
 2001a14:	109e2904 	addi	r2,r2,30884
 2001a18:	10c00035 	stwio	r3,0(r2)
		LCD_WR_DATA(0x000f);
 2001a1c:	00c003c4 	movi	r3,15
 2001a20:	00810034 	movhi	r2,1024
 2001a24:	109e2904 	addi	r2,r2,30884
 2001a28:	10c00035 	stwio	r3,0(r2)

	LCD_WR_REG(0x002A);
 2001a2c:	00c00a84 	movi	r3,42
 2001a30:	00810034 	movhi	r2,1024
 2001a34:	109e2804 	addi	r2,r2,30880
 2001a38:	10c00035 	stwio	r3,0(r2)
		LCD_WR_DATA(0x0000);
 2001a3c:	0007883a 	mov	r3,zero
 2001a40:	00810034 	movhi	r2,1024
 2001a44:	109e2904 	addi	r2,r2,30884
 2001a48:	10c00035 	stwio	r3,0(r2)
		LCD_WR_DATA(0x0000);
 2001a4c:	0007883a 	mov	r3,zero
 2001a50:	00810034 	movhi	r2,1024
 2001a54:	109e2904 	addi	r2,r2,30884
 2001a58:	10c00035 	stwio	r3,0(r2)
		LCD_WR_DATA(0x0000);
 2001a5c:	0007883a 	mov	r3,zero
 2001a60:	00810034 	movhi	r2,1024
 2001a64:	109e2904 	addi	r2,r2,30884
 2001a68:	10c00035 	stwio	r3,0(r2)
		LCD_WR_DATA(0x00ef);
 2001a6c:	00c03bc4 	movi	r3,239
 2001a70:	00810034 	movhi	r2,1024
 2001a74:	109e2904 	addi	r2,r2,30884
 2001a78:	10c00035 	stwio	r3,0(r2)

	 LCD_WR_REG(0x002B);
 2001a7c:	00c00ac4 	movi	r3,43
 2001a80:	00810034 	movhi	r2,1024
 2001a84:	109e2804 	addi	r2,r2,30880
 2001a88:	10c00035 	stwio	r3,0(r2)
		LCD_WR_DATA(0x0000);
 2001a8c:	0007883a 	mov	r3,zero
 2001a90:	00810034 	movhi	r2,1024
 2001a94:	109e2904 	addi	r2,r2,30884
 2001a98:	10c00035 	stwio	r3,0(r2)
		LCD_WR_DATA(0x0000);
 2001a9c:	0007883a 	mov	r3,zero
 2001aa0:	00810034 	movhi	r2,1024
 2001aa4:	109e2904 	addi	r2,r2,30884
 2001aa8:	10c00035 	stwio	r3,0(r2)
		LCD_WR_DATA(0x0001);
 2001aac:	00c00044 	movi	r3,1
 2001ab0:	00810034 	movhi	r2,1024
 2001ab4:	109e2904 	addi	r2,r2,30884
 2001ab8:	10c00035 	stwio	r3,0(r2)
		LCD_WR_DATA(0x003f);
 2001abc:	00c00fc4 	movi	r3,63
 2001ac0:	00810034 	movhi	r2,1024
 2001ac4:	109e2904 	addi	r2,r2,30884
 2001ac8:	10c00035 	stwio	r3,0(r2)

	LCD_WR_REG(0x003A);
 2001acc:	00c00e84 	movi	r3,58
 2001ad0:	00810034 	movhi	r2,1024
 2001ad4:	109e2804 	addi	r2,r2,30880
 2001ad8:	10c00035 	stwio	r3,0(r2)
		LCD_WR_DATA(0x0055);
 2001adc:	00c01544 	movi	r3,85
 2001ae0:	00810034 	movhi	r2,1024
 2001ae4:	109e2904 	addi	r2,r2,30884
 2001ae8:	10c00035 	stwio	r3,0(r2)

	LCD_WR_REG(0x00f6);
 2001aec:	00c03d84 	movi	r3,246
 2001af0:	00810034 	movhi	r2,1024
 2001af4:	109e2804 	addi	r2,r2,30880
 2001af8:	10c00035 	stwio	r3,0(r2)
		LCD_WR_DATA(0x0001);
 2001afc:	00c00044 	movi	r3,1
 2001b00:	00810034 	movhi	r2,1024
 2001b04:	109e2904 	addi	r2,r2,30884
 2001b08:	10c00035 	stwio	r3,0(r2)
		LCD_WR_DATA(0x0030);
 2001b0c:	00c00c04 	movi	r3,48
 2001b10:	00810034 	movhi	r2,1024
 2001b14:	109e2904 	addi	r2,r2,30884
 2001b18:	10c00035 	stwio	r3,0(r2)
		LCD_WR_DATA(0x0000);
 2001b1c:	0007883a 	mov	r3,zero
 2001b20:	00810034 	movhi	r2,1024
 2001b24:	109e2904 	addi	r2,r2,30884
 2001b28:	10c00035 	stwio	r3,0(r2)

	LCD_WR_REG(0x0029); //display on
 2001b2c:	00c00a44 	movi	r3,41
 2001b30:	00810034 	movhi	r2,1024
 2001b34:	109e2804 	addi	r2,r2,30880
 2001b38:	10c00035 	stwio	r3,0(r2)


	LCD_WR_REG(0x002c);    // 0x2C
 2001b3c:	00c00b04 	movi	r3,44
 2001b40:	00810034 	movhi	r2,1024
 2001b44:	109e2804 	addi	r2,r2,30880
 2001b48:	10c00035 	stwio	r3,0(r2)
}
 2001b4c:	e037883a 	mov	sp,fp
 2001b50:	dfc00117 	ldw	ra,4(sp)
 2001b54:	df000017 	ldw	fp,0(sp)
 2001b58:	dec00204 	addi	sp,sp,8
 2001b5c:	f800283a 	ret

02001b60 <LCD_Pattern_Horizon>:


//-------------------------------------------------------------

void LCD_Pattern_Horizon(void)
{
 2001b60:	defffc04 	addi	sp,sp,-16
 2001b64:	dfc00315 	stw	ra,12(sp)
 2001b68:	df000215 	stw	fp,8(sp)
 2001b6c:	df000204 	addi	fp,sp,8
        alt_u32 index=0;
 2001b70:	e03ffe15 	stw	zero,-8(fp)
        alt_u16  data=0;
 2001b74:	e03fff0d 	sth	zero,-4(fp)
        LCD_SetCursor(0x00,0x0000);
 2001b78:	0009883a 	mov	r4,zero
 2001b7c:	000b883a 	mov	r5,zero
 2001b80:	20013540 	call	2001354 <LCD_SetCursor>
        data=0x0000;
 2001b84:	e03fff0d 	sth	zero,-4(fp)
        for(index=0;index<240*80;index++)
 2001b88:	e03ffe15 	stw	zero,-8(fp)
 2001b8c:	00000706 	br	2001bac <LCD_Pattern_Horizon+0x4c>
        {
        	LCD_WR_DATA(data);
 2001b90:	e0ffff0b 	ldhu	r3,-4(fp)
 2001b94:	00810034 	movhi	r2,1024
 2001b98:	109e2904 	addi	r2,r2,30884
 2001b9c:	10c00035 	stwio	r3,0(r2)
{
        alt_u32 index=0;
        alt_u16  data=0;
        LCD_SetCursor(0x00,0x0000);
        data=0x0000;
        for(index=0;index<240*80;index++)
 2001ba0:	e0bffe17 	ldw	r2,-8(fp)
 2001ba4:	10800044 	addi	r2,r2,1
 2001ba8:	e0bffe15 	stw	r2,-8(fp)
 2001bac:	e0bffe17 	ldw	r2,-8(fp)
 2001bb0:	1092c030 	cmpltui	r2,r2,19200
 2001bb4:	103ff61e 	bne	r2,zero,2001b90 <__alt_mem_pic_mem+0xfdffdb90>
        {
        	LCD_WR_DATA(data);
        }
        LCD_SetCursor(0x00,80);
 2001bb8:	0009883a 	mov	r4,zero
 2001bbc:	01401404 	movi	r5,80
 2001bc0:	20013540 	call	2001354 <LCD_SetCursor>
        data=RED;
 2001bc4:	00be0004 	movi	r2,-2048
 2001bc8:	e0bfff0d 	sth	r2,-4(fp)
		for(index=0;index<240*80;index++)
 2001bcc:	e03ffe15 	stw	zero,-8(fp)
 2001bd0:	00000706 	br	2001bf0 <LCD_Pattern_Horizon+0x90>
		{
			LCD_WR_DATA(data);
 2001bd4:	e0ffff0b 	ldhu	r3,-4(fp)
 2001bd8:	00810034 	movhi	r2,1024
 2001bdc:	109e2904 	addi	r2,r2,30884
 2001be0:	10c00035 	stwio	r3,0(r2)
        {
        	LCD_WR_DATA(data);
        }
        LCD_SetCursor(0x00,80);
        data=RED;
		for(index=0;index<240*80;index++)
 2001be4:	e0bffe17 	ldw	r2,-8(fp)
 2001be8:	10800044 	addi	r2,r2,1
 2001bec:	e0bffe15 	stw	r2,-8(fp)
 2001bf0:	e0bffe17 	ldw	r2,-8(fp)
 2001bf4:	1092c030 	cmpltui	r2,r2,19200
 2001bf8:	103ff61e 	bne	r2,zero,2001bd4 <__alt_mem_pic_mem+0xfdffdbd4>
		{
			LCD_WR_DATA(data);
		}
	    LCD_SetCursor(0x00,160);
 2001bfc:	0009883a 	mov	r4,zero
 2001c00:	01402804 	movi	r5,160
 2001c04:	20013540 	call	2001354 <LCD_SetCursor>
		data=GREEN;
 2001c08:	0081f804 	movi	r2,2016
 2001c0c:	e0bfff0d 	sth	r2,-4(fp)
		for(index=0;index<240*80;index++)
 2001c10:	e03ffe15 	stw	zero,-8(fp)
 2001c14:	00000706 	br	2001c34 <LCD_Pattern_Horizon+0xd4>
		{
			LCD_WR_DATA(data);
 2001c18:	e0ffff0b 	ldhu	r3,-4(fp)
 2001c1c:	00810034 	movhi	r2,1024
 2001c20:	109e2904 	addi	r2,r2,30884
 2001c24:	10c00035 	stwio	r3,0(r2)
		{
			LCD_WR_DATA(data);
		}
	    LCD_SetCursor(0x00,160);
		data=GREEN;
		for(index=0;index<240*80;index++)
 2001c28:	e0bffe17 	ldw	r2,-8(fp)
 2001c2c:	10800044 	addi	r2,r2,1
 2001c30:	e0bffe15 	stw	r2,-8(fp)
 2001c34:	e0bffe17 	ldw	r2,-8(fp)
 2001c38:	1092c030 	cmpltui	r2,r2,19200
 2001c3c:	103ff61e 	bne	r2,zero,2001c18 <__alt_mem_pic_mem+0xfdffdc18>
		{
			LCD_WR_DATA(data);
		}
		LCD_SetCursor(0x00,240);
 2001c40:	0009883a 	mov	r4,zero
 2001c44:	01403c04 	movi	r5,240
 2001c48:	20013540 	call	2001354 <LCD_SetCursor>
		data=BLUE;
 2001c4c:	008007c4 	movi	r2,31
 2001c50:	e0bfff0d 	sth	r2,-4(fp)
		for(index=0;index<240*80;index++)
 2001c54:	e03ffe15 	stw	zero,-8(fp)
 2001c58:	00000706 	br	2001c78 <LCD_Pattern_Horizon+0x118>
		{
			LCD_WR_DATA(data);
 2001c5c:	e0ffff0b 	ldhu	r3,-4(fp)
 2001c60:	00810034 	movhi	r2,1024
 2001c64:	109e2904 	addi	r2,r2,30884
 2001c68:	10c00035 	stwio	r3,0(r2)
		{
			LCD_WR_DATA(data);
		}
		LCD_SetCursor(0x00,240);
		data=BLUE;
		for(index=0;index<240*80;index++)
 2001c6c:	e0bffe17 	ldw	r2,-8(fp)
 2001c70:	10800044 	addi	r2,r2,1
 2001c74:	e0bffe15 	stw	r2,-8(fp)
 2001c78:	e0bffe17 	ldw	r2,-8(fp)
 2001c7c:	1092c030 	cmpltui	r2,r2,19200
 2001c80:	103ff61e 	bne	r2,zero,2001c5c <__alt_mem_pic_mem+0xfdffdc5c>
		{
			LCD_WR_DATA(data);
		}
}
 2001c84:	e037883a 	mov	sp,fp
 2001c88:	dfc00117 	ldw	ra,4(sp)
 2001c8c:	df000017 	ldw	fp,0(sp)
 2001c90:	dec00204 	addi	sp,sp,8
 2001c94:	f800283a 	ret

02001c98 <LCD_Pattern_Vertical>:

//-------------------------------------------------------------

void LCD_Pattern_Vertical(void)
{
 2001c98:	defff804 	addi	sp,sp,-32
 2001c9c:	dfc00715 	stw	ra,28(sp)
 2001ca0:	df000615 	stw	fp,24(sp)
 2001ca4:	df000604 	addi	fp,sp,24
        int i,j,m;
        alt_u16  data=0;
 2001ca8:	e03ffd0d 	sth	zero,-12(fp)
        alt_u16  color[4]={WHITE,BLUE,GREEN,RED};
 2001cac:	00bfffc4 	movi	r2,-1
 2001cb0:	e0bffd8d 	sth	r2,-10(fp)
 2001cb4:	008007c4 	movi	r2,31
 2001cb8:	e0bffe0d 	sth	r2,-8(fp)
 2001cbc:	0081f804 	movi	r2,2016
 2001cc0:	e0bffe8d 	sth	r2,-6(fp)
 2001cc4:	00be0004 	movi	r2,-2048
 2001cc8:	e0bfff0d 	sth	r2,-4(fp)
        LCD_SetCursor(0x00,0x0000);
 2001ccc:	0009883a 	mov	r4,zero
 2001cd0:	000b883a 	mov	r5,zero
 2001cd4:	20013540 	call	2001354 <LCD_SetCursor>
        for(m=0;m<320;m++)
 2001cd8:	e03ffc15 	stw	zero,-16(fp)
 2001cdc:	00001e06 	br	2001d58 <LCD_Pattern_Vertical+0xc0>
        {
			for(i=0;i<4;i++)
 2001ce0:	e03ffa15 	stw	zero,-24(fp)
 2001ce4:	00001606 	br	2001d40 <LCD_Pattern_Vertical+0xa8>
			{
				data=color[i];
 2001ce8:	e0bffa17 	ldw	r2,-24(fp)
 2001cec:	1085883a 	add	r2,r2,r2
 2001cf0:	e0fffa04 	addi	r3,fp,-24
 2001cf4:	1885883a 	add	r2,r3,r2
 2001cf8:	10800384 	addi	r2,r2,14
 2001cfc:	1080000b 	ldhu	r2,0(r2)
 2001d00:	e0bffd0d 	sth	r2,-12(fp)
				for(j=0;j<60;j++)
 2001d04:	e03ffb15 	stw	zero,-20(fp)
 2001d08:	00000706 	br	2001d28 <LCD_Pattern_Vertical+0x90>
				{
					LCD_WR_DATA(data);
 2001d0c:	e0fffd0b 	ldhu	r3,-12(fp)
 2001d10:	00810034 	movhi	r2,1024
 2001d14:	109e2904 	addi	r2,r2,30884
 2001d18:	10c00035 	stwio	r3,0(r2)
        for(m=0;m<320;m++)
        {
			for(i=0;i<4;i++)
			{
				data=color[i];
				for(j=0;j<60;j++)
 2001d1c:	e0bffb17 	ldw	r2,-20(fp)
 2001d20:	10800044 	addi	r2,r2,1
 2001d24:	e0bffb15 	stw	r2,-20(fp)
 2001d28:	e0bffb17 	ldw	r2,-20(fp)
 2001d2c:	10800f10 	cmplti	r2,r2,60
 2001d30:	103ff61e 	bne	r2,zero,2001d0c <__alt_mem_pic_mem+0xfdffdd0c>
        alt_u16  data=0;
        alt_u16  color[4]={WHITE,BLUE,GREEN,RED};
        LCD_SetCursor(0x00,0x0000);
        for(m=0;m<320;m++)
        {
			for(i=0;i<4;i++)
 2001d34:	e0bffa17 	ldw	r2,-24(fp)
 2001d38:	10800044 	addi	r2,r2,1
 2001d3c:	e0bffa15 	stw	r2,-24(fp)
 2001d40:	e0bffa17 	ldw	r2,-24(fp)
 2001d44:	10800110 	cmplti	r2,r2,4
 2001d48:	103fe71e 	bne	r2,zero,2001ce8 <__alt_mem_pic_mem+0xfdffdce8>
{
        int i,j,m;
        alt_u16  data=0;
        alt_u16  color[4]={WHITE,BLUE,GREEN,RED};
        LCD_SetCursor(0x00,0x0000);
        for(m=0;m<320;m++)
 2001d4c:	e0bffc17 	ldw	r2,-16(fp)
 2001d50:	10800044 	addi	r2,r2,1
 2001d54:	e0bffc15 	stw	r2,-16(fp)
 2001d58:	e0bffc17 	ldw	r2,-16(fp)
 2001d5c:	10805010 	cmplti	r2,r2,320
 2001d60:	103fdf1e 	bne	r2,zero,2001ce0 <__alt_mem_pic_mem+0xfdffdce0>
				{
					LCD_WR_DATA(data);
				}
			}
        }
}
 2001d64:	e037883a 	mov	sp,fp
 2001d68:	dfc00117 	ldw	ra,4(sp)
 2001d6c:	df000017 	ldw	fp,0(sp)
 2001d70:	dec00204 	addi	sp,sp,8
 2001d74:	f800283a 	ret

02001d78 <Set_BUFFER_FLAG>:

void Set_BUFFER_FLAG(){
 2001d78:	deffff04 	addi	sp,sp,-4
 2001d7c:	df000015 	stw	fp,0(sp)
 2001d80:	d839883a 	mov	fp,sp
	IOWR_ALTERA_AVALON_PIO_DATA(LT24_BUFFER_FLAG_BASE,0x01);
 2001d84:	00c00044 	movi	r3,1
 2001d88:	00810034 	movhi	r2,1024
 2001d8c:	109e1004 	addi	r2,r2,30784
 2001d90:	10c00035 	stwio	r3,0(r2)
	LCD_WR_REG(0x002c);
 2001d94:	00c00b04 	movi	r3,44
 2001d98:	00810034 	movhi	r2,1024
 2001d9c:	109e2804 	addi	r2,r2,30880
 2001da0:	10c00035 	stwio	r3,0(r2)
}
 2001da4:	e037883a 	mov	sp,fp
 2001da8:	df000017 	ldw	fp,0(sp)
 2001dac:	dec00104 	addi	sp,sp,4
 2001db0:	f800283a 	ret

02001db4 <Clr_BUFFER_FLAG>:

void Clr_BUFFER_FLAG(){
 2001db4:	deffff04 	addi	sp,sp,-4
 2001db8:	df000015 	stw	fp,0(sp)
 2001dbc:	d839883a 	mov	fp,sp
	IOWR_ALTERA_AVALON_PIO_DATA(LT24_BUFFER_FLAG_BASE,0x00);
 2001dc0:	0007883a 	mov	r3,zero
 2001dc4:	00810034 	movhi	r2,1024
 2001dc8:	109e1004 	addi	r2,r2,30784
 2001dcc:	10c00035 	stwio	r3,0(r2)
	LCD_WR_REG(0x002c);
 2001dd0:	00c00b04 	movi	r3,44
 2001dd4:	00810034 	movhi	r2,1024
 2001dd8:	109e2804 	addi	r2,r2,30880
 2001ddc:	10c00035 	stwio	r3,0(r2)
}
 2001de0:	e037883a 	mov	sp,fp
 2001de4:	df000017 	ldw	fp,0(sp)
 2001de8:	dec00104 	addi	sp,sp,4
 2001dec:	f800283a 	ret

02001df0 <IsPtInRect>:

//#define BOUND(x, mini, maxi) ((x<(mini)?(mini):( (x>(maxi))?(maxi):(x) )))

//#define COPY_POINT(pt_des, pt_src)  memcpy(&pt_des, &pt_src,sizeof(POINT))

bool IsPtInRect(POINT *pt, RECT *rc){
 2001df0:	defffc04 	addi	sp,sp,-16
 2001df4:	df000315 	stw	fp,12(sp)
 2001df8:	df000304 	addi	fp,sp,12
 2001dfc:	e13ffe15 	stw	r4,-8(fp)
 2001e00:	e17fff15 	stw	r5,-4(fp)
    bool bYes = FALSE;
 2001e04:	e03ffd15 	stw	zero,-12(fp)
    
    if (pt->x >= rc->left && pt->x <= rc->right && pt->y >= rc->top && pt->y <= rc->bottom)
 2001e08:	e0bffe17 	ldw	r2,-8(fp)
 2001e0c:	10c00017 	ldw	r3,0(r2)
 2001e10:	e0bfff17 	ldw	r2,-4(fp)
 2001e14:	10800017 	ldw	r2,0(r2)
 2001e18:	18801116 	blt	r3,r2,2001e60 <IsPtInRect+0x70>
 2001e1c:	e0bffe17 	ldw	r2,-8(fp)
 2001e20:	10800017 	ldw	r2,0(r2)
 2001e24:	e0ffff17 	ldw	r3,-4(fp)
 2001e28:	18c00117 	ldw	r3,4(r3)
 2001e2c:	18800c16 	blt	r3,r2,2001e60 <IsPtInRect+0x70>
 2001e30:	e0bffe17 	ldw	r2,-8(fp)
 2001e34:	10c00117 	ldw	r3,4(r2)
 2001e38:	e0bfff17 	ldw	r2,-4(fp)
 2001e3c:	10800217 	ldw	r2,8(r2)
 2001e40:	18800716 	blt	r3,r2,2001e60 <IsPtInRect+0x70>
 2001e44:	e0bffe17 	ldw	r2,-8(fp)
 2001e48:	10800117 	ldw	r2,4(r2)
 2001e4c:	e0ffff17 	ldw	r3,-4(fp)
 2001e50:	18c00317 	ldw	r3,12(r3)
 2001e54:	18800216 	blt	r3,r2,2001e60 <IsPtInRect+0x70>
        bYes = TRUE;
 2001e58:	00800044 	movi	r2,1
 2001e5c:	e0bffd15 	stw	r2,-12(fp)
    
    return bYes;
 2001e60:	e0bffd17 	ldw	r2,-12(fp)
}
 2001e64:	e037883a 	mov	sp,fp
 2001e68:	df000017 	ldw	fp,0(sp)
 2001e6c:	dec00104 	addi	sp,sp,4
 2001e70:	f800283a 	ret

02001e74 <PtSet>:

void PtSet(POINT *pt, int x, int y){
 2001e74:	defffc04 	addi	sp,sp,-16
 2001e78:	df000315 	stw	fp,12(sp)
 2001e7c:	df000304 	addi	fp,sp,12
 2001e80:	e13ffd15 	stw	r4,-12(fp)
 2001e84:	e17ffe15 	stw	r5,-8(fp)
 2001e88:	e1bfff15 	stw	r6,-4(fp)
    pt->x = x;
 2001e8c:	e0bffd17 	ldw	r2,-12(fp)
 2001e90:	e0fffe17 	ldw	r3,-8(fp)
 2001e94:	10c00015 	stw	r3,0(r2)
    pt->y = y;
 2001e98:	e0bffd17 	ldw	r2,-12(fp)
 2001e9c:	e0ffff17 	ldw	r3,-4(fp)
 2001ea0:	10c00115 	stw	r3,4(r2)
}
 2001ea4:	e037883a 	mov	sp,fp
 2001ea8:	df000017 	ldw	fp,0(sp)
 2001eac:	dec00104 	addi	sp,sp,4
 2001eb0:	f800283a 	ret

02001eb4 <RectSet>:

void RectSet(RECT *rc, int left, int right, int top, int bottom){
 2001eb4:	defffb04 	addi	sp,sp,-20
 2001eb8:	df000415 	stw	fp,16(sp)
 2001ebc:	df000404 	addi	fp,sp,16
 2001ec0:	e13ffc15 	stw	r4,-16(fp)
 2001ec4:	e17ffd15 	stw	r5,-12(fp)
 2001ec8:	e1bffe15 	stw	r6,-8(fp)
 2001ecc:	e1ffff15 	stw	r7,-4(fp)
    rc->left = left;
 2001ed0:	e0bffc17 	ldw	r2,-16(fp)
 2001ed4:	e0fffd17 	ldw	r3,-12(fp)
 2001ed8:	10c00015 	stw	r3,0(r2)
    rc->right = right;
 2001edc:	e0bffc17 	ldw	r2,-16(fp)
 2001ee0:	e0fffe17 	ldw	r3,-8(fp)
 2001ee4:	10c00115 	stw	r3,4(r2)
    rc->top = top;
 2001ee8:	e0bffc17 	ldw	r2,-16(fp)
 2001eec:	e0ffff17 	ldw	r3,-4(fp)
 2001ef0:	10c00215 	stw	r3,8(r2)
    rc->bottom = bottom;
 2001ef4:	e0bffc17 	ldw	r2,-16(fp)
 2001ef8:	e0c00117 	ldw	r3,4(fp)
 2001efc:	10c00315 	stw	r3,12(r2)
}
 2001f00:	e037883a 	mov	sp,fp
 2001f04:	df000017 	ldw	fp,0(sp)
 2001f08:	dec00104 	addi	sp,sp,4
 2001f0c:	f800283a 	ret

02001f10 <RectInflate>:

void RectInflate(RECT *rc, int x, int y){
 2001f10:	defffc04 	addi	sp,sp,-16
 2001f14:	df000315 	stw	fp,12(sp)
 2001f18:	df000304 	addi	fp,sp,12
 2001f1c:	e13ffd15 	stw	r4,-12(fp)
 2001f20:	e17ffe15 	stw	r5,-8(fp)
 2001f24:	e1bfff15 	stw	r6,-4(fp)
    rc->left -= x;
 2001f28:	e0bffd17 	ldw	r2,-12(fp)
 2001f2c:	10c00017 	ldw	r3,0(r2)
 2001f30:	e0bffe17 	ldw	r2,-8(fp)
 2001f34:	1887c83a 	sub	r3,r3,r2
 2001f38:	e0bffd17 	ldw	r2,-12(fp)
 2001f3c:	10c00015 	stw	r3,0(r2)
    rc->right += x;
 2001f40:	e0bffd17 	ldw	r2,-12(fp)
 2001f44:	10c00117 	ldw	r3,4(r2)
 2001f48:	e0bffe17 	ldw	r2,-8(fp)
 2001f4c:	1887883a 	add	r3,r3,r2
 2001f50:	e0bffd17 	ldw	r2,-12(fp)
 2001f54:	10c00115 	stw	r3,4(r2)
    rc->top -= y;
 2001f58:	e0bffd17 	ldw	r2,-12(fp)
 2001f5c:	10c00217 	ldw	r3,8(r2)
 2001f60:	e0bfff17 	ldw	r2,-4(fp)
 2001f64:	1887c83a 	sub	r3,r3,r2
 2001f68:	e0bffd17 	ldw	r2,-12(fp)
 2001f6c:	10c00215 	stw	r3,8(r2)
    rc->bottom += y;
 2001f70:	e0bffd17 	ldw	r2,-12(fp)
 2001f74:	10c00317 	ldw	r3,12(r2)
 2001f78:	e0bfff17 	ldw	r2,-4(fp)
 2001f7c:	1887883a 	add	r3,r3,r2
 2001f80:	e0bffd17 	ldw	r2,-12(fp)
 2001f84:	10c00315 	stw	r3,12(r2)
}
 2001f88:	e037883a 	mov	sp,fp
 2001f8c:	df000017 	ldw	fp,0(sp)
 2001f90:	dec00104 	addi	sp,sp,4
 2001f94:	f800283a 	ret

02001f98 <RectOffset>:

void RectOffset(RECT *rc, int x, int y){
 2001f98:	defffc04 	addi	sp,sp,-16
 2001f9c:	df000315 	stw	fp,12(sp)
 2001fa0:	df000304 	addi	fp,sp,12
 2001fa4:	e13ffd15 	stw	r4,-12(fp)
 2001fa8:	e17ffe15 	stw	r5,-8(fp)
 2001fac:	e1bfff15 	stw	r6,-4(fp)
    rc->left += x;
 2001fb0:	e0bffd17 	ldw	r2,-12(fp)
 2001fb4:	10c00017 	ldw	r3,0(r2)
 2001fb8:	e0bffe17 	ldw	r2,-8(fp)
 2001fbc:	1887883a 	add	r3,r3,r2
 2001fc0:	e0bffd17 	ldw	r2,-12(fp)
 2001fc4:	10c00015 	stw	r3,0(r2)
    rc->right += x;
 2001fc8:	e0bffd17 	ldw	r2,-12(fp)
 2001fcc:	10c00117 	ldw	r3,4(r2)
 2001fd0:	e0bffe17 	ldw	r2,-8(fp)
 2001fd4:	1887883a 	add	r3,r3,r2
 2001fd8:	e0bffd17 	ldw	r2,-12(fp)
 2001fdc:	10c00115 	stw	r3,4(r2)
    rc->top += y;
 2001fe0:	e0bffd17 	ldw	r2,-12(fp)
 2001fe4:	10c00217 	ldw	r3,8(r2)
 2001fe8:	e0bfff17 	ldw	r2,-4(fp)
 2001fec:	1887883a 	add	r3,r3,r2
 2001ff0:	e0bffd17 	ldw	r2,-12(fp)
 2001ff4:	10c00215 	stw	r3,8(r2)
    rc->bottom += y;
 2001ff8:	e0bffd17 	ldw	r2,-12(fp)
 2001ffc:	10c00317 	ldw	r3,12(r2)
 2002000:	e0bfff17 	ldw	r2,-4(fp)
 2002004:	1887883a 	add	r3,r3,r2
 2002008:	e0bffd17 	ldw	r2,-12(fp)
 200200c:	10c00315 	stw	r3,12(r2)
}
 2002010:	e037883a 	mov	sp,fp
 2002014:	df000017 	ldw	fp,0(sp)
 2002018:	dec00104 	addi	sp,sp,4
 200201c:	f800283a 	ret

02002020 <RectCopy>:

void RectCopy(RECT *rcDes, RECT *rcSrc){
 2002020:	defffd04 	addi	sp,sp,-12
 2002024:	df000215 	stw	fp,8(sp)
 2002028:	df000204 	addi	fp,sp,8
 200202c:	e13ffe15 	stw	r4,-8(fp)
 2002030:	e17fff15 	stw	r5,-4(fp)
    rcDes->left = rcSrc->left;
 2002034:	e0bfff17 	ldw	r2,-4(fp)
 2002038:	10c00017 	ldw	r3,0(r2)
 200203c:	e0bffe17 	ldw	r2,-8(fp)
 2002040:	10c00015 	stw	r3,0(r2)
    rcDes->right = rcSrc->right;
 2002044:	e0bfff17 	ldw	r2,-4(fp)
 2002048:	10c00117 	ldw	r3,4(r2)
 200204c:	e0bffe17 	ldw	r2,-8(fp)
 2002050:	10c00115 	stw	r3,4(r2)
    rcDes->top = rcSrc->top;
 2002054:	e0bfff17 	ldw	r2,-4(fp)
 2002058:	10c00217 	ldw	r3,8(r2)
 200205c:	e0bffe17 	ldw	r2,-8(fp)
 2002060:	10c00215 	stw	r3,8(r2)
    rcDes->bottom = rcSrc->bottom;
 2002064:	e0bfff17 	ldw	r2,-4(fp)
 2002068:	10c00317 	ldw	r3,12(r2)
 200206c:	e0bffe17 	ldw	r2,-8(fp)
 2002070:	10c00315 	stw	r3,12(r2)
}
 2002074:	e037883a 	mov	sp,fp
 2002078:	df000017 	ldw	fp,0(sp)
 200207c:	dec00104 	addi	sp,sp,4
 2002080:	f800283a 	ret

02002084 <RectWidth>:

int RectWidth(RECT *rc){
 2002084:	defffe04 	addi	sp,sp,-8
 2002088:	df000115 	stw	fp,4(sp)
 200208c:	df000104 	addi	fp,sp,4
 2002090:	e13fff15 	stw	r4,-4(fp)
    return (rc->right-rc->left);
 2002094:	e0bfff17 	ldw	r2,-4(fp)
 2002098:	10c00117 	ldw	r3,4(r2)
 200209c:	e0bfff17 	ldw	r2,-4(fp)
 20020a0:	10800017 	ldw	r2,0(r2)
 20020a4:	1885c83a 	sub	r2,r3,r2
}
 20020a8:	e037883a 	mov	sp,fp
 20020ac:	df000017 	ldw	fp,0(sp)
 20020b0:	dec00104 	addi	sp,sp,4
 20020b4:	f800283a 	ret

020020b8 <RectHeight>:

int RectHeight(RECT *rc){
 20020b8:	defffe04 	addi	sp,sp,-8
 20020bc:	df000115 	stw	fp,4(sp)
 20020c0:	df000104 	addi	fp,sp,4
 20020c4:	e13fff15 	stw	r4,-4(fp)
    return (rc->bottom-rc->top);
 20020c8:	e0bfff17 	ldw	r2,-4(fp)
 20020cc:	10c00317 	ldw	r3,12(r2)
 20020d0:	e0bfff17 	ldw	r2,-4(fp)
 20020d4:	10800217 	ldw	r2,8(r2)
 20020d8:	1885c83a 	sub	r2,r3,r2
}
 20020dc:	e037883a 	mov	sp,fp
 20020e0:	df000017 	ldw	fp,0(sp)
 20020e4:	dec00104 	addi	sp,sp,4
 20020e8:	f800283a 	ret

020020ec <PtDistance>:

int PtDistance(POINT *pt1, POINT *pt2){
 20020ec:	defff904 	addi	sp,sp,-28
 20020f0:	dfc00615 	stw	ra,24(sp)
 20020f4:	df000515 	stw	fp,20(sp)
 20020f8:	df000504 	addi	fp,sp,20
 20020fc:	e13ffe15 	stw	r4,-8(fp)
 2002100:	e17fff15 	stw	r5,-4(fp)
    int nDistance;
    int a, b;
    a = pt1->x - pt2->x;
 2002104:	e0bffe17 	ldw	r2,-8(fp)
 2002108:	10c00017 	ldw	r3,0(r2)
 200210c:	e0bfff17 	ldw	r2,-4(fp)
 2002110:	10800017 	ldw	r2,0(r2)
 2002114:	1885c83a 	sub	r2,r3,r2
 2002118:	e0bffb15 	stw	r2,-20(fp)
    b = pt1->y - pt2->y;
 200211c:	e0bffe17 	ldw	r2,-8(fp)
 2002120:	10c00117 	ldw	r3,4(r2)
 2002124:	e0bfff17 	ldw	r2,-4(fp)
 2002128:	10800117 	ldw	r2,4(r2)
 200212c:	1885c83a 	sub	r2,r3,r2
 2002130:	e0bffc15 	stw	r2,-16(fp)
    nDistance = a*a + b*b;
 2002134:	e0fffb17 	ldw	r3,-20(fp)
 2002138:	e0bffb17 	ldw	r2,-20(fp)
 200213c:	1887383a 	mul	r3,r3,r2
 2002140:	e13ffc17 	ldw	r4,-16(fp)
 2002144:	e0bffc17 	ldw	r2,-16(fp)
 2002148:	2085383a 	mul	r2,r4,r2
 200214c:	1885883a 	add	r2,r3,r2
 2002150:	e0bffd15 	stw	r2,-12(fp)
    nDistance = sqrt(nDistance);
 2002154:	e13ffd17 	ldw	r4,-12(fp)
 2002158:	20085d00 	call	20085d0 <__floatsidf>
 200215c:	100b883a 	mov	r5,r2
 2002160:	180d883a 	mov	r6,r3
 2002164:	2809883a 	mov	r4,r5
 2002168:	300b883a 	mov	r5,r6
 200216c:	2005da00 	call	2005da0 <sqrt>
 2002170:	100b883a 	mov	r5,r2
 2002174:	180d883a 	mov	r6,r3
 2002178:	2809883a 	mov	r4,r5
 200217c:	300b883a 	mov	r5,r6
 2002180:	20085480 	call	2008548 <__fixdfsi>
 2002184:	e0bffd15 	stw	r2,-12(fp)
    
    return nDistance;
 2002188:	e0bffd17 	ldw	r2,-12(fp)
}
 200218c:	e037883a 	mov	sp,fp
 2002190:	dfc00117 	ldw	ra,4(sp)
 2002194:	df000017 	ldw	fp,0(sp)
 2002198:	dec00204 	addi	sp,sp,8
 200219c:	f800283a 	ret

020021a0 <PtCopy>:

void PtCopy(POINT *ptDes, POINT *ptSrc){
 20021a0:	defffd04 	addi	sp,sp,-12
 20021a4:	df000215 	stw	fp,8(sp)
 20021a8:	df000204 	addi	fp,sp,8
 20021ac:	e13ffe15 	stw	r4,-8(fp)
 20021b0:	e17fff15 	stw	r5,-4(fp)
    ptDes->x = ptSrc->x;
 20021b4:	e0bfff17 	ldw	r2,-4(fp)
 20021b8:	10c00017 	ldw	r3,0(r2)
 20021bc:	e0bffe17 	ldw	r2,-8(fp)
 20021c0:	10c00015 	stw	r3,0(r2)
    ptDes->y = ptSrc->y;
 20021c4:	e0bfff17 	ldw	r2,-4(fp)
 20021c8:	10c00117 	ldw	r3,4(r2)
 20021cc:	e0bffe17 	ldw	r2,-8(fp)
 20021d0:	10c00115 	stw	r3,4(r2)
}
 20021d4:	e037883a 	mov	sp,fp
 20021d8:	df000017 	ldw	fp,0(sp)
 20021dc:	dec00104 	addi	sp,sp,4
 20021e0:	f800283a 	ret

020021e4 <vid_clean_screen>:
#include "ILI9341.h"
#endif


// richard add
void vid_clean_screen(alt_video_display* display, int color){
 20021e4:	defffa04 	addi	sp,sp,-24
 20021e8:	dfc00515 	stw	ra,20(sp)
 20021ec:	df000415 	stw	fp,16(sp)
 20021f0:	df000404 	addi	fp,sp,16
 20021f4:	e13ffe15 	stw	r4,-8(fp)
 20021f8:	e17fff15 	stw	r5,-4(fp)
    vid_paint_block(0 , 0,display->width, display->height, color, display);
 20021fc:	e0bffe17 	ldw	r2,-8(fp)
 2002200:	11800117 	ldw	r6,4(r2)
 2002204:	e0bffe17 	ldw	r2,-8(fp)
 2002208:	10c00217 	ldw	r3,8(r2)
 200220c:	e0bfff17 	ldw	r2,-4(fp)
 2002210:	d8800015 	stw	r2,0(sp)
 2002214:	e0bffe17 	ldw	r2,-8(fp)
 2002218:	d8800115 	stw	r2,4(sp)
 200221c:	0009883a 	mov	r4,zero
 2002220:	000b883a 	mov	r5,zero
 2002224:	180f883a 	mov	r7,r3
 2002228:	2002d400 	call	2002d40 <vid_paint_block>
}
 200222c:	e037883a 	mov	sp,fp
 2002230:	dfc00117 	ldw	ra,4(sp)
 2002234:	df000017 	ldw	fp,0(sp)
 2002238:	dec00204 	addi	sp,sp,8
 200223c:	f800283a 	ret

02002240 <vid_draw_line>:
*           vid_draw_horiz_line(), which is much faster than 
*           vid_draw_sloped_line.
*
******************************************************************/
__inline__ void vid_draw_line(int horiz_start, int vert_start, int horiz_end, int vert_end, int width, int color, alt_video_display* display)
{
 2002240:	defff704 	addi	sp,sp,-36
 2002244:	dfc00815 	stw	ra,32(sp)
 2002248:	df000715 	stw	fp,28(sp)
 200224c:	df000704 	addi	fp,sp,28
 2002250:	e13ffc15 	stw	r4,-16(fp)
 2002254:	e17ffd15 	stw	r5,-12(fp)
 2002258:	e1bffe15 	stw	r6,-8(fp)
 200225c:	e1ffff15 	stw	r7,-4(fp)
 
  if( vert_start == vert_end )
 2002260:	e0fffd17 	ldw	r3,-12(fp)
 2002264:	e0bfff17 	ldw	r2,-4(fp)
 2002268:	1880101e 	bne	r3,r2,20022ac <vid_draw_line+0x6c>
//                         (unsigned short)horiz_end,  
//                         (unsigned short)vert_start,
//                         color,
//                         display->buffer_ptrs[display->buffer_being_written]->buffer);

    vid_draw_horiz_line( (unsigned short)horiz_start, 
 200226c:	e0bffc17 	ldw	r2,-16(fp)
 2002270:	113fffcc 	andi	r4,r2,65535
 2002274:	2120001c 	xori	r4,r4,32768
 2002278:	21200004 	addi	r4,r4,-32768
 200227c:	e0bffe17 	ldw	r2,-8(fp)
 2002280:	117fffcc 	andi	r5,r2,65535
 2002284:	2960001c 	xori	r5,r5,32768
 2002288:	29600004 	addi	r5,r5,-32768
                         (unsigned short)horiz_end, 
                         (unsigned short)vert_start,
 200228c:	e0bffd17 	ldw	r2,-12(fp)
//                         (unsigned short)horiz_end,  
//                         (unsigned short)vert_start,
//                         color,
//                         display->buffer_ptrs[display->buffer_being_written]->buffer);

    vid_draw_horiz_line( (unsigned short)horiz_start, 
 2002290:	10ffffcc 	andi	r3,r2,65535
 2002294:	e0800417 	ldw	r2,16(fp)
 2002298:	d8800015 	stw	r2,0(sp)
 200229c:	180d883a 	mov	r6,r3
 20022a0:	e1c00317 	ldw	r7,12(fp)
 20022a4:	2002dd40 	call	2002dd4 <vid_draw_horiz_line>
 20022a8:	00001106 	br	20022f0 <vid_draw_line+0xb0>
                         color,
                         display );
  }
  else
  {
    vid_draw_sloped_line( (unsigned short)horiz_start, 
 20022ac:	e0bffc17 	ldw	r2,-16(fp)
 20022b0:	113fffcc 	andi	r4,r2,65535
                          (unsigned short)vert_start, 
 20022b4:	e0bffd17 	ldw	r2,-12(fp)
                         color,
                         display );
  }
  else
  {
    vid_draw_sloped_line( (unsigned short)horiz_start, 
 20022b8:	117fffcc 	andi	r5,r2,65535
                          (unsigned short)vert_start, 
                          (unsigned short)horiz_end, 
 20022bc:	e0bffe17 	ldw	r2,-8(fp)
                         color,
                         display );
  }
  else
  {
    vid_draw_sloped_line( (unsigned short)horiz_start, 
 20022c0:	11bfffcc 	andi	r6,r2,65535
                          (unsigned short)vert_start, 
                          (unsigned short)horiz_end, 
                          (unsigned short)vert_end, 
 20022c4:	e0bfff17 	ldw	r2,-4(fp)
                         color,
                         display );
  }
  else
  {
    vid_draw_sloped_line( (unsigned short)horiz_start, 
 20022c8:	10ffffcc 	andi	r3,r2,65535
                          (unsigned short)vert_start, 
                          (unsigned short)horiz_end, 
                          (unsigned short)vert_end, 
                          (unsigned short)width, 
 20022cc:	e0800217 	ldw	r2,8(fp)
                         color,
                         display );
  }
  else
  {
    vid_draw_sloped_line( (unsigned short)horiz_start, 
 20022d0:	10bfffcc 	andi	r2,r2,65535
 20022d4:	d8800015 	stw	r2,0(sp)
 20022d8:	e0800317 	ldw	r2,12(fp)
 20022dc:	d8800115 	stw	r2,4(sp)
 20022e0:	e0800417 	ldw	r2,16(fp)
 20022e4:	d8800215 	stw	r2,8(sp)
 20022e8:	180f883a 	mov	r7,r3
 20022ec:	2002fe80 	call	2002fe8 <vid_draw_sloped_line>
                          (unsigned short)vert_end, 
                          (unsigned short)width, 
                          color,
                          display );
  }
}
 20022f0:	e037883a 	mov	sp,fp
 20022f4:	dfc00117 	ldw	ra,4(sp)
 20022f8:	df000017 	ldw	fp,0(sp)
 20022fc:	dec00204 	addi	sp,sp,8
 2002300:	f800283a 	ret

02002304 <vid_scroll_string_quit>:



void vid_scroll_string_quit(vid_text_scroll_struct* scroll)
{
 2002304:	defffd04 	addi	sp,sp,-12
 2002308:	dfc00215 	stw	ra,8(sp)
 200230c:	df000115 	stw	fp,4(sp)
 2002310:	df000104 	addi	fp,sp,4
 2002314:	e13fff15 	stw	r4,-4(fp)
  free(scroll->string);
 2002318:	e0bfff17 	ldw	r2,-4(fp)
 200231c:	10800517 	ldw	r2,20(r2)
 2002320:	1009883a 	mov	r4,r2
 2002324:	20087280 	call	2008728 <free>
  free(scroll);
 2002328:	e13fff17 	ldw	r4,-4(fp)
 200232c:	20087280 	call	2008728 <free>
}
 2002330:	e037883a 	mov	sp,fp
 2002334:	dfc00117 	ldw	ra,4(sp)
 2002338:	df000017 	ldw	fp,0(sp)
 200233c:	dec00204 	addi	sp,sp,8
 2002340:	f800283a 	ret

02002344 <vid_scroll_string_init>:

vid_text_scroll_struct* vid_scroll_string_init(int hbegin, int vbegin, int hend, int f_color, int b_color, char* font, int ms_delay, char *string)
{
 2002344:	defff904 	addi	sp,sp,-28
 2002348:	dfc00615 	stw	ra,24(sp)
 200234c:	df000515 	stw	fp,20(sp)
 2002350:	df000504 	addi	fp,sp,20
 2002354:	e13ffc15 	stw	r4,-16(fp)
 2002358:	e17ffd15 	stw	r5,-12(fp)
 200235c:	e1bffe15 	stw	r6,-8(fp)
 2002360:	e1ffff15 	stw	r7,-4(fp)
  vid_text_scroll_struct* scroll;
  scroll = malloc(sizeof (vid_text_scroll_struct));
 2002364:	01000f04 	movi	r4,60
 2002368:	20087140 	call	2008714 <malloc>
 200236c:	e0bffb15 	stw	r2,-20(fp)
  
  scroll->hbegin = hbegin;
 2002370:	e0bffb17 	ldw	r2,-20(fp)
 2002374:	e0fffc17 	ldw	r3,-16(fp)
 2002378:	10c00015 	stw	r3,0(r2)
  scroll->vbegin = vbegin;
 200237c:	e0bffb17 	ldw	r2,-20(fp)
 2002380:	e0fffd17 	ldw	r3,-12(fp)
 2002384:	10c00115 	stw	r3,4(r2)
  scroll->hend = hend;
 2002388:	e0bffb17 	ldw	r2,-20(fp)
 200238c:	e0fffe17 	ldw	r3,-8(fp)
 2002390:	10c00215 	stw	r3,8(r2)
  scroll->f_color = f_color;
 2002394:	e0bffb17 	ldw	r2,-20(fp)
 2002398:	e0ffff17 	ldw	r3,-4(fp)
 200239c:	10c00315 	stw	r3,12(r2)
  scroll->b_color = b_color;
 20023a0:	e0bffb17 	ldw	r2,-20(fp)
 20023a4:	e0c00217 	ldw	r3,8(fp)
 20023a8:	10c00415 	stw	r3,16(r2)
  scroll->string = malloc(strlen(string)+2);
 20023ac:	e1000517 	ldw	r4,20(fp)
 20023b0:	200907c0 	call	200907c <strlen>
 20023b4:	10800084 	addi	r2,r2,2
 20023b8:	1009883a 	mov	r4,r2
 20023bc:	20087140 	call	2008714 <malloc>
 20023c0:	1007883a 	mov	r3,r2
 20023c4:	e0bffb17 	ldw	r2,-20(fp)
 20023c8:	10c00515 	stw	r3,20(r2)
  strcpy(scroll->string, string);
 20023cc:	e0bffb17 	ldw	r2,-20(fp)
 20023d0:	10800517 	ldw	r2,20(r2)
 20023d4:	1009883a 	mov	r4,r2
 20023d8:	e1400517 	ldw	r5,20(fp)
 20023dc:	20090500 	call	2009050 <strcpy>
  scroll->font = font;
 20023e0:	e0bffb17 	ldw	r2,-20(fp)
 20023e4:	e0c00317 	ldw	r3,12(fp)
 20023e8:	10c00615 	stw	r3,24(r2)
  scroll->ms_delay = ms_delay;
 20023ec:	e0bffb17 	ldw	r2,-20(fp)
 20023f0:	e0c00417 	ldw	r3,16(fp)
 20023f4:	10c00715 	stw	r3,28(r2)
 * alt_nticks() returns the elapsed number of system clock ticks since reset.
 */

static ALT_INLINE alt_u32 ALT_ALWAYS_INLINE alt_nticks (void)
{
  return _alt_nticks;
 20023f8:	008080f4 	movhi	r2,515
 20023fc:	10a8e504 	addi	r2,r2,-23660
 2002400:	10800017 	ldw	r2,0(r2)
  scroll->ticks_at_last_move = alt_nticks();
 2002404:	1007883a 	mov	r3,r2
 2002408:	e0bffb17 	ldw	r2,-20(fp)
 200240c:	10c00815 	stw	r3,32(r2)
  scroll->text_scroll_index = 0;
 2002410:	e0bffb17 	ldw	r2,-20(fp)
 2002414:	10000915 	stw	zero,36(r2)
  scroll->text_scroll_started = 0;
 2002418:	e0bffb17 	ldw	r2,-20(fp)
 200241c:	10000a05 	stb	zero,40(r2)
  scroll->window_width = scroll->hend - scroll->hbegin;
 2002420:	e0bffb17 	ldw	r2,-20(fp)
 2002424:	10c00217 	ldw	r3,8(r2)
 2002428:	e0bffb17 	ldw	r2,-20(fp)
 200242c:	10800017 	ldw	r2,0(r2)
 2002430:	1887c83a 	sub	r3,r3,r2
 2002434:	e0bffb17 	ldw	r2,-20(fp)
 2002438:	10c00b15 	stw	r3,44(r2)
  scroll->length_of_string = strlen(string);
 200243c:	e1000517 	ldw	r4,20(fp)
 2002440:	200907c0 	call	200907c <strlen>
 2002444:	1007883a 	mov	r3,r2
 2002448:	e0bffb17 	ldw	r2,-20(fp)
 200244c:	10c00c15 	stw	r3,48(r2)
  scroll->string_points = scroll->length_of_string * 8;
 2002450:	e0bffb17 	ldw	r2,-20(fp)
 2002454:	10800c17 	ldw	r2,48(r2)
 2002458:	100690fa 	slli	r3,r2,3
 200245c:	e0bffb17 	ldw	r2,-20(fp)
 2002460:	10c00e15 	stw	r3,56(r2)
  scroll->scroll_points = (scroll->window_width + scroll->string_points);
 2002464:	e0bffb17 	ldw	r2,-20(fp)
 2002468:	10c00b17 	ldw	r3,44(r2)
 200246c:	e0bffb17 	ldw	r2,-20(fp)
 2002470:	10800e17 	ldw	r2,56(r2)
 2002474:	1887883a 	add	r3,r3,r2
 2002478:	e0bffb17 	ldw	r2,-20(fp)
 200247c:	10c00d15 	stw	r3,52(r2)
 
  return(scroll);
 2002480:	e0bffb17 	ldw	r2,-20(fp)
  
}
 2002484:	e037883a 	mov	sp,fp
 2002488:	dfc00117 	ldw	ra,4(sp)
 200248c:	df000017 	ldw	fp,0(sp)
 2002490:	dec00204 	addi	sp,sp,8
 2002494:	f800283a 	ret

02002498 <vid_scroll_string>:


int vid_scroll_string(vid_text_scroll_struct* scroll, alt_video_display* display)
{
 2002498:	deffec04 	addi	sp,sp,-80
 200249c:	dfc01315 	stw	ra,76(sp)
 20024a0:	df001215 	stw	fp,72(sp)
 20024a4:	dc401115 	stw	r17,68(sp)
 20024a8:	dc001015 	stw	r16,64(sp)
 20024ac:	df001204 	addi	fp,sp,72
 20024b0:	e13ffc15 	stw	r4,-16(fp)
 20024b4:	e17ffd15 	stw	r5,-12(fp)

  int x_start, x_end, x_index, string_x_index, string_char_index, char_row, char_column;
  char character, column_mask;
  char* font_char_ptr;
  char pixels_to_move_by = 1;
 20024b8:	00800044 	movi	r2,1
 20024bc:	e0bff605 	stb	r2,-40(fp)
 20024c0:	008080f4 	movhi	r2,515
 20024c4:	10a8e504 	addi	r2,r2,-23660
 20024c8:	14000017 	ldw	r16,0(r2)

  // If it's time to move the scroll..
  if (alt_nticks() >= (scroll->ticks_at_last_move + ((alt_ticks_per_second() * (scroll->ms_delay)) / 1000))) {
 20024cc:	e0bffc17 	ldw	r2,-16(fp)
 20024d0:	10800817 	ldw	r2,32(r2)
 20024d4:	1023883a 	mov	r17,r2
 * Obtain the system clock rate in ticks/s. 
 */

static ALT_INLINE alt_u32 ALT_ALWAYS_INLINE alt_ticks_per_second (void)
{
  return _alt_tick_rate;
 20024d8:	008080f4 	movhi	r2,515
 20024dc:	10a8e404 	addi	r2,r2,-23664
 20024e0:	10800017 	ldw	r2,0(r2)
 20024e4:	e0fffc17 	ldw	r3,-16(fp)
 20024e8:	18c00717 	ldw	r3,28(r3)
 20024ec:	10c5383a 	mul	r2,r2,r3
 20024f0:	1009883a 	mov	r4,r2
 20024f4:	0140fa04 	movi	r5,1000
 20024f8:	20062fc0 	call	20062fc <__udivsi3>
 20024fc:	8885883a 	add	r2,r17,r2
 2002500:	8080b936 	bltu	r16,r2,20027e8 <vid_scroll_string+0x350>
 * alt_nticks() returns the elapsed number of system clock ticks since reset.
 */

static ALT_INLINE alt_u32 ALT_ALWAYS_INLINE alt_nticks (void)
{
  return _alt_nticks;
 2002504:	008080f4 	movhi	r2,515
 2002508:	10a8e504 	addi	r2,r2,-23660
 200250c:	10800017 	ldw	r2,0(r2)
    scroll->ticks_at_last_move = alt_nticks();
 2002510:	1007883a 	mov	r3,r2
 2002514:	e0bffc17 	ldw	r2,-16(fp)
 2002518:	10c00815 	stw	r3,32(r2)
    
    // Track where we are in the scroll.
    if(scroll->text_scroll_started == 0) {
 200251c:	e0bffc17 	ldw	r2,-16(fp)
 2002520:	10800a03 	ldbu	r2,40(r2)
 2002524:	10803fcc 	andi	r2,r2,255
 2002528:	1080201c 	xori	r2,r2,128
 200252c:	10bfe004 	addi	r2,r2,-128
 2002530:	1000061e 	bne	r2,zero,200254c <vid_scroll_string+0xb4>
      scroll->text_scroll_index = 0;
 2002534:	e0bffc17 	ldw	r2,-16(fp)
 2002538:	10000915 	stw	zero,36(r2)
      scroll->text_scroll_started = 1;
 200253c:	e0bffc17 	ldw	r2,-16(fp)
 2002540:	00c00044 	movi	r3,1
 2002544:	10c00a05 	stb	r3,40(r2)
 2002548:	00000e06 	br	2002584 <vid_scroll_string+0xec>
    } else if(scroll->text_scroll_index >= scroll->scroll_points)  {
 200254c:	e0bffc17 	ldw	r2,-16(fp)
 2002550:	10c00917 	ldw	r3,36(r2)
 2002554:	e0bffc17 	ldw	r2,-16(fp)
 2002558:	10800d17 	ldw	r2,52(r2)
 200255c:	18800316 	blt	r3,r2,200256c <vid_scroll_string+0xd4>
      scroll->text_scroll_started = 0;
 2002560:	e0bffc17 	ldw	r2,-16(fp)
 2002564:	10000a05 	stb	zero,40(r2)
 2002568:	00000606 	br	2002584 <vid_scroll_string+0xec>
    } else {
      scroll->text_scroll_index += pixels_to_move_by;
 200256c:	e0bffc17 	ldw	r2,-16(fp)
 2002570:	10c00917 	ldw	r3,36(r2)
 2002574:	e0bff607 	ldb	r2,-40(fp)
 2002578:	1887883a 	add	r3,r3,r2
 200257c:	e0bffc17 	ldw	r2,-16(fp)
 2002580:	10c00915 	stw	r3,36(r2)
    }
    
    //Find out where we start
    if (scroll->text_scroll_index < scroll->window_width) {
 2002584:	e0bffc17 	ldw	r2,-16(fp)
 2002588:	10c00917 	ldw	r3,36(r2)
 200258c:	e0bffc17 	ldw	r2,-16(fp)
 2002590:	10800b17 	ldw	r2,44(r2)
 2002594:	18800a0e 	bge	r3,r2,20025c0 <vid_scroll_string+0x128>
      x_start = scroll->hbegin + scroll->window_width - scroll->text_scroll_index;
 2002598:	e0bffc17 	ldw	r2,-16(fp)
 200259c:	10c00017 	ldw	r3,0(r2)
 20025a0:	e0bffc17 	ldw	r2,-16(fp)
 20025a4:	10800b17 	ldw	r2,44(r2)
 20025a8:	1887883a 	add	r3,r3,r2
 20025ac:	e0bffc17 	ldw	r2,-16(fp)
 20025b0:	10800917 	ldw	r2,36(r2)
 20025b4:	1885c83a 	sub	r2,r3,r2
 20025b8:	e0bff115 	stw	r2,-60(fp)
 20025bc:	00000306 	br	20025cc <vid_scroll_string+0x134>
    } else {
      x_start = scroll->hbegin;
 20025c0:	e0bffc17 	ldw	r2,-16(fp)
 20025c4:	10800017 	ldw	r2,0(r2)
 20025c8:	e0bff115 	stw	r2,-60(fp)
    }
    //Find out where we end
    if (scroll->string_points > scroll->text_scroll_index) {
 20025cc:	e0bffc17 	ldw	r2,-16(fp)
 20025d0:	10800e17 	ldw	r2,56(r2)
 20025d4:	e0fffc17 	ldw	r3,-16(fp)
 20025d8:	18c00917 	ldw	r3,36(r3)
 20025dc:	1880040e 	bge	r3,r2,20025f0 <vid_scroll_string+0x158>
      x_end = scroll->hend;
 20025e0:	e0bffc17 	ldw	r2,-16(fp)
 20025e4:	10800217 	ldw	r2,8(r2)
 20025e8:	e0bff215 	stw	r2,-56(fp)
 20025ec:	00000906 	br	2002614 <vid_scroll_string+0x17c>
    } else {
      x_end = (scroll->hend - scroll->text_scroll_index + scroll->string_points);
 20025f0:	e0bffc17 	ldw	r2,-16(fp)
 20025f4:	10c00217 	ldw	r3,8(r2)
 20025f8:	e0bffc17 	ldw	r2,-16(fp)
 20025fc:	10800917 	ldw	r2,36(r2)
 2002600:	1887c83a 	sub	r3,r3,r2
 2002604:	e0bffc17 	ldw	r2,-16(fp)
 2002608:	10800e17 	ldw	r2,56(r2)
 200260c:	1885883a 	add	r2,r3,r2
 2002610:	e0bff215 	stw	r2,-56(fp)
    }

    // Write the string segment a column (x) at a time
    for(x_index = x_start; x_index < x_end; x_index++) {
 2002614:	e0bff117 	ldw	r2,-60(fp)
 2002618:	e0bff315 	stw	r2,-52(fp)
 200261c:	00006006 	br	20027a0 <vid_scroll_string+0x308>
      // Find the x index we're at within the string
      // If first part of string hasnt yet reached left side of scroll window
      if (scroll->text_scroll_index < scroll->window_width) {
 2002620:	e0bffc17 	ldw	r2,-16(fp)
 2002624:	10c00917 	ldw	r3,36(r2)
 2002628:	e0bffc17 	ldw	r2,-16(fp)
 200262c:	10800b17 	ldw	r2,44(r2)
 2002630:	1880050e 	bge	r3,r2,2002648 <vid_scroll_string+0x1b0>
        string_x_index = (x_index - x_start);
 2002634:	e0fff317 	ldw	r3,-52(fp)
 2002638:	e0bff117 	ldw	r2,-60(fp)
 200263c:	1885c83a 	sub	r2,r3,r2
 2002640:	e0bff415 	stw	r2,-48(fp)
 2002644:	00000a06 	br	2002670 <vid_scroll_string+0x1d8>
      } else {
        string_x_index = scroll->text_scroll_index - scroll->window_width + x_index - x_start;
 2002648:	e0bffc17 	ldw	r2,-16(fp)
 200264c:	10c00917 	ldw	r3,36(r2)
 2002650:	e0bffc17 	ldw	r2,-16(fp)
 2002654:	10800b17 	ldw	r2,44(r2)
 2002658:	1887c83a 	sub	r3,r3,r2
 200265c:	e0bff317 	ldw	r2,-52(fp)
 2002660:	1887883a 	add	r3,r3,r2
 2002664:	e0bff117 	ldw	r2,-60(fp)
 2002668:	1885c83a 	sub	r2,r3,r2
 200266c:	e0bff415 	stw	r2,-48(fp)
      }
      //Find the character we're supposed to be writing
      string_char_index = (string_x_index / 8);
 2002670:	e0bff417 	ldw	r2,-48(fp)
 2002674:	1000010e 	bge	r2,zero,200267c <vid_scroll_string+0x1e4>
 2002678:	108001c4 	addi	r2,r2,7
 200267c:	1005d0fa 	srai	r2,r2,3
 2002680:	e0bff715 	stw	r2,-36(fp)
      character = scroll->string[string_char_index];
 2002684:	e0bffc17 	ldw	r2,-16(fp)
 2002688:	10c00517 	ldw	r3,20(r2)
 200268c:	e0bff717 	ldw	r2,-36(fp)
 2002690:	1885883a 	add	r2,r3,r2
 2002694:	10800003 	ldbu	r2,0(r2)
 2002698:	e0bff805 	stb	r2,-32(fp)
      char_column = (string_x_index % 8);
 200269c:	e0fff417 	ldw	r3,-48(fp)
 20026a0:	00a00034 	movhi	r2,32768
 20026a4:	108001c4 	addi	r2,r2,7
 20026a8:	1884703a 	and	r2,r3,r2
 20026ac:	1000040e 	bge	r2,zero,20026c0 <vid_scroll_string+0x228>
 20026b0:	10bfffc4 	addi	r2,r2,-1
 20026b4:	00fffe04 	movi	r3,-8
 20026b8:	10c4b03a 	or	r2,r2,r3
 20026bc:	10800044 	addi	r2,r2,1
 20026c0:	e0bff915 	stw	r2,-28(fp)
      column_mask = (((unsigned int)0x80) >> char_column);
 20026c4:	00c02004 	movi	r3,128
 20026c8:	e0bff917 	ldw	r2,-28(fp)
 20026cc:	1884d83a 	srl	r2,r3,r2
 20026d0:	e0bffa05 	stb	r2,-24(fp)
      font_char_ptr = (scroll->font + ((character - 0x20) * FONT_10PT_ROW));
 20026d4:	e0bffc17 	ldw	r2,-16(fp)
 20026d8:	10800617 	ldw	r2,24(r2)
 20026dc:	e0fff807 	ldb	r3,-32(fp)
 20026e0:	18fff804 	addi	r3,r3,-32
 20026e4:	18c002e4 	muli	r3,r3,11
 20026e8:	10c5883a 	add	r2,r2,r3
 20026ec:	e0bffb15 	stw	r2,-20(fp)
      //We have all the data now, so let's write a column
      for(char_row = 0; char_row < 11; char_row++) {
 20026f0:	e03ff515 	stw	zero,-44(fp)
 20026f4:	00002406 	br	2002788 <vid_scroll_string+0x2f0>
        // If the font table says this pixel is on, then set it to the foreground color
        if (*(font_char_ptr + char_row) & column_mask) {
 20026f8:	e0bff517 	ldw	r2,-44(fp)
 20026fc:	e0fffb17 	ldw	r3,-20(fp)
 2002700:	1885883a 	add	r2,r3,r2
 2002704:	10c00003 	ldbu	r3,0(r2)
 2002708:	e0bffa03 	ldbu	r2,-24(fp)
 200270c:	1884703a 	and	r2,r3,r2
 2002710:	10803fcc 	andi	r2,r2,255
 2002714:	1080201c 	xori	r2,r2,128
 2002718:	10bfe004 	addi	r2,r2,-128
 200271c:	10000c26 	beq	r2,zero,2002750 <vid_scroll_string+0x2b8>
          vid_set_pixel(x_index, scroll->vbegin + char_row, scroll->f_color, display); 
 2002720:	e0bffc17 	ldw	r2,-16(fp)
 2002724:	10c00117 	ldw	r3,4(r2)
 2002728:	e0bff517 	ldw	r2,-44(fp)
 200272c:	1887883a 	add	r3,r3,r2
 2002730:	e0bffc17 	ldw	r2,-16(fp)
 2002734:	10800317 	ldw	r2,12(r2)
 2002738:	e13ff317 	ldw	r4,-52(fp)
 200273c:	180b883a 	mov	r5,r3
 2002740:	100d883a 	mov	r6,r2
 2002744:	e1fffd17 	ldw	r7,-12(fp)
 2002748:	2002c640 	call	2002c64 <vid_set_pixel>
 200274c:	00000b06 	br	200277c <vid_scroll_string+0x2e4>
        // Otherwise, set it to the background color.
        } else {
          vid_set_pixel(x_index, scroll->vbegin + char_row, scroll->b_color, display); //background color
 2002750:	e0bffc17 	ldw	r2,-16(fp)
 2002754:	10c00117 	ldw	r3,4(r2)
 2002758:	e0bff517 	ldw	r2,-44(fp)
 200275c:	1887883a 	add	r3,r3,r2
 2002760:	e0bffc17 	ldw	r2,-16(fp)
 2002764:	10800417 	ldw	r2,16(r2)
 2002768:	e13ff317 	ldw	r4,-52(fp)
 200276c:	180b883a 	mov	r5,r3
 2002770:	100d883a 	mov	r6,r2
 2002774:	e1fffd17 	ldw	r7,-12(fp)
 2002778:	2002c640 	call	2002c64 <vid_set_pixel>
      character = scroll->string[string_char_index];
      char_column = (string_x_index % 8);
      column_mask = (((unsigned int)0x80) >> char_column);
      font_char_ptr = (scroll->font + ((character - 0x20) * FONT_10PT_ROW));
      //We have all the data now, so let's write a column
      for(char_row = 0; char_row < 11; char_row++) {
 200277c:	e0bff517 	ldw	r2,-44(fp)
 2002780:	10800044 	addi	r2,r2,1
 2002784:	e0bff515 	stw	r2,-44(fp)
 2002788:	e0bff517 	ldw	r2,-44(fp)
 200278c:	108002d0 	cmplti	r2,r2,11
 2002790:	103fd91e 	bne	r2,zero,20026f8 <__alt_mem_pic_mem+0xfdffe6f8>
    } else {
      x_end = (scroll->hend - scroll->text_scroll_index + scroll->string_points);
    }

    // Write the string segment a column (x) at a time
    for(x_index = x_start; x_index < x_end; x_index++) {
 2002794:	e0bff317 	ldw	r2,-52(fp)
 2002798:	10800044 	addi	r2,r2,1
 200279c:	e0bff315 	stw	r2,-52(fp)
 20027a0:	e0fff317 	ldw	r3,-52(fp)
 20027a4:	e0bff217 	ldw	r2,-56(fp)
 20027a8:	18bf9d16 	blt	r3,r2,2002620 <__alt_mem_pic_mem+0xfdffe620>
          vid_set_pixel(x_index, scroll->vbegin + char_row, scroll->b_color, display); //background color
        }
      }
    }
    // Erase the leftover column (x) of the last string we wrote.
    vid_draw_line(x_end, scroll->vbegin, x_end, scroll->vbegin + 10, 1, scroll->b_color, display);
 20027ac:	e0bffc17 	ldw	r2,-16(fp)
 20027b0:	11400117 	ldw	r5,4(r2)
 20027b4:	e0bffc17 	ldw	r2,-16(fp)
 20027b8:	10800117 	ldw	r2,4(r2)
 20027bc:	11c00284 	addi	r7,r2,10
 20027c0:	e0bffc17 	ldw	r2,-16(fp)
 20027c4:	10800417 	ldw	r2,16(r2)
 20027c8:	00c00044 	movi	r3,1
 20027cc:	d8c00015 	stw	r3,0(sp)
 20027d0:	d8800115 	stw	r2,4(sp)
 20027d4:	e0bffd17 	ldw	r2,-12(fp)
 20027d8:	d8800215 	stw	r2,8(sp)
 20027dc:	e13ff217 	ldw	r4,-56(fp)
 20027e0:	e1bff217 	ldw	r6,-56(fp)
 20027e4:	20022400 	call	2002240 <vid_draw_line>
    // Log what time we moved the scroll.
  }
  return(0);
 20027e8:	0005883a 	mov	r2,zero
}
 20027ec:	e6fffe04 	addi	sp,fp,-8
 20027f0:	dfc00317 	ldw	ra,12(sp)
 20027f4:	df000217 	ldw	fp,8(sp)
 20027f8:	dc400117 	ldw	r17,4(sp)
 20027fc:	dc000017 	ldw	r16,0(sp)
 2002800:	dec00404 	addi	sp,sp,16
 2002804:	f800283a 	ret

02002808 <vid_move_block>:
*           the backfill_color parameter.
*
******************************************************************/

int vid_move_block(int xbegin, int ybegin, int xend, int yend, int x_distance, int y_distance, int backfill_color, alt_video_display* display)
{
 2002808:	defff504 	addi	sp,sp,-44
 200280c:	dfc00a15 	stw	ra,40(sp)
 2002810:	df000915 	stw	fp,36(sp)
 2002814:	df000904 	addi	fp,sp,36
 2002818:	e13ffc15 	stw	r4,-16(fp)
 200281c:	e17ffd15 	stw	r5,-12(fp)
 2002820:	e1bffe15 	stw	r6,-8(fp)
 2002824:	e1ffff15 	stw	r7,-4(fp)
  int read_x, read_y, write_x, write_y;
  short temp_pixel;
  
  if(x_distance <= 0 && y_distance <= 0) {  
 2002828:	e0800217 	ldw	r2,8(fp)
 200282c:	00803716 	blt	zero,r2,200290c <vid_move_block+0x104>
 2002830:	e0800317 	ldw	r2,12(fp)
 2002834:	00803516 	blt	zero,r2,200290c <vid_move_block+0x104>
    //Move by rows because they are contiguous in memory (could help speed if in SDRAM)
    for (read_y = ybegin; read_y < yend; read_y++) {
 2002838:	e0bffd17 	ldw	r2,-12(fp)
 200283c:	e0bff815 	stw	r2,-32(fp)
 2002840:	00002f06 	br	2002900 <vid_move_block+0xf8>
      write_y = read_y + y_distance;
 2002844:	e0fff817 	ldw	r3,-32(fp)
 2002848:	e0800317 	ldw	r2,12(fp)
 200284c:	1885883a 	add	r2,r3,r2
 2002850:	e0bff915 	stw	r2,-28(fp)
      for(read_x = xbegin; read_x < xend; read_x++) {
 2002854:	e0bffc17 	ldw	r2,-16(fp)
 2002858:	e0bff715 	stw	r2,-36(fp)
 200285c:	00002206 	br	20028e8 <vid_move_block+0xe0>
        write_x = read_x + x_distance;
 2002860:	e0fff717 	ldw	r3,-36(fp)
 2002864:	e0800217 	ldw	r2,8(fp)
 2002868:	1885883a 	add	r2,r3,r2
 200286c:	e0bffa15 	stw	r2,-24(fp)
        temp_pixel = vid_get_pixel(read_x, read_y, display);
 2002870:	e13ff717 	ldw	r4,-36(fp)
 2002874:	e17ff817 	ldw	r5,-32(fp)
 2002878:	e1800517 	ldw	r6,20(fp)
 200287c:	2002d000 	call	2002d00 <vid_get_pixel>
 2002880:	e0bffb0d 	sth	r2,-20(fp)
        vid_set_pixel(write_x, write_y, temp_pixel, display);
 2002884:	e0bffb0f 	ldh	r2,-20(fp)
 2002888:	e13ffa17 	ldw	r4,-24(fp)
 200288c:	e17ff917 	ldw	r5,-28(fp)
 2002890:	100d883a 	mov	r6,r2
 2002894:	e1c00517 	ldw	r7,20(fp)
 2002898:	2002c640 	call	2002c64 <vid_set_pixel>
        if(read_x >= xend + x_distance || read_y >= yend + y_distance) 
 200289c:	e0fffe17 	ldw	r3,-8(fp)
 20028a0:	e0800217 	ldw	r2,8(fp)
 20028a4:	1885883a 	add	r2,r3,r2
 20028a8:	e0fff717 	ldw	r3,-36(fp)
 20028ac:	1880050e 	bge	r3,r2,20028c4 <vid_move_block+0xbc>
 20028b0:	e0ffff17 	ldw	r3,-4(fp)
 20028b4:	e0800317 	ldw	r2,12(fp)
 20028b8:	1885883a 	add	r2,r3,r2
 20028bc:	e0fff817 	ldw	r3,-32(fp)
 20028c0:	18800616 	blt	r3,r2,20028dc <vid_move_block+0xd4>
        {
	        vid_set_pixel(read_x, read_y, backfill_color, display);
 20028c4:	e0800417 	ldw	r2,16(fp)
 20028c8:	e13ff717 	ldw	r4,-36(fp)
 20028cc:	e17ff817 	ldw	r5,-32(fp)
 20028d0:	100d883a 	mov	r6,r2
 20028d4:	e1c00517 	ldw	r7,20(fp)
 20028d8:	2002c640 	call	2002c64 <vid_set_pixel>
  
  if(x_distance <= 0 && y_distance <= 0) {  
    //Move by rows because they are contiguous in memory (could help speed if in SDRAM)
    for (read_y = ybegin; read_y < yend; read_y++) {
      write_y = read_y + y_distance;
      for(read_x = xbegin; read_x < xend; read_x++) {
 20028dc:	e0bff717 	ldw	r2,-36(fp)
 20028e0:	10800044 	addi	r2,r2,1
 20028e4:	e0bff715 	stw	r2,-36(fp)
 20028e8:	e0fff717 	ldw	r3,-36(fp)
 20028ec:	e0bffe17 	ldw	r2,-8(fp)
 20028f0:	18bfdb16 	blt	r3,r2,2002860 <__alt_mem_pic_mem+0xfdffe860>
  int read_x, read_y, write_x, write_y;
  short temp_pixel;
  
  if(x_distance <= 0 && y_distance <= 0) {  
    //Move by rows because they are contiguous in memory (could help speed if in SDRAM)
    for (read_y = ybegin; read_y < yend; read_y++) {
 20028f4:	e0bff817 	ldw	r2,-32(fp)
 20028f8:	10800044 	addi	r2,r2,1
 20028fc:	e0bff815 	stw	r2,-32(fp)
 2002900:	e0fff817 	ldw	r3,-32(fp)
 2002904:	e0bfff17 	ldw	r2,-4(fp)
 2002908:	18bfce16 	blt	r3,r2,2002844 <__alt_mem_pic_mem+0xfdffe844>
	        vid_set_pixel(read_x, read_y, backfill_color, display);
        }
      }
    }
  }
  return (0);
 200290c:	0005883a 	mov	r2,zero
}
 2002910:	e037883a 	mov	sp,fp
 2002914:	dfc00117 	ldw	ra,4(sp)
 2002918:	df000017 	ldw	fp,0(sp)
 200291c:	dec00204 	addi	sp,sp,8
 2002920:	f800283a 	ret

02002924 <vid_print_string>:
*           using the specified font and color.
*           Calls vid_print_char
*
******************************************************************/
int vid_print_string(int horiz_offset, int vert_offset, int color, char *font, alt_video_display* display, char string[])
{
 2002924:	defff604 	addi	sp,sp,-40
 2002928:	dfc00915 	stw	ra,36(sp)
 200292c:	df000815 	stw	fp,32(sp)
 2002930:	df000804 	addi	fp,sp,32
 2002934:	e13ffc15 	stw	r4,-16(fp)
 2002938:	e17ffd15 	stw	r5,-12(fp)
 200293c:	e1bffe15 	stw	r6,-8(fp)
 2002940:	e1ffff15 	stw	r7,-4(fp)
  int i = 0;
 2002944:	e03ffa15 	stw	zero,-24(fp)
  int original_horiz_offset;

  original_horiz_offset = horiz_offset;
 2002948:	e0bffc17 	ldw	r2,-16(fp)
 200294c:	e0bffb15 	stw	r2,-20(fp)

  // Print until we hit the '\0' char.
  while (string[i]) {
 2002950:	00002806 	br	20029f4 <vid_print_string+0xd0>
    //Handle newline char here.
    if (string[i] == '\n') {
 2002954:	e0bffa17 	ldw	r2,-24(fp)
 2002958:	e0c00317 	ldw	r3,12(fp)
 200295c:	1885883a 	add	r2,r3,r2
 2002960:	10800003 	ldbu	r2,0(r2)
 2002964:	10803fcc 	andi	r2,r2,255
 2002968:	1080201c 	xori	r2,r2,128
 200296c:	10bfe004 	addi	r2,r2,-128
 2002970:	10800298 	cmpnei	r2,r2,10
 2002974:	1000091e 	bne	r2,zero,200299c <vid_print_string+0x78>
      horiz_offset = original_horiz_offset;
 2002978:	e0bffb17 	ldw	r2,-20(fp)
 200297c:	e0bffc15 	stw	r2,-16(fp)
      vert_offset += 12;
 2002980:	e0bffd17 	ldw	r2,-12(fp)
 2002984:	10800304 	addi	r2,r2,12
 2002988:	e0bffd15 	stw	r2,-12(fp)
      i++;
 200298c:	e0bffa17 	ldw	r2,-24(fp)
 2002990:	10800044 	addi	r2,r2,1
 2002994:	e0bffa15 	stw	r2,-24(fp)
      continue;
 2002998:	00001606 	br	20029f4 <vid_print_string+0xd0>
    }
    // Lay down that character and increment our offsets.
    vid_print_char (horiz_offset, vert_offset, color, string[i], font, display);
 200299c:	e0bffa17 	ldw	r2,-24(fp)
 20029a0:	e0c00317 	ldw	r3,12(fp)
 20029a4:	1885883a 	add	r2,r3,r2
 20029a8:	10800003 	ldbu	r2,0(r2)
 20029ac:	10c03fcc 	andi	r3,r2,255
 20029b0:	18c0201c 	xori	r3,r3,128
 20029b4:	18ffe004 	addi	r3,r3,-128
 20029b8:	e0bfff17 	ldw	r2,-4(fp)
 20029bc:	d8800015 	stw	r2,0(sp)
 20029c0:	e0800217 	ldw	r2,8(fp)
 20029c4:	d8800115 	stw	r2,4(sp)
 20029c8:	e13ffc17 	ldw	r4,-16(fp)
 20029cc:	e17ffd17 	ldw	r5,-12(fp)
 20029d0:	e1bffe17 	ldw	r6,-8(fp)
 20029d4:	180f883a 	mov	r7,r3
 20029d8:	2002b740 	call	2002b74 <vid_print_char>
    i++;
 20029dc:	e0bffa17 	ldw	r2,-24(fp)
 20029e0:	10800044 	addi	r2,r2,1
 20029e4:	e0bffa15 	stw	r2,-24(fp)
    horiz_offset += 8;
 20029e8:	e0bffc17 	ldw	r2,-16(fp)
 20029ec:	10800204 	addi	r2,r2,8
 20029f0:	e0bffc15 	stw	r2,-16(fp)
  int original_horiz_offset;

  original_horiz_offset = horiz_offset;

  // Print until we hit the '\0' char.
  while (string[i]) {
 20029f4:	e0bffa17 	ldw	r2,-24(fp)
 20029f8:	e0c00317 	ldw	r3,12(fp)
 20029fc:	1885883a 	add	r2,r3,r2
 2002a00:	10800003 	ldbu	r2,0(r2)
 2002a04:	10803fcc 	andi	r2,r2,255
 2002a08:	1080201c 	xori	r2,r2,128
 2002a0c:	10bfe004 	addi	r2,r2,-128
 2002a10:	103fd01e 	bne	r2,zero,2002954 <__alt_mem_pic_mem+0xfdffe954>
    // Lay down that character and increment our offsets.
    vid_print_char (horiz_offset, vert_offset, color, string[i], font, display);
    i++;
    horiz_offset += 8;
  }
  return (0);
 2002a14:	0005883a 	mov	r2,zero
}
 2002a18:	e037883a 	mov	sp,fp
 2002a1c:	dfc00117 	ldw	ra,4(sp)
 2002a20:	df000017 	ldw	fp,0(sp)
 2002a24:	dec00204 	addi	sp,sp,8
 2002a28:	f800283a 	ret

02002a2c <vid_draw_box>:
*  points.  The fill parameter tells the function whether or not
*  to fill in the box.  1 = fill, 0 = do not fill.
*
******************************************************************/
int vid_draw_box (int horiz_start, int vert_start, int horiz_end, int vert_end, int color, int fill, alt_video_display* display)
{
 2002a2c:	defff704 	addi	sp,sp,-36
 2002a30:	dfc00815 	stw	ra,32(sp)
 2002a34:	df000715 	stw	fp,28(sp)
 2002a38:	df000704 	addi	fp,sp,28
 2002a3c:	e13ffc15 	stw	r4,-16(fp)
 2002a40:	e17ffd15 	stw	r5,-12(fp)
 2002a44:	e1bffe15 	stw	r6,-8(fp)
 2002a48:	e1ffff15 	stw	r7,-4(fp)

  // If we want to fill in our box
  if (fill) {
 2002a4c:	e0800317 	ldw	r2,12(fp)
 2002a50:	10000a26 	beq	r2,zero,2002a7c <vid_draw_box+0x50>
     vid_paint_block (horiz_start, vert_start, horiz_end, vert_end, color, display);
 2002a54:	e0800217 	ldw	r2,8(fp)
 2002a58:	d8800015 	stw	r2,0(sp)
 2002a5c:	e0800417 	ldw	r2,16(fp)
 2002a60:	d8800115 	stw	r2,4(sp)
 2002a64:	e13ffc17 	ldw	r4,-16(fp)
 2002a68:	e17ffd17 	ldw	r5,-12(fp)
 2002a6c:	e1bffe17 	ldw	r6,-8(fp)
 2002a70:	e1ffff17 	ldw	r7,-4(fp)
 2002a74:	2002d400 	call	2002d40 <vid_paint_block>
 2002a78:	00003806 	br	2002b5c <vid_draw_box+0x130>
  // If we're not filling in the box, just draw four lines.
  } else {
    vid_draw_line(horiz_start, vert_start, horiz_start, vert_end-1, 1, color, display);
 2002a7c:	e0bfff17 	ldw	r2,-4(fp)
 2002a80:	10ffffc4 	addi	r3,r2,-1
 2002a84:	00800044 	movi	r2,1
 2002a88:	d8800015 	stw	r2,0(sp)
 2002a8c:	e0800217 	ldw	r2,8(fp)
 2002a90:	d8800115 	stw	r2,4(sp)
 2002a94:	e0800417 	ldw	r2,16(fp)
 2002a98:	d8800215 	stw	r2,8(sp)
 2002a9c:	e13ffc17 	ldw	r4,-16(fp)
 2002aa0:	e17ffd17 	ldw	r5,-12(fp)
 2002aa4:	e1bffc17 	ldw	r6,-16(fp)
 2002aa8:	180f883a 	mov	r7,r3
 2002aac:	20022400 	call	2002240 <vid_draw_line>
    vid_draw_line(horiz_end-1, vert_start, horiz_end-1, vert_end-1, 1, color, display);
 2002ab0:	e0bffe17 	ldw	r2,-8(fp)
 2002ab4:	113fffc4 	addi	r4,r2,-1
 2002ab8:	e0bffe17 	ldw	r2,-8(fp)
 2002abc:	11bfffc4 	addi	r6,r2,-1
 2002ac0:	e0bfff17 	ldw	r2,-4(fp)
 2002ac4:	10ffffc4 	addi	r3,r2,-1
 2002ac8:	00800044 	movi	r2,1
 2002acc:	d8800015 	stw	r2,0(sp)
 2002ad0:	e0800217 	ldw	r2,8(fp)
 2002ad4:	d8800115 	stw	r2,4(sp)
 2002ad8:	e0800417 	ldw	r2,16(fp)
 2002adc:	d8800215 	stw	r2,8(sp)
 2002ae0:	e17ffd17 	ldw	r5,-12(fp)
 2002ae4:	180f883a 	mov	r7,r3
 2002ae8:	20022400 	call	2002240 <vid_draw_line>
    vid_draw_line(horiz_start, vert_start, horiz_end-1, vert_start, 1, color, display);
 2002aec:	e0bffe17 	ldw	r2,-8(fp)
 2002af0:	10ffffc4 	addi	r3,r2,-1
 2002af4:	00800044 	movi	r2,1
 2002af8:	d8800015 	stw	r2,0(sp)
 2002afc:	e0800217 	ldw	r2,8(fp)
 2002b00:	d8800115 	stw	r2,4(sp)
 2002b04:	e0800417 	ldw	r2,16(fp)
 2002b08:	d8800215 	stw	r2,8(sp)
 2002b0c:	e13ffc17 	ldw	r4,-16(fp)
 2002b10:	e17ffd17 	ldw	r5,-12(fp)
 2002b14:	180d883a 	mov	r6,r3
 2002b18:	e1fffd17 	ldw	r7,-12(fp)
 2002b1c:	20022400 	call	2002240 <vid_draw_line>
    vid_draw_line(horiz_start, vert_end-1, horiz_end-1, vert_end-1, 1, color, display);
 2002b20:	e0bfff17 	ldw	r2,-4(fp)
 2002b24:	117fffc4 	addi	r5,r2,-1
 2002b28:	e0bffe17 	ldw	r2,-8(fp)
 2002b2c:	11bfffc4 	addi	r6,r2,-1
 2002b30:	e0bfff17 	ldw	r2,-4(fp)
 2002b34:	10ffffc4 	addi	r3,r2,-1
 2002b38:	00800044 	movi	r2,1
 2002b3c:	d8800015 	stw	r2,0(sp)
 2002b40:	e0800217 	ldw	r2,8(fp)
 2002b44:	d8800115 	stw	r2,4(sp)
 2002b48:	e0800417 	ldw	r2,16(fp)
 2002b4c:	d8800215 	stw	r2,8(sp)
 2002b50:	e13ffc17 	ldw	r4,-16(fp)
 2002b54:	180f883a 	mov	r7,r3
 2002b58:	20022400 	call	2002240 <vid_draw_line>
  }

  return (0);
 2002b5c:	0005883a 	mov	r2,zero
}
 2002b60:	e037883a 	mov	sp,fp
 2002b64:	dfc00117 	ldw	ra,4(sp)
 2002b68:	df000017 	ldw	fp,0(sp)
 2002b6c:	dec00204 	addi	sp,sp,8
 2002b70:	f800283a 	ret

02002b74 <vid_print_char>:
*           screen using the specified font and color.
*
******************************************************************/

int vid_print_char (int horiz_offset, int vert_offset, int color, char character, char *font, alt_video_display* display)
{
 2002b74:	defff704 	addi	sp,sp,-36
 2002b78:	dfc00815 	stw	ra,32(sp)
 2002b7c:	df000715 	stw	fp,28(sp)
 2002b80:	df000704 	addi	fp,sp,28
 2002b84:	e13ffc15 	stw	r4,-16(fp)
 2002b88:	e17ffd15 	stw	r5,-12(fp)
 2002b8c:	e1bffe15 	stw	r6,-8(fp)
 2002b90:	3805883a 	mov	r2,r7
 2002b94:	e0bfff05 	stb	r2,-4(fp)
  int i, j;
  
  char temp_char, char_row;

  // Convert the ASCII value to an array offset
  temp_char = (character - 0x20);
 2002b98:	e0bfff03 	ldbu	r2,-4(fp)
 2002b9c:	10bff804 	addi	r2,r2,-32
 2002ba0:	e0bffb05 	stb	r2,-20(fp)

  //Each character is 8 pixels wide and 11 tall.
  for(i = 0; i < 11; i++) {
 2002ba4:	e03ff915 	stw	zero,-28(fp)
 2002ba8:	00002506 	br	2002c40 <vid_print_char+0xcc>
      char_row = *(font + (temp_char * FONT_10PT_ROW) + i);
 2002bac:	e0bffb07 	ldb	r2,-20(fp)
 2002bb0:	108002e4 	muli	r2,r2,11
 2002bb4:	1007883a 	mov	r3,r2
 2002bb8:	e0bff917 	ldw	r2,-28(fp)
 2002bbc:	1885883a 	add	r2,r3,r2
 2002bc0:	e0c00217 	ldw	r3,8(fp)
 2002bc4:	1885883a 	add	r2,r3,r2
 2002bc8:	10800003 	ldbu	r2,0(r2)
 2002bcc:	e0bffb45 	stb	r2,-19(fp)
    for (j = 0; j < 8; j++) {
 2002bd0:	e03ffa15 	stw	zero,-24(fp)
 2002bd4:	00001406 	br	2002c28 <vid_print_char+0xb4>
      //If the font table says the pixel in this location is on for this character, then set it.
      if (char_row & (((unsigned char)0x80) >> j)) {
 2002bd8:	e0fffb47 	ldb	r3,-19(fp)
 2002bdc:	01002004 	movi	r4,128
 2002be0:	e0bffa17 	ldw	r2,-24(fp)
 2002be4:	2085d83a 	sra	r2,r4,r2
 2002be8:	1884703a 	and	r2,r3,r2
 2002bec:	10000b26 	beq	r2,zero,2002c1c <vid_print_char+0xa8>
        vid_set_pixel((horiz_offset + j), (vert_offset + i), color, display); // plot the pixel
 2002bf0:	e0fffc17 	ldw	r3,-16(fp)
 2002bf4:	e0bffa17 	ldw	r2,-24(fp)
 2002bf8:	1889883a 	add	r4,r3,r2
 2002bfc:	e0fffd17 	ldw	r3,-12(fp)
 2002c00:	e0bff917 	ldw	r2,-28(fp)
 2002c04:	1887883a 	add	r3,r3,r2
 2002c08:	e0bffe17 	ldw	r2,-8(fp)
 2002c0c:	180b883a 	mov	r5,r3
 2002c10:	100d883a 	mov	r6,r2
 2002c14:	e1c00317 	ldw	r7,12(fp)
 2002c18:	2002c640 	call	2002c64 <vid_set_pixel>
  temp_char = (character - 0x20);

  //Each character is 8 pixels wide and 11 tall.
  for(i = 0; i < 11; i++) {
      char_row = *(font + (temp_char * FONT_10PT_ROW) + i);
    for (j = 0; j < 8; j++) {
 2002c1c:	e0bffa17 	ldw	r2,-24(fp)
 2002c20:	10800044 	addi	r2,r2,1
 2002c24:	e0bffa15 	stw	r2,-24(fp)
 2002c28:	e0bffa17 	ldw	r2,-24(fp)
 2002c2c:	10800210 	cmplti	r2,r2,8
 2002c30:	103fe91e 	bne	r2,zero,2002bd8 <__alt_mem_pic_mem+0xfdffebd8>

  // Convert the ASCII value to an array offset
  temp_char = (character - 0x20);

  //Each character is 8 pixels wide and 11 tall.
  for(i = 0; i < 11; i++) {
 2002c34:	e0bff917 	ldw	r2,-28(fp)
 2002c38:	10800044 	addi	r2,r2,1
 2002c3c:	e0bff915 	stw	r2,-28(fp)
 2002c40:	e0bff917 	ldw	r2,-28(fp)
 2002c44:	108002d0 	cmplti	r2,r2,11
 2002c48:	103fd81e 	bne	r2,zero,2002bac <__alt_mem_pic_mem+0xfdffebac>
      if (char_row & (((unsigned char)0x80) >> j)) {
        vid_set_pixel((horiz_offset + j), (vert_offset + i), color, display); // plot the pixel
      }
    }
  }
  return(0);
 2002c4c:	0005883a 	mov	r2,zero
}
 2002c50:	e037883a 	mov	sp,fp
 2002c54:	dfc00117 	ldw	ra,4(sp)
 2002c58:	df000017 	ldw	fp,0(sp)
 2002c5c:	dec00204 	addi	sp,sp,8
 2002c60:	f800283a 	ret

02002c64 <vid_set_pixel>:
*           efficient when painting large areas of the screen.
*
******************************************************************/

void vid_set_pixel(int horiz, int vert, unsigned int color, alt_video_display* display)
{
 2002c64:	defff904 	addi	sp,sp,-28
 2002c68:	dfc00615 	stw	ra,24(sp)
 2002c6c:	df000515 	stw	fp,20(sp)
 2002c70:	df000504 	addi	fp,sp,20
 2002c74:	e13ffc15 	stw	r4,-16(fp)
 2002c78:	e17ffd15 	stw	r5,-12(fp)
 2002c7c:	e1bffe15 	stw	r6,-8(fp)
 2002c80:	e1ffff15 	stw	r7,-4(fp)
#ifdef LT24
	alt_u16 color16;


	// encode to RGB  5 6 5
	color16 = (color & 0xFF) >> 3; // blue
 2002c84:	e0bffe17 	ldw	r2,-8(fp)
 2002c88:	10803fcc 	andi	r2,r2,255
 2002c8c:	1004d0fa 	srli	r2,r2,3
 2002c90:	e0bffb0d 	sth	r2,-20(fp)
	color16 |= (color & 0xFC00) >> 5; // green
 2002c94:	e0bffe17 	ldw	r2,-8(fp)
 2002c98:	10bf000c 	andi	r2,r2,64512
 2002c9c:	1004d17a 	srli	r2,r2,5
 2002ca0:	1007883a 	mov	r3,r2
 2002ca4:	e0bffb0b 	ldhu	r2,-20(fp)
 2002ca8:	1884b03a 	or	r2,r3,r2
 2002cac:	e0bffb0d 	sth	r2,-20(fp)
	color16 |= (color & 0xF80000) >> 8; // blue
 2002cb0:	e0bffe17 	ldw	r2,-8(fp)
 2002cb4:	10803e2c 	andhi	r2,r2,248
 2002cb8:	1004d23a 	srli	r2,r2,8
 2002cbc:	1007883a 	mov	r3,r2
 2002cc0:	e0bffb0b 	ldhu	r2,-20(fp)
 2002cc4:	1884b03a 	or	r2,r3,r2
 2002cc8:	e0bffb0d 	sth	r2,-20(fp)
	LCD_DrawPoint(horiz, vert, color16);
 2002ccc:	e0bffc17 	ldw	r2,-16(fp)
 2002cd0:	113fffcc 	andi	r4,r2,65535
 2002cd4:	e0bffd17 	ldw	r2,-12(fp)
 2002cd8:	10ffffcc 	andi	r3,r2,65535
 2002cdc:	e0bffb0b 	ldhu	r2,-20(fp)
 2002ce0:	180b883a 	mov	r5,r3
 2002ce4:	100d883a 	mov	r6,r2
 2002ce8:	20014880 	call	2001488 <LCD_DrawPoint>
  	addr = ( ( (int)(VIPFR_GetDrawFrame(display)) )+ (vert * (display->width * 2)) + horiz * 2);
  	IOWR_16DIRECT( addr, 0, (int)(color));
	}
#endif

}
 2002cec:	e037883a 	mov	sp,fp
 2002cf0:	dfc00117 	ldw	ra,4(sp)
 2002cf4:	df000017 	ldw	fp,0(sp)
 2002cf8:	dec00204 	addi	sp,sp,8
 2002cfc:	f800283a 	ret

02002d00 <vid_get_pixel>:
*  Purpose: Reads the color of the pixel at the given coordinates
*
******************************************************************/

short vid_get_pixel(int horiz, int vert, alt_video_display* display)
{
 2002d00:	defffb04 	addi	sp,sp,-20
 2002d04:	dfc00415 	stw	ra,16(sp)
 2002d08:	df000315 	stw	fp,12(sp)
 2002d0c:	df000304 	addi	fp,sp,12
 2002d10:	e13ffd15 	stw	r4,-12(fp)
 2002d14:	e17ffe15 	stw	r5,-8(fp)
 2002d18:	e1bfff15 	stw	r6,-4(fp)
#ifdef LT24
	printf("vid_get_pixel is not implemented\r\n");
 2002d1c:	010080b4 	movhi	r4,514
 2002d20:	2116fb04 	addi	r4,r4,23532
 2002d24:	2008f100 	call	2008f10 <puts>
	return(0);
 2002d28:	0005883a 	mov	r2,zero
  int addr;
  
  addr = ( ( (int)(VIPFR_GetDrawFrame(display)) )+ (vert * (display->width * 2)) + horiz * 2);
  return(IORD_16DIRECT(addr, 0));
#endif
}
 2002d2c:	e037883a 	mov	sp,fp
 2002d30:	dfc00117 	ldw	ra,4(sp)
 2002d34:	df000017 	ldw	fp,0(sp)
 2002d38:	dec00204 	addi	sp,sp,8
 2002d3c:	f800283a 	ret

02002d40 <vid_paint_block>:
*           The color parameter must contain two pixel's worth
*           (32 bits).
*
******************************************************************/
void vid_paint_block (int Hstart,int Vstart, int Hend, int Vend, int color, alt_video_display* display)
{
 2002d40:	defff804 	addi	sp,sp,-32
 2002d44:	dfc00715 	stw	ra,28(sp)
 2002d48:	df000615 	stw	fp,24(sp)
 2002d4c:	df000604 	addi	fp,sp,24
 2002d50:	e13ffc15 	stw	r4,-16(fp)
 2002d54:	e17ffd15 	stw	r5,-12(fp)
 2002d58:	e1bffe15 	stw	r6,-8(fp)
 2002d5c:	e1ffff15 	stw	r7,-4(fp)
#ifdef LT24
	int x,y;
	for(y=Vstart;y<Vend;y++){
 2002d60:	e0bffd17 	ldw	r2,-12(fp)
 2002d64:	e0bffb15 	stw	r2,-20(fp)
 2002d68:	00001206 	br	2002db4 <vid_paint_block+0x74>
		for(x=Hstart;x<Hend;x++){
 2002d6c:	e0bffc17 	ldw	r2,-16(fp)
 2002d70:	e0bffa15 	stw	r2,-24(fp)
 2002d74:	00000906 	br	2002d9c <vid_paint_block+0x5c>
			vid_set_pixel(x, y, color, display);
 2002d78:	e0800217 	ldw	r2,8(fp)
 2002d7c:	e13ffa17 	ldw	r4,-24(fp)
 2002d80:	e17ffb17 	ldw	r5,-20(fp)
 2002d84:	100d883a 	mov	r6,r2
 2002d88:	e1c00317 	ldw	r7,12(fp)
 2002d8c:	2002c640 	call	2002c64 <vid_set_pixel>
void vid_paint_block (int Hstart,int Vstart, int Hend, int Vend, int color, alt_video_display* display)
{
#ifdef LT24
	int x,y;
	for(y=Vstart;y<Vend;y++){
		for(x=Hstart;x<Hend;x++){
 2002d90:	e0bffa17 	ldw	r2,-24(fp)
 2002d94:	10800044 	addi	r2,r2,1
 2002d98:	e0bffa15 	stw	r2,-24(fp)
 2002d9c:	e0fffa17 	ldw	r3,-24(fp)
 2002da0:	e0bffe17 	ldw	r2,-8(fp)
 2002da4:	18bff416 	blt	r3,r2,2002d78 <__alt_mem_pic_mem+0xfdffed78>
******************************************************************/
void vid_paint_block (int Hstart,int Vstart, int Hend, int Vend, int color, alt_video_display* display)
{
#ifdef LT24
	int x,y;
	for(y=Vstart;y<Vend;y++){
 2002da8:	e0bffb17 	ldw	r2,-20(fp)
 2002dac:	10800044 	addi	r2,r2,1
 2002db0:	e0bffb15 	stw	r2,-20(fp)
 2002db4:	e0fffb17 	ldw	r3,-20(fp)
 2002db8:	e0bfff17 	ldw	r2,-4(fp)
 2002dbc:	18bfeb16 	blt	r3,r2,2002d6c <__alt_mem_pic_mem+0xfdffed6c>
    memcpy( (void*)addr, line, bytes_per_line );
    addr += (display->width * bytes_per_pixel);
  }
  free (line);
#endif
}
 2002dc0:	e037883a 	mov	sp,fp
 2002dc4:	dfc00117 	ldw	ra,4(sp)
 2002dc8:	df000017 	ldw	fp,0(sp)
 2002dcc:	dec00204 	addi	sp,sp,8
 2002dd0:	f800283a 	ret

02002dd4 <vid_draw_horiz_line>:
*  Purpose: Draws a horizontal line on the screen quickly.
*           Good for filling stuff.
*
******************************************************************/
void vid_draw_horiz_line (short Hstart, short Hend, int V, int color, alt_video_display* display)
{
 2002dd4:	defff904 	addi	sp,sp,-28
 2002dd8:	dfc00615 	stw	ra,24(sp)
 2002ddc:	df000515 	stw	fp,20(sp)
 2002de0:	df000504 	addi	fp,sp,20
 2002de4:	2007883a 	mov	r3,r4
 2002de8:	2805883a 	mov	r2,r5
 2002dec:	e1bffe15 	stw	r6,-8(fp)
 2002df0:	e1ffff15 	stw	r7,-4(fp)
 2002df4:	e0fffc0d 	sth	r3,-16(fp)
 2002df8:	e0bffd0d 	sth	r2,-12(fp)
#ifdef LT24
	int x;
	for(x=Hstart;x<Hend;x++){
 2002dfc:	e0bffc0f 	ldh	r2,-16(fp)
 2002e00:	e0bffb15 	stw	r2,-20(fp)
 2002e04:	00000906 	br	2002e2c <vid_draw_horiz_line+0x58>
		vid_set_pixel(x, V, color, display);
 2002e08:	e0bfff17 	ldw	r2,-4(fp)
 2002e0c:	e13ffb17 	ldw	r4,-20(fp)
 2002e10:	e17ffe17 	ldw	r5,-8(fp)
 2002e14:	100d883a 	mov	r6,r2
 2002e18:	e1c00217 	ldw	r7,8(fp)
 2002e1c:	2002c640 	call	2002c64 <vid_set_pixel>
******************************************************************/
void vid_draw_horiz_line (short Hstart, short Hend, int V, int color, alt_video_display* display)
{
#ifdef LT24
	int x;
	for(x=Hstart;x<Hend;x++){
 2002e20:	e0bffb17 	ldw	r2,-20(fp)
 2002e24:	10800044 	addi	r2,r2,1
 2002e28:	e0bffb15 	stw	r2,-20(fp)
 2002e2c:	e0bffd0f 	ldh	r2,-12(fp)
 2002e30:	e0fffb17 	ldw	r3,-20(fp)
 2002e34:	18bff416 	blt	r3,r2,2002e08 <__alt_mem_pic_mem+0xfdffee08>
    memcpy( (void*)addr, fast_buffer, bytes_per_line );
  }
  free(fast_buffer);
#endif

}
 2002e38:	e037883a 	mov	sp,fp
 2002e3c:	dfc00117 	ldw	ra,4(sp)
 2002e40:	df000017 	ldw	fp,0(sp)
 2002e44:	dec00204 	addi	sp,sp,8
 2002e48:	f800283a 	ret

02002e4c <vid_merge_colors>:
*  Purpose: Takes 5-bit color values for each red, green, and blue
*           and merges them into one 16-bit color value.
*
******************************************************************/
int vid_merge_colors(int red, int green, int blue)
{
 2002e4c:	defffc04 	addi	sp,sp,-16
 2002e50:	df000315 	stw	fp,12(sp)
 2002e54:	df000304 	addi	fp,sp,12
 2002e58:	e13ffd15 	stw	r4,-12(fp)
 2002e5c:	e17ffe15 	stw	r5,-8(fp)
 2002e60:	e1bfff15 	stw	r6,-4(fp)
  // Green actually has 6-bits, but we'll make it's LSB 1 to be consistent.
  return ((blue) | (((green << 1) | 0x1) << 5) | (red << 11));
 2002e64:	e0bffe17 	ldw	r2,-8(fp)
 2002e68:	1085883a 	add	r2,r2,r2
 2002e6c:	10800054 	ori	r2,r2,1
 2002e70:	1006917a 	slli	r3,r2,5
 2002e74:	e0bfff17 	ldw	r2,-4(fp)
 2002e78:	1886b03a 	or	r3,r3,r2
 2002e7c:	e0bffd17 	ldw	r2,-12(fp)
 2002e80:	100492fa 	slli	r2,r2,11
 2002e84:	1884b03a 	or	r2,r3,r2
}
 2002e88:	e037883a 	mov	sp,fp
 2002e8c:	df000017 	ldw	fp,0(sp)
 2002e90:	dec00104 	addi	sp,sp,4
 2002e94:	f800283a 	ret

02002e98 <vid_color_convert24_16>:
*           sample and converts it to 16-bits, displayable by the 
*           VGA controller in 16-bit mode
*
******************************************************************/
unsigned short vid_color_convert24_16(char* color24)
{
 2002e98:	defffc04 	addi	sp,sp,-16
 2002e9c:	df000315 	stw	fp,12(sp)
 2002ea0:	df000304 	addi	fp,sp,12
 2002ea4:	e13fff15 	stw	r4,-4(fp)
	unsigned char red, green, blue;
	unsigned short output;
	
	red = *(color24 + 0) & 0xF8;
 2002ea8:	e0bfff17 	ldw	r2,-4(fp)
 2002eac:	10800003 	ldbu	r2,0(r2)
 2002eb0:	1007883a 	mov	r3,r2
 2002eb4:	00bffe04 	movi	r2,-8
 2002eb8:	1884703a 	and	r2,r3,r2
 2002ebc:	e0bffd05 	stb	r2,-12(fp)
	green = *(color24 + 1) & 0xFC; // green is actualy 6 bits
 2002ec0:	e0bfff17 	ldw	r2,-4(fp)
 2002ec4:	10800044 	addi	r2,r2,1
 2002ec8:	10800003 	ldbu	r2,0(r2)
 2002ecc:	1007883a 	mov	r3,r2
 2002ed0:	00bfff04 	movi	r2,-4
 2002ed4:	1884703a 	and	r2,r3,r2
 2002ed8:	e0bffd45 	stb	r2,-11(fp)
	blue = *(color24 + 2) & 0xF8;
 2002edc:	e0bfff17 	ldw	r2,-4(fp)
 2002ee0:	10800084 	addi	r2,r2,2
 2002ee4:	10800003 	ldbu	r2,0(r2)
 2002ee8:	1007883a 	mov	r3,r2
 2002eec:	00bffe04 	movi	r2,-8
 2002ef0:	1884703a 	and	r2,r3,r2
 2002ef4:	e0bffd85 	stb	r2,-10(fp)

	output = ((blue >> 3) | (green << 3) | (red << 8));  
 2002ef8:	e0bffd83 	ldbu	r2,-10(fp)
 2002efc:	1004d0fa 	srli	r2,r2,3
 2002f00:	10803fcc 	andi	r2,r2,255
 2002f04:	e0fffd43 	ldbu	r3,-11(fp)
 2002f08:	180690fa 	slli	r3,r3,3
 2002f0c:	10c4b03a 	or	r2,r2,r3
 2002f10:	1007883a 	mov	r3,r2
 2002f14:	e0bffd03 	ldbu	r2,-12(fp)
 2002f18:	1004923a 	slli	r2,r2,8
 2002f1c:	1884b03a 	or	r2,r3,r2
 2002f20:	e0bffe0d 	sth	r2,-8(fp)
	return output;
 2002f24:	e0bffe0b 	ldhu	r2,-8(fp)
}
 2002f28:	e037883a 	mov	sp,fp
 2002f2c:	df000017 	ldw	fp,0(sp)
 2002f30:	dec00104 	addi	sp,sp,4
 2002f34:	f800283a 	ret

02002f38 <vid_color_convert16_24>:
*           sample and converts it to 16-bits, displayable by the 
*           VGA controller in 16-bit mode
*
******************************************************************/
int vid_color_convert16_24(unsigned short color16, char* color24)
{
 2002f38:	defffd04 	addi	sp,sp,-12
 2002f3c:	df000215 	stw	fp,8(sp)
 2002f40:	df000204 	addi	fp,sp,8
 2002f44:	2005883a 	mov	r2,r4
 2002f48:	e17fff15 	stw	r5,-4(fp)
 2002f4c:	e0bffe0d 	sth	r2,-8(fp)
	*(color24 + 0) = color16 >> 11;
 2002f50:	e0bffe0b 	ldhu	r2,-8(fp)
 2002f54:	1004d2fa 	srli	r2,r2,11
 2002f58:	1007883a 	mov	r3,r2
 2002f5c:	e0bfff17 	ldw	r2,-4(fp)
 2002f60:	10c00005 	stb	r3,0(r2)
	*(color24 + 1) = ((color16 & 0x3E) >> 5);
 2002f64:	e0bfff17 	ldw	r2,-4(fp)
 2002f68:	10800044 	addi	r2,r2,1
 2002f6c:	e0fffe0b 	ldhu	r3,-8(fp)
 2002f70:	18c00f8c 	andi	r3,r3,62
 2002f74:	1807d17a 	srai	r3,r3,5
 2002f78:	10c00005 	stb	r3,0(r2)
	*(color24 + 2) = (color16 & 0x1F);
 2002f7c:	e0bfff17 	ldw	r2,-4(fp)
 2002f80:	10800084 	addi	r2,r2,2
 2002f84:	e0fffe0b 	ldhu	r3,-8(fp)
 2002f88:	18c007cc 	andi	r3,r3,31
 2002f8c:	10c00005 	stb	r3,0(r2)
	
	return (0);
 2002f90:	0005883a 	mov	r2,zero
}
 2002f94:	e037883a 	mov	sp,fp
 2002f98:	df000017 	ldw	fp,0(sp)
 2002f9c:	dec00104 	addi	sp,sp,4
 2002fa0:	f800283a 	ret

02002fa4 <vid_copy_line_to_frame_buffer>:
*           the specified coordinates.  Converts color depth if
*           necessary.
*
******************************************************************/
int vid_copy_line_to_frame_buffer( int x, int y, char* buffer, int num_pixels, int source_color_depth, alt_video_display* display )
{
 2002fa4:	defffa04 	addi	sp,sp,-24
 2002fa8:	dfc00515 	stw	ra,20(sp)
 2002fac:	df000415 	stw	fp,16(sp)
 2002fb0:	df000404 	addi	fp,sp,16
 2002fb4:	e13ffc15 	stw	r4,-16(fp)
 2002fb8:	e17ffd15 	stw	r5,-12(fp)
 2002fbc:	e1bffe15 	stw	r6,-8(fp)
 2002fc0:	e1ffff15 	stw	r7,-4(fp)
#ifdef LT24
	printf("vid_copy_line_to_frame_buffer is not implemented!\r\n");
 2002fc4:	010080b4 	movhi	r4,514
 2002fc8:	21170404 	addi	r4,r4,23568
 2002fcc:	2008f100 	call	2008f10 <puts>
	return(0);
 2002fd0:	0005883a 	mov	r2,zero
      memcpy( (void*)dest_addr, (void*)buffer, bytes_in_line );
    }
  }
  return(0);
#endif
}
 2002fd4:	e037883a 	mov	sp,fp
 2002fd8:	dfc00117 	ldw	ra,4(sp)
 2002fdc:	df000017 	ldw	fp,0(sp)
 2002fe0:	dec00204 	addi	sp,sp,8
 2002fe4:	f800283a 	ret

02002fe8 <vid_draw_sloped_line>:
                           unsigned short horiz_end, 
                           unsigned short vert_end, 
                           unsigned short width, 
                           int color, 
                           alt_video_display* display)
{
 2002fe8:	deffef04 	addi	sp,sp,-68
 2002fec:	dfc01015 	stw	ra,64(sp)
 2002ff0:	df000f15 	stw	fp,60(sp)
 2002ff4:	df000f04 	addi	fp,sp,60
 2002ff8:	2011883a 	mov	r8,r4
 2002ffc:	3009883a 	mov	r4,r6
 2003000:	3807883a 	mov	r3,r7
 2003004:	e0800217 	ldw	r2,8(fp)
 2003008:	e23ffb0d 	sth	r8,-20(fp)
 200300c:	e17ffc0d 	sth	r5,-16(fp)
 2003010:	e13ffd0d 	sth	r4,-12(fp)
 2003014:	e0fffe0d 	sth	r3,-8(fp)
 2003018:	e0bfff0d 	sth	r2,-4(fp)
  // Find the vertical and horizontal distance between the two points
  int horiz_delta = abs(horiz_end-horiz_start);
 200301c:	e0fffd0b 	ldhu	r3,-12(fp)
 2003020:	e0bffb0b 	ldhu	r2,-20(fp)
 2003024:	1885c83a 	sub	r2,r3,r2
 2003028:	1000010e 	bge	r2,zero,2003030 <vid_draw_sloped_line+0x48>
 200302c:	0085c83a 	sub	r2,zero,r2
 2003030:	e0bff115 	stw	r2,-60(fp)
  int vert_delta = abs(vert_end-vert_start);
 2003034:	e0fffe0b 	ldhu	r3,-8(fp)
 2003038:	e0bffc0b 	ldhu	r2,-16(fp)
 200303c:	1885c83a 	sub	r2,r3,r2
 2003040:	1000010e 	bge	r2,zero,2003048 <vid_draw_sloped_line+0x60>
 2003044:	0085c83a 	sub	r2,zero,r2
 2003048:	e0bff215 	stw	r2,-56(fp)

  // Find out what direction we are going
  int horiz_incr, vert_incr;
  if (horiz_start > horiz_end) { horiz_incr=-1; } else { horiz_incr=1; }
 200304c:	e0bffb0b 	ldhu	r2,-20(fp)
 2003050:	e0fffd0b 	ldhu	r3,-12(fp)
 2003054:	1880032e 	bgeu	r3,r2,2003064 <vid_draw_sloped_line+0x7c>
 2003058:	00bfffc4 	movi	r2,-1
 200305c:	e0bff315 	stw	r2,-52(fp)
 2003060:	00000206 	br	200306c <vid_draw_sloped_line+0x84>
 2003064:	00800044 	movi	r2,1
 2003068:	e0bff315 	stw	r2,-52(fp)
  if (vert_start > vert_end) { vert_incr=-1; } else { vert_incr=1; }
 200306c:	e0bffc0b 	ldhu	r2,-16(fp)
 2003070:	e0fffe0b 	ldhu	r3,-8(fp)
 2003074:	1880032e 	bgeu	r3,r2,2003084 <vid_draw_sloped_line+0x9c>
 2003078:	00bfffc4 	movi	r2,-1
 200307c:	e0bff415 	stw	r2,-48(fp)
 2003080:	00000206 	br	200308c <vid_draw_sloped_line+0xa4>
 2003084:	00800044 	movi	r2,1
 2003088:	e0bff415 	stw	r2,-48(fp)

  // Find out which axis is always incremented when drawing the line
  // If it's the horizontal axis
  if (horiz_delta >= vert_delta) {
 200308c:	e0fff117 	ldw	r3,-60(fp)
 2003090:	e0bff217 	ldw	r2,-56(fp)
 2003094:	18803516 	blt	r3,r2,200316c <vid_draw_sloped_line+0x184>
    int dPr   = vert_delta<<1;
 2003098:	e0bff217 	ldw	r2,-56(fp)
 200309c:	1085883a 	add	r2,r2,r2
 20030a0:	e0bff715 	stw	r2,-36(fp)
    int dPru  = dPr - (horiz_delta<<1);
 20030a4:	e0bff117 	ldw	r2,-60(fp)
 20030a8:	1085883a 	add	r2,r2,r2
 20030ac:	1007883a 	mov	r3,r2
 20030b0:	e0bff717 	ldw	r2,-36(fp)
 20030b4:	10c5c83a 	sub	r2,r2,r3
 20030b8:	e0bff815 	stw	r2,-32(fp)
    int P     = dPr - horiz_delta;
 20030bc:	e0fff717 	ldw	r3,-36(fp)
 20030c0:	e0bff117 	ldw	r2,-60(fp)
 20030c4:	1885c83a 	sub	r2,r3,r2
 20030c8:	e0bff515 	stw	r2,-44(fp)

    // Process the line, one horizontal point at at time
    for (; horiz_delta >= 0; horiz_delta--) {
 20030cc:	00002406 	br	2003160 <vid_draw_sloped_line+0x178>
      // plot the pixel
      vid_set_pixel(horiz_start, vert_start, color, display);
 20030d0:	e13ffb0b 	ldhu	r4,-20(fp)
 20030d4:	e0fffc0b 	ldhu	r3,-16(fp)
 20030d8:	e0800317 	ldw	r2,12(fp)
 20030dc:	180b883a 	mov	r5,r3
 20030e0:	100d883a 	mov	r6,r2
 20030e4:	e1c00417 	ldw	r7,16(fp)
 20030e8:	2002c640 	call	2002c64 <vid_set_pixel>
      // If we're moving both up and right
      if (P > 0) {
 20030ec:	e0bff517 	ldw	r2,-44(fp)
 20030f0:	00800f0e 	bge	zero,r2,2003130 <vid_draw_sloped_line+0x148>
        horiz_start+=horiz_incr;
 20030f4:	e0bff317 	ldw	r2,-52(fp)
 20030f8:	1007883a 	mov	r3,r2
 20030fc:	e0bffb0b 	ldhu	r2,-20(fp)
 2003100:	1885883a 	add	r2,r3,r2
 2003104:	e0bffb0d 	sth	r2,-20(fp)
        vert_start+=vert_incr;
 2003108:	e0bff417 	ldw	r2,-48(fp)
 200310c:	1007883a 	mov	r3,r2
 2003110:	e0bffc0b 	ldhu	r2,-16(fp)
 2003114:	1885883a 	add	r2,r3,r2
 2003118:	e0bffc0d 	sth	r2,-16(fp)
        P+=dPru;
 200311c:	e0fff517 	ldw	r3,-44(fp)
 2003120:	e0bff817 	ldw	r2,-32(fp)
 2003124:	1885883a 	add	r2,r3,r2
 2003128:	e0bff515 	stw	r2,-44(fp)
 200312c:	00000906 	br	2003154 <vid_draw_sloped_line+0x16c>
      } else {
        horiz_start+=horiz_incr;
 2003130:	e0bff317 	ldw	r2,-52(fp)
 2003134:	1007883a 	mov	r3,r2
 2003138:	e0bffb0b 	ldhu	r2,-20(fp)
 200313c:	1885883a 	add	r2,r3,r2
 2003140:	e0bffb0d 	sth	r2,-20(fp)
        P+=dPr;
 2003144:	e0fff517 	ldw	r3,-44(fp)
 2003148:	e0bff717 	ldw	r2,-36(fp)
 200314c:	1885883a 	add	r2,r3,r2
 2003150:	e0bff515 	stw	r2,-44(fp)
    int dPr   = vert_delta<<1;
    int dPru  = dPr - (horiz_delta<<1);
    int P     = dPr - horiz_delta;

    // Process the line, one horizontal point at at time
    for (; horiz_delta >= 0; horiz_delta--) {
 2003154:	e0bff117 	ldw	r2,-60(fp)
 2003158:	10bfffc4 	addi	r2,r2,-1
 200315c:	e0bff115 	stw	r2,-60(fp)
 2003160:	e0bff117 	ldw	r2,-60(fp)
 2003164:	103fda0e 	bge	r2,zero,20030d0 <__alt_mem_pic_mem+0xfdfff0d0>
 2003168:	00003406 	br	200323c <vid_draw_sloped_line+0x254>
        P+=dPr;
      }
    }
  // If it's the vertical axis
  } else {
    int dPr   = horiz_delta<<1;
 200316c:	e0bff117 	ldw	r2,-60(fp)
 2003170:	1085883a 	add	r2,r2,r2
 2003174:	e0bff915 	stw	r2,-28(fp)
    int dPru  = dPr - (vert_delta<<1);
 2003178:	e0bff217 	ldw	r2,-56(fp)
 200317c:	1085883a 	add	r2,r2,r2
 2003180:	1007883a 	mov	r3,r2
 2003184:	e0bff917 	ldw	r2,-28(fp)
 2003188:	10c5c83a 	sub	r2,r2,r3
 200318c:	e0bffa15 	stw	r2,-24(fp)
    int P     = dPr - vert_delta;
 2003190:	e0fff917 	ldw	r3,-28(fp)
 2003194:	e0bff217 	ldw	r2,-56(fp)
 2003198:	1885c83a 	sub	r2,r3,r2
 200319c:	e0bff615 	stw	r2,-40(fp)

    // Process the line, one vertical point at at time
    for (; vert_delta>=0; vert_delta--) {
 20031a0:	00002406 	br	2003234 <vid_draw_sloped_line+0x24c>
      // plot the pixel
      vid_set_pixel(horiz_start, vert_start, color, display);
 20031a4:	e13ffb0b 	ldhu	r4,-20(fp)
 20031a8:	e0fffc0b 	ldhu	r3,-16(fp)
 20031ac:	e0800317 	ldw	r2,12(fp)
 20031b0:	180b883a 	mov	r5,r3
 20031b4:	100d883a 	mov	r6,r2
 20031b8:	e1c00417 	ldw	r7,16(fp)
 20031bc:	2002c640 	call	2002c64 <vid_set_pixel>
      // If we're moving both up and right
      if (P > 0) {
 20031c0:	e0bff617 	ldw	r2,-40(fp)
 20031c4:	00800f0e 	bge	zero,r2,2003204 <vid_draw_sloped_line+0x21c>
        horiz_start+=horiz_incr;
 20031c8:	e0bff317 	ldw	r2,-52(fp)
 20031cc:	1007883a 	mov	r3,r2
 20031d0:	e0bffb0b 	ldhu	r2,-20(fp)
 20031d4:	1885883a 	add	r2,r3,r2
 20031d8:	e0bffb0d 	sth	r2,-20(fp)
        vert_start+=vert_incr;
 20031dc:	e0bff417 	ldw	r2,-48(fp)
 20031e0:	1007883a 	mov	r3,r2
 20031e4:	e0bffc0b 	ldhu	r2,-16(fp)
 20031e8:	1885883a 	add	r2,r3,r2
 20031ec:	e0bffc0d 	sth	r2,-16(fp)
        P+=dPru;
 20031f0:	e0fff617 	ldw	r3,-40(fp)
 20031f4:	e0bffa17 	ldw	r2,-24(fp)
 20031f8:	1885883a 	add	r2,r3,r2
 20031fc:	e0bff615 	stw	r2,-40(fp)
 2003200:	00000906 	br	2003228 <vid_draw_sloped_line+0x240>
      } else {
        vert_start+=vert_incr;
 2003204:	e0bff417 	ldw	r2,-48(fp)
 2003208:	1007883a 	mov	r3,r2
 200320c:	e0bffc0b 	ldhu	r2,-16(fp)
 2003210:	1885883a 	add	r2,r3,r2
 2003214:	e0bffc0d 	sth	r2,-16(fp)
        P+=dPr;
 2003218:	e0fff617 	ldw	r3,-40(fp)
 200321c:	e0bff917 	ldw	r2,-28(fp)
 2003220:	1885883a 	add	r2,r3,r2
 2003224:	e0bff615 	stw	r2,-40(fp)
    int dPr   = horiz_delta<<1;
    int dPru  = dPr - (vert_delta<<1);
    int P     = dPr - vert_delta;

    // Process the line, one vertical point at at time
    for (; vert_delta>=0; vert_delta--) {
 2003228:	e0bff217 	ldw	r2,-56(fp)
 200322c:	10bfffc4 	addi	r2,r2,-1
 2003230:	e0bff215 	stw	r2,-56(fp)
 2003234:	e0bff217 	ldw	r2,-56(fp)
 2003238:	103fda0e 	bge	r2,zero,20031a4 <__alt_mem_pic_mem+0xfdfff1a4>
        vert_start+=vert_incr;
        P+=dPr;
      }
    }
  }
}
 200323c:	e037883a 	mov	sp,fp
 2003240:	dfc00117 	ldw	ra,4(sp)
 2003244:	df000017 	ldw	fp,0(sp)
 2003248:	dec00204 	addi	sp,sp,8
 200324c:	f800283a 	ret

02003250 <vid_draw_circle>:
*  tells the function whether or not to fill in the box.  1 = fill,
*  0 = do not fill.
*
******************************************************************/
int vid_draw_circle(int Hcenter, int Vcenter, int radius, int color, char fill, alt_video_display* display)
{
 2003250:	defff104 	addi	sp,sp,-60
 2003254:	dfc00e15 	stw	ra,56(sp)
 2003258:	df000d15 	stw	fp,52(sp)
 200325c:	df000d04 	addi	fp,sp,52
 2003260:	e13ffb15 	stw	r4,-20(fp)
 2003264:	e17ffc15 	stw	r5,-16(fp)
 2003268:	e1bffd15 	stw	r6,-12(fp)
 200326c:	e1fffe15 	stw	r7,-8(fp)
 2003270:	e0800217 	ldw	r2,8(fp)
 2003274:	e0bfff05 	stb	r2,-4(fp)
  int x = 0;
 2003278:	e03ff815 	stw	zero,-32(fp)
  int y = radius;
 200327c:	e0bffd17 	ldw	r2,-12(fp)
 2003280:	e0bff915 	stw	r2,-28(fp)
  int p = (5 - radius*4)/4;
 2003284:	e0bffd17 	ldw	r2,-12(fp)
 2003288:	10bfff24 	muli	r2,r2,-4
 200328c:	10800144 	addi	r2,r2,5
 2003290:	1000010e 	bge	r2,zero,2003298 <vid_draw_circle+0x48>
 2003294:	108000c4 	addi	r2,r2,3
 2003298:	1005d0ba 	srai	r2,r2,2
 200329c:	e0bffa15 	stw	r2,-24(fp)

  // Start the circle with the top, bottom, left, and right pixels.
  vid_round_corner_points(Hcenter, Vcenter, x, y, 0, 0, color, fill, display);
 20032a0:	e0bfff07 	ldb	r2,-4(fp)
 20032a4:	d8000015 	stw	zero,0(sp)
 20032a8:	d8000115 	stw	zero,4(sp)
 20032ac:	e0fffe17 	ldw	r3,-8(fp)
 20032b0:	d8c00215 	stw	r3,8(sp)
 20032b4:	d8800315 	stw	r2,12(sp)
 20032b8:	e0800317 	ldw	r2,12(fp)
 20032bc:	d8800415 	stw	r2,16(sp)
 20032c0:	e13ffb17 	ldw	r4,-20(fp)
 20032c4:	e17ffc17 	ldw	r5,-16(fp)
 20032c8:	e1bff817 	ldw	r6,-32(fp)
 20032cc:	e1fff917 	ldw	r7,-28(fp)
 20032d0:	20037280 	call	2003728 <vid_round_corner_points>

  // Now start moving out from those points until the lines meet
  while (x < y) {
 20032d4:	00002406 	br	2003368 <vid_draw_circle+0x118>
    x++;
 20032d8:	e0bff817 	ldw	r2,-32(fp)
 20032dc:	10800044 	addi	r2,r2,1
 20032e0:	e0bff815 	stw	r2,-32(fp)
    if (p < 0) {
 20032e4:	e0bffa17 	ldw	r2,-24(fp)
 20032e8:	1000070e 	bge	r2,zero,2003308 <vid_draw_circle+0xb8>
      p += 2*x+1;
 20032ec:	e0bff817 	ldw	r2,-32(fp)
 20032f0:	1085883a 	add	r2,r2,r2
 20032f4:	10800044 	addi	r2,r2,1
 20032f8:	e0fffa17 	ldw	r3,-24(fp)
 20032fc:	1885883a 	add	r2,r3,r2
 2003300:	e0bffa15 	stw	r2,-24(fp)
 2003304:	00000b06 	br	2003334 <vid_draw_circle+0xe4>
    } else {
      y--;
 2003308:	e0bff917 	ldw	r2,-28(fp)
 200330c:	10bfffc4 	addi	r2,r2,-1
 2003310:	e0bff915 	stw	r2,-28(fp)
      p += 2*(x-y)+1;
 2003314:	e0fff817 	ldw	r3,-32(fp)
 2003318:	e0bff917 	ldw	r2,-28(fp)
 200331c:	1885c83a 	sub	r2,r3,r2
 2003320:	1085883a 	add	r2,r2,r2
 2003324:	10800044 	addi	r2,r2,1
 2003328:	e0fffa17 	ldw	r3,-24(fp)
 200332c:	1885883a 	add	r2,r3,r2
 2003330:	e0bffa15 	stw	r2,-24(fp)
    }
    vid_round_corner_points(Hcenter, Vcenter, x, y, 0, 0, color, fill, display);
 2003334:	e0bfff07 	ldb	r2,-4(fp)
 2003338:	d8000015 	stw	zero,0(sp)
 200333c:	d8000115 	stw	zero,4(sp)
 2003340:	e0fffe17 	ldw	r3,-8(fp)
 2003344:	d8c00215 	stw	r3,8(sp)
 2003348:	d8800315 	stw	r2,12(sp)
 200334c:	e0800317 	ldw	r2,12(fp)
 2003350:	d8800415 	stw	r2,16(sp)
 2003354:	e13ffb17 	ldw	r4,-20(fp)
 2003358:	e17ffc17 	ldw	r5,-16(fp)
 200335c:	e1bff817 	ldw	r6,-32(fp)
 2003360:	e1fff917 	ldw	r7,-28(fp)
 2003364:	20037280 	call	2003728 <vid_round_corner_points>

  // Start the circle with the top, bottom, left, and right pixels.
  vid_round_corner_points(Hcenter, Vcenter, x, y, 0, 0, color, fill, display);

  // Now start moving out from those points until the lines meet
  while (x < y) {
 2003368:	e0fff817 	ldw	r3,-32(fp)
 200336c:	e0bff917 	ldw	r2,-28(fp)
 2003370:	18bfd916 	blt	r3,r2,20032d8 <__alt_mem_pic_mem+0xfdfff2d8>
      y--;
      p += 2*(x-y)+1;
    }
    vid_round_corner_points(Hcenter, Vcenter, x, y, 0, 0, color, fill, display);
  }
  return (0);
 2003374:	0005883a 	mov	r2,zero
}
 2003378:	e037883a 	mov	sp,fp
 200337c:	dfc00117 	ldw	ra,4(sp)
 2003380:	df000017 	ldw	fp,0(sp)
 2003384:	dec00204 	addi	sp,sp,8
 2003388:	f800283a 	ret

0200338c <vid_draw_round_corner_box>:
*  to fill in the box.  1 = fill, 0 = do not fill.
*
******************************************************************/
int vid_draw_round_corner_box ( int horiz_start, int vert_start, int horiz_end, int vert_end, 
                                int radius, int color, int fill, alt_video_display* display)
{
 200338c:	deffec04 	addi	sp,sp,-80
 2003390:	dfc01315 	stw	ra,76(sp)
 2003394:	df001215 	stw	fp,72(sp)
 2003398:	df001204 	addi	fp,sp,72
 200339c:	e13ffc15 	stw	r4,-16(fp)
 20033a0:	e17ffd15 	stw	r5,-12(fp)
 20033a4:	e1bffe15 	stw	r6,-8(fp)
 20033a8:	e1ffff15 	stw	r7,-4(fp)
  int diameter;
  int temp;
  unsigned int width, height, straight_width, straight_height;

  // Make sure the start point us up and left of the end point
  if( horiz_start > horiz_end )
 20033ac:	e0bffc17 	ldw	r2,-16(fp)
 20033b0:	e0fffe17 	ldw	r3,-8(fp)
 20033b4:	1880060e 	bge	r3,r2,20033d0 <vid_draw_round_corner_box+0x44>
  {
    temp = horiz_end;
 20033b8:	e0bffe17 	ldw	r2,-8(fp)
 20033bc:	e0bff615 	stw	r2,-40(fp)
    horiz_end = horiz_start;
 20033c0:	e0bffc17 	ldw	r2,-16(fp)
 20033c4:	e0bffe15 	stw	r2,-8(fp)
    horiz_start = temp;
 20033c8:	e0bff617 	ldw	r2,-40(fp)
 20033cc:	e0bffc15 	stw	r2,-16(fp)
  }
  
  if( vert_start > vert_end )
 20033d0:	e0bffd17 	ldw	r2,-12(fp)
 20033d4:	e0ffff17 	ldw	r3,-4(fp)
 20033d8:	1880060e 	bge	r3,r2,20033f4 <vid_draw_round_corner_box+0x68>
  {
    temp = vert_end;
 20033dc:	e0bfff17 	ldw	r2,-4(fp)
 20033e0:	e0bff615 	stw	r2,-40(fp)
    vert_end = vert_start;
 20033e4:	e0bffd17 	ldw	r2,-12(fp)
 20033e8:	e0bfff15 	stw	r2,-4(fp)
    vert_start = temp;
 20033ec:	e0bff617 	ldw	r2,-40(fp)
 20033f0:	e0bffd15 	stw	r2,-12(fp)
  }
  
  // These are the overall dimensions of the box
  width = horiz_end - horiz_start;
 20033f4:	e0fffe17 	ldw	r3,-8(fp)
 20033f8:	e0bffc17 	ldw	r2,-16(fp)
 20033fc:	1885c83a 	sub	r2,r3,r2
 2003400:	e0bff715 	stw	r2,-36(fp)
  height = vert_end - vert_start;
 2003404:	e0ffff17 	ldw	r3,-4(fp)
 2003408:	e0bffd17 	ldw	r2,-12(fp)
 200340c:	1885c83a 	sub	r2,r3,r2
 2003410:	e0bff815 	stw	r2,-32(fp)

  // Make sure our radius isnt more than the shortest dimension 
  // of the box, or it'll screw us all up
  if( radius > ( width / 2 ))
 2003414:	e0800217 	ldw	r2,8(fp)
 2003418:	e0fff717 	ldw	r3,-36(fp)
 200341c:	1806d07a 	srli	r3,r3,1
 2003420:	1880032e 	bgeu	r3,r2,2003430 <vid_draw_round_corner_box+0xa4>
    radius = width / 2;
 2003424:	e0bff717 	ldw	r2,-36(fp)
 2003428:	1004d07a 	srli	r2,r2,1
 200342c:	e0800215 	stw	r2,8(fp)

  if( radius > ( height / 2 ))
 2003430:	e0800217 	ldw	r2,8(fp)
 2003434:	e0fff817 	ldw	r3,-32(fp)
 2003438:	1806d07a 	srli	r3,r3,1
 200343c:	1880032e 	bgeu	r3,r2,200344c <vid_draw_round_corner_box+0xc0>
    radius = height / 2;
 2003440:	e0bff817 	ldw	r2,-32(fp)
 2003444:	1004d07a 	srli	r2,r2,1
 2003448:	e0800215 	stw	r2,8(fp)
  
  // We use the diameter for some calculations, so we'll pre calculate it here.
  diameter = ( radius * 2 );
 200344c:	e0800217 	ldw	r2,8(fp)
 2003450:	1085883a 	add	r2,r2,r2
 2003454:	e0bff915 	stw	r2,-28(fp)

  // These are the lengths of the straight portions of the box edges.
  straight_width = width - diameter;
 2003458:	e0bff917 	ldw	r2,-28(fp)
 200345c:	e0fff717 	ldw	r3,-36(fp)
 2003460:	1885c83a 	sub	r2,r3,r2
 2003464:	e0bffa15 	stw	r2,-24(fp)
  straight_height = height - diameter;
 2003468:	e0bff917 	ldw	r2,-28(fp)
 200346c:	e0fff817 	ldw	r3,-32(fp)
 2003470:	1885c83a 	sub	r2,r3,r2
 2003474:	e0bffb15 	stw	r2,-20(fp)

  x = 0;
 2003478:	e03ff315 	stw	zero,-52(fp)
  y = radius;
 200347c:	e0800217 	ldw	r2,8(fp)
 2003480:	e0bff415 	stw	r2,-48(fp)
  p = (5 - radius*4)/4;
 2003484:	e0800217 	ldw	r2,8(fp)
 2003488:	10bfff24 	muli	r2,r2,-4
 200348c:	10800144 	addi	r2,r2,5
 2003490:	1000010e 	bge	r2,zero,2003498 <vid_draw_round_corner_box+0x10c>
 2003494:	108000c4 	addi	r2,r2,3
 2003498:	1005d0ba 	srai	r2,r2,2
 200349c:	e0bff515 	stw	r2,-44(fp)
   
  // Start the corners with the top, bottom, left, and right pixels.
  vid_round_corner_points( horiz_start + radius, vert_start + radius, x, y, 
 20034a0:	e0fffc17 	ldw	r3,-16(fp)
 20034a4:	e0800217 	ldw	r2,8(fp)
 20034a8:	1891883a 	add	r8,r3,r2
 20034ac:	e0fffd17 	ldw	r3,-12(fp)
 20034b0:	e0800217 	ldw	r2,8(fp)
 20034b4:	188b883a 	add	r5,r3,r2
 20034b8:	e1bff317 	ldw	r6,-52(fp)
 20034bc:	e1fff417 	ldw	r7,-48(fp)
 20034c0:	e13ffa17 	ldw	r4,-24(fp)
 20034c4:	e0fffb17 	ldw	r3,-20(fp)
 20034c8:	e0800417 	ldw	r2,16(fp)
 20034cc:	10803fcc 	andi	r2,r2,255
 20034d0:	1080201c 	xori	r2,r2,128
 20034d4:	10bfe004 	addi	r2,r2,-128
 20034d8:	d9000015 	stw	r4,0(sp)
 20034dc:	d8c00115 	stw	r3,4(sp)
 20034e0:	e0c00317 	ldw	r3,12(fp)
 20034e4:	d8c00215 	stw	r3,8(sp)
 20034e8:	d8800315 	stw	r2,12(sp)
 20034ec:	e0800517 	ldw	r2,20(fp)
 20034f0:	d8800415 	stw	r2,16(sp)
 20034f4:	4009883a 	mov	r4,r8
 20034f8:	20037280 	call	2003728 <vid_round_corner_points>
                           straight_width, straight_height, color, fill, display );
  
  // Now start moving out from those points until the lines meet
  while (x < y) {
 20034fc:	00003006 	br	20035c0 <vid_draw_round_corner_box+0x234>
    x++;
 2003500:	e0bff317 	ldw	r2,-52(fp)
 2003504:	10800044 	addi	r2,r2,1
 2003508:	e0bff315 	stw	r2,-52(fp)
    if (p < 0) {
 200350c:	e0bff517 	ldw	r2,-44(fp)
 2003510:	1000080e 	bge	r2,zero,2003534 <vid_draw_round_corner_box+0x1a8>
      p += 2*x+1;
 2003514:	e0bff317 	ldw	r2,-52(fp)
 2003518:	1085883a 	add	r2,r2,r2
 200351c:	1007883a 	mov	r3,r2
 2003520:	e0bff517 	ldw	r2,-44(fp)
 2003524:	1885883a 	add	r2,r3,r2
 2003528:	10800044 	addi	r2,r2,1
 200352c:	e0bff515 	stw	r2,-44(fp)
 2003530:	00000c06 	br	2003564 <vid_draw_round_corner_box+0x1d8>
    } else {
      y--;
 2003534:	e0bff417 	ldw	r2,-48(fp)
 2003538:	10bfffc4 	addi	r2,r2,-1
 200353c:	e0bff415 	stw	r2,-48(fp)
      p += 2*(x-y)+1;
 2003540:	e0fff317 	ldw	r3,-52(fp)
 2003544:	e0bff417 	ldw	r2,-48(fp)
 2003548:	1885c83a 	sub	r2,r3,r2
 200354c:	1085883a 	add	r2,r2,r2
 2003550:	1007883a 	mov	r3,r2
 2003554:	e0bff517 	ldw	r2,-44(fp)
 2003558:	1885883a 	add	r2,r3,r2
 200355c:	10800044 	addi	r2,r2,1
 2003560:	e0bff515 	stw	r2,-44(fp)
    }
    vid_round_corner_points( horiz_start + radius, vert_start + radius, x, y, 
 2003564:	e0fffc17 	ldw	r3,-16(fp)
 2003568:	e0800217 	ldw	r2,8(fp)
 200356c:	1891883a 	add	r8,r3,r2
 2003570:	e0fffd17 	ldw	r3,-12(fp)
 2003574:	e0800217 	ldw	r2,8(fp)
 2003578:	188b883a 	add	r5,r3,r2
 200357c:	e1bff317 	ldw	r6,-52(fp)
 2003580:	e1fff417 	ldw	r7,-48(fp)
 2003584:	e13ffa17 	ldw	r4,-24(fp)
 2003588:	e0fffb17 	ldw	r3,-20(fp)
 200358c:	e0800417 	ldw	r2,16(fp)
 2003590:	10803fcc 	andi	r2,r2,255
 2003594:	1080201c 	xori	r2,r2,128
 2003598:	10bfe004 	addi	r2,r2,-128
 200359c:	d9000015 	stw	r4,0(sp)
 20035a0:	d8c00115 	stw	r3,4(sp)
 20035a4:	e0c00317 	ldw	r3,12(fp)
 20035a8:	d8c00215 	stw	r3,8(sp)
 20035ac:	d8800315 	stw	r2,12(sp)
 20035b0:	e0800517 	ldw	r2,20(fp)
 20035b4:	d8800415 	stw	r2,16(sp)
 20035b8:	4009883a 	mov	r4,r8
 20035bc:	20037280 	call	2003728 <vid_round_corner_points>
  // Start the corners with the top, bottom, left, and right pixels.
  vid_round_corner_points( horiz_start + radius, vert_start + radius, x, y, 
                           straight_width, straight_height, color, fill, display );
  
  // Now start moving out from those points until the lines meet
  while (x < y) {
 20035c0:	e0fff317 	ldw	r3,-52(fp)
 20035c4:	e0bff417 	ldw	r2,-48(fp)
 20035c8:	18bfcd36 	bltu	r3,r2,2003500 <__alt_mem_pic_mem+0xfdfff500>
    vid_round_corner_points( horiz_start + radius, vert_start + radius, x, y, 
                             straight_width, straight_height, color, fill, display);
  }

  // If we want to fill in our box
  if (fill) {
 20035cc:	e0800417 	ldw	r2,16(fp)
 20035d0:	10000f26 	beq	r2,zero,2003610 <vid_draw_round_corner_box+0x284>
     vid_paint_block (horiz_start, vert_start + radius, horiz_end, vert_end - radius, color, display);
 20035d4:	e0fffd17 	ldw	r3,-12(fp)
 20035d8:	e0800217 	ldw	r2,8(fp)
 20035dc:	188b883a 	add	r5,r3,r2
 20035e0:	e0ffff17 	ldw	r3,-4(fp)
 20035e4:	e0800217 	ldw	r2,8(fp)
 20035e8:	1887c83a 	sub	r3,r3,r2
 20035ec:	e0800317 	ldw	r2,12(fp)
 20035f0:	d8800015 	stw	r2,0(sp)
 20035f4:	e0800517 	ldw	r2,20(fp)
 20035f8:	d8800115 	stw	r2,4(sp)
 20035fc:	e13ffc17 	ldw	r4,-16(fp)
 2003600:	e1bffe17 	ldw	r6,-8(fp)
 2003604:	180f883a 	mov	r7,r3
 2003608:	2002d400 	call	2002d40 <vid_paint_block>
 200360c:	00004006 	br	2003710 <vid_draw_round_corner_box+0x384>
  // If we're not filling in the box, just draw four lines.
  } else {
    vid_draw_line(horiz_start, vert_start + radius, horiz_start, vert_end - radius , 1, color, display); //left
 2003610:	e0fffd17 	ldw	r3,-12(fp)
 2003614:	e0800217 	ldw	r2,8(fp)
 2003618:	188b883a 	add	r5,r3,r2
 200361c:	e0ffff17 	ldw	r3,-4(fp)
 2003620:	e0800217 	ldw	r2,8(fp)
 2003624:	1887c83a 	sub	r3,r3,r2
 2003628:	00800044 	movi	r2,1
 200362c:	d8800015 	stw	r2,0(sp)
 2003630:	e0800317 	ldw	r2,12(fp)
 2003634:	d8800115 	stw	r2,4(sp)
 2003638:	e0800517 	ldw	r2,20(fp)
 200363c:	d8800215 	stw	r2,8(sp)
 2003640:	e13ffc17 	ldw	r4,-16(fp)
 2003644:	e1bffc17 	ldw	r6,-16(fp)
 2003648:	180f883a 	mov	r7,r3
 200364c:	20022400 	call	2002240 <vid_draw_line>
    vid_draw_line(horiz_end, vert_start + radius, horiz_end, vert_end - radius , 1, color, display); //right
 2003650:	e0fffd17 	ldw	r3,-12(fp)
 2003654:	e0800217 	ldw	r2,8(fp)
 2003658:	188b883a 	add	r5,r3,r2
 200365c:	e0ffff17 	ldw	r3,-4(fp)
 2003660:	e0800217 	ldw	r2,8(fp)
 2003664:	1887c83a 	sub	r3,r3,r2
 2003668:	00800044 	movi	r2,1
 200366c:	d8800015 	stw	r2,0(sp)
 2003670:	e0800317 	ldw	r2,12(fp)
 2003674:	d8800115 	stw	r2,4(sp)
 2003678:	e0800517 	ldw	r2,20(fp)
 200367c:	d8800215 	stw	r2,8(sp)
 2003680:	e13ffe17 	ldw	r4,-8(fp)
 2003684:	e1bffe17 	ldw	r6,-8(fp)
 2003688:	180f883a 	mov	r7,r3
 200368c:	20022400 	call	2002240 <vid_draw_line>
    vid_draw_line(horiz_start + radius, vert_start, horiz_end - radius , vert_start, 1, color, display); //top
 2003690:	e0fffc17 	ldw	r3,-16(fp)
 2003694:	e0800217 	ldw	r2,8(fp)
 2003698:	1889883a 	add	r4,r3,r2
 200369c:	e0fffe17 	ldw	r3,-8(fp)
 20036a0:	e0800217 	ldw	r2,8(fp)
 20036a4:	1887c83a 	sub	r3,r3,r2
 20036a8:	00800044 	movi	r2,1
 20036ac:	d8800015 	stw	r2,0(sp)
 20036b0:	e0800317 	ldw	r2,12(fp)
 20036b4:	d8800115 	stw	r2,4(sp)
 20036b8:	e0800517 	ldw	r2,20(fp)
 20036bc:	d8800215 	stw	r2,8(sp)
 20036c0:	e17ffd17 	ldw	r5,-12(fp)
 20036c4:	180d883a 	mov	r6,r3
 20036c8:	e1fffd17 	ldw	r7,-12(fp)
 20036cc:	20022400 	call	2002240 <vid_draw_line>
    vid_draw_line(horiz_start + radius, vert_end, horiz_end - radius , vert_end, 1, color, display); //bottom
 20036d0:	e0fffc17 	ldw	r3,-16(fp)
 20036d4:	e0800217 	ldw	r2,8(fp)
 20036d8:	1889883a 	add	r4,r3,r2
 20036dc:	e0fffe17 	ldw	r3,-8(fp)
 20036e0:	e0800217 	ldw	r2,8(fp)
 20036e4:	1887c83a 	sub	r3,r3,r2
 20036e8:	00800044 	movi	r2,1
 20036ec:	d8800015 	stw	r2,0(sp)
 20036f0:	e0800317 	ldw	r2,12(fp)
 20036f4:	d8800115 	stw	r2,4(sp)
 20036f8:	e0800517 	ldw	r2,20(fp)
 20036fc:	d8800215 	stw	r2,8(sp)
 2003700:	e17fff17 	ldw	r5,-4(fp)
 2003704:	180d883a 	mov	r6,r3
 2003708:	e1ffff17 	ldw	r7,-4(fp)
 200370c:	20022400 	call	2002240 <vid_draw_line>
  }

  return (0);
 2003710:	0005883a 	mov	r2,zero
}
 2003714:	e037883a 	mov	sp,fp
 2003718:	dfc00117 	ldw	ra,4(sp)
 200371c:	df000017 	ldw	fp,0(sp)
 2003720:	dec00204 	addi	sp,sp,8
 2003724:	f800283a 	ret

02003728 <vid_round_corner_points>:
******************************************************************/

void vid_round_corner_points( int cx, int cy, int x, int y, 
                              int straight_width, int straight_height, int color, 
                              char fill, alt_video_display* display)
{
 2003728:	defff604 	addi	sp,sp,-40
 200372c:	dfc00915 	stw	ra,36(sp)
 2003730:	df000815 	stw	fp,32(sp)
 2003734:	df000804 	addi	fp,sp,32
 2003738:	e13ffb15 	stw	r4,-20(fp)
 200373c:	e17ffc15 	stw	r5,-16(fp)
 2003740:	e1bffd15 	stw	r6,-12(fp)
 2003744:	e1fffe15 	stw	r7,-8(fp)
 2003748:	e0800517 	ldw	r2,20(fp)
 200374c:	e0bfff05 	stb	r2,-4(fp)

    // If we're directly above, below, left and right of center (0 degrees), plot those 4 pixels
    if (x == 0) {
 2003750:	e0bffd17 	ldw	r2,-12(fp)
 2003754:	1000841e 	bne	r2,zero,2003968 <vid_round_corner_points+0x240>
        // bottom
        vid_set_pixel(cx, cy + y + straight_height, color, display);
 2003758:	e0fffc17 	ldw	r3,-16(fp)
 200375c:	e0bffe17 	ldw	r2,-8(fp)
 2003760:	1887883a 	add	r3,r3,r2
 2003764:	e0800317 	ldw	r2,12(fp)
 2003768:	1887883a 	add	r3,r3,r2
 200376c:	e0800417 	ldw	r2,16(fp)
 2003770:	e13ffb17 	ldw	r4,-20(fp)
 2003774:	180b883a 	mov	r5,r3
 2003778:	100d883a 	mov	r6,r2
 200377c:	e1c00617 	ldw	r7,24(fp)
 2003780:	2002c640 	call	2002c64 <vid_set_pixel>
        vid_set_pixel(cx + straight_width, cy + y + straight_height, color, display);
 2003784:	e0fffb17 	ldw	r3,-20(fp)
 2003788:	e0800217 	ldw	r2,8(fp)
 200378c:	1889883a 	add	r4,r3,r2
 2003790:	e0fffc17 	ldw	r3,-16(fp)
 2003794:	e0bffe17 	ldw	r2,-8(fp)
 2003798:	1887883a 	add	r3,r3,r2
 200379c:	e0800317 	ldw	r2,12(fp)
 20037a0:	1887883a 	add	r3,r3,r2
 20037a4:	e0800417 	ldw	r2,16(fp)
 20037a8:	180b883a 	mov	r5,r3
 20037ac:	100d883a 	mov	r6,r2
 20037b0:	e1c00617 	ldw	r7,24(fp)
 20037b4:	2002c640 	call	2002c64 <vid_set_pixel>
        // top
        vid_set_pixel(cx, cy - y, color, display);
 20037b8:	e0fffc17 	ldw	r3,-16(fp)
 20037bc:	e0bffe17 	ldw	r2,-8(fp)
 20037c0:	1887c83a 	sub	r3,r3,r2
 20037c4:	e0800417 	ldw	r2,16(fp)
 20037c8:	e13ffb17 	ldw	r4,-20(fp)
 20037cc:	180b883a 	mov	r5,r3
 20037d0:	100d883a 	mov	r6,r2
 20037d4:	e1c00617 	ldw	r7,24(fp)
 20037d8:	2002c640 	call	2002c64 <vid_set_pixel>
        vid_set_pixel(cx + straight_width, cy - y, color, display);
 20037dc:	e0fffb17 	ldw	r3,-20(fp)
 20037e0:	e0800217 	ldw	r2,8(fp)
 20037e4:	1889883a 	add	r4,r3,r2
 20037e8:	e0fffc17 	ldw	r3,-16(fp)
 20037ec:	e0bffe17 	ldw	r2,-8(fp)
 20037f0:	1887c83a 	sub	r3,r3,r2
 20037f4:	e0800417 	ldw	r2,16(fp)
 20037f8:	180b883a 	mov	r5,r3
 20037fc:	100d883a 	mov	r6,r2
 2003800:	e1c00617 	ldw	r7,24(fp)
 2003804:	2002c640 	call	2002c64 <vid_set_pixel>

        if(fill) {
 2003808:	e0bfff07 	ldb	r2,-4(fp)
 200380c:	10002926 	beq	r2,zero,20038b4 <vid_round_corner_points+0x18c>
          vid_draw_line(cx - y, cy, cx + y + straight_width, cy, 1, color, display);
 2003810:	e0fffb17 	ldw	r3,-20(fp)
 2003814:	e0bffe17 	ldw	r2,-8(fp)
 2003818:	1889c83a 	sub	r4,r3,r2
 200381c:	e0fffb17 	ldw	r3,-20(fp)
 2003820:	e0bffe17 	ldw	r2,-8(fp)
 2003824:	1887883a 	add	r3,r3,r2
 2003828:	e0800217 	ldw	r2,8(fp)
 200382c:	1887883a 	add	r3,r3,r2
 2003830:	00800044 	movi	r2,1
 2003834:	d8800015 	stw	r2,0(sp)
 2003838:	e0800417 	ldw	r2,16(fp)
 200383c:	d8800115 	stw	r2,4(sp)
 2003840:	e0800617 	ldw	r2,24(fp)
 2003844:	d8800215 	stw	r2,8(sp)
 2003848:	e17ffc17 	ldw	r5,-16(fp)
 200384c:	180d883a 	mov	r6,r3
 2003850:	e1fffc17 	ldw	r7,-16(fp)
 2003854:	20022400 	call	2002240 <vid_draw_line>
          vid_draw_line(cx - y, cy + straight_height, cx + y + straight_width, cy + straight_height, 1, color, display);
 2003858:	e0fffb17 	ldw	r3,-20(fp)
 200385c:	e0bffe17 	ldw	r2,-8(fp)
 2003860:	1889c83a 	sub	r4,r3,r2
 2003864:	e0fffc17 	ldw	r3,-16(fp)
 2003868:	e0800317 	ldw	r2,12(fp)
 200386c:	188b883a 	add	r5,r3,r2
 2003870:	e0fffb17 	ldw	r3,-20(fp)
 2003874:	e0bffe17 	ldw	r2,-8(fp)
 2003878:	1887883a 	add	r3,r3,r2
 200387c:	e0800217 	ldw	r2,8(fp)
 2003880:	188d883a 	add	r6,r3,r2
 2003884:	e0fffc17 	ldw	r3,-16(fp)
 2003888:	e0800317 	ldw	r2,12(fp)
 200388c:	1887883a 	add	r3,r3,r2
 2003890:	00800044 	movi	r2,1
 2003894:	d8800015 	stw	r2,0(sp)
 2003898:	e0800417 	ldw	r2,16(fp)
 200389c:	d8800115 	stw	r2,4(sp)
 20038a0:	e0800617 	ldw	r2,24(fp)
 20038a4:	d8800215 	stw	r2,8(sp)
 20038a8:	180f883a 	mov	r7,r3
 20038ac:	20022400 	call	2002240 <vid_draw_line>
 20038b0:	00016606 	br	2003e4c <vid_round_corner_points+0x724>
        } else {
          //right
          vid_set_pixel(cx + y + straight_width, cy, color, display);
 20038b4:	e0fffb17 	ldw	r3,-20(fp)
 20038b8:	e0bffe17 	ldw	r2,-8(fp)
 20038bc:	1887883a 	add	r3,r3,r2
 20038c0:	e0800217 	ldw	r2,8(fp)
 20038c4:	1887883a 	add	r3,r3,r2
 20038c8:	e0800417 	ldw	r2,16(fp)
 20038cc:	1809883a 	mov	r4,r3
 20038d0:	e17ffc17 	ldw	r5,-16(fp)
 20038d4:	100d883a 	mov	r6,r2
 20038d8:	e1c00617 	ldw	r7,24(fp)
 20038dc:	2002c640 	call	2002c64 <vid_set_pixel>
          vid_set_pixel(cx + y + straight_width, cy + straight_height, color, display);
 20038e0:	e0fffb17 	ldw	r3,-20(fp)
 20038e4:	e0bffe17 	ldw	r2,-8(fp)
 20038e8:	1887883a 	add	r3,r3,r2
 20038ec:	e0800217 	ldw	r2,8(fp)
 20038f0:	1889883a 	add	r4,r3,r2
 20038f4:	e0fffc17 	ldw	r3,-16(fp)
 20038f8:	e0800317 	ldw	r2,12(fp)
 20038fc:	1887883a 	add	r3,r3,r2
 2003900:	e0800417 	ldw	r2,16(fp)
 2003904:	180b883a 	mov	r5,r3
 2003908:	100d883a 	mov	r6,r2
 200390c:	e1c00617 	ldw	r7,24(fp)
 2003910:	2002c640 	call	2002c64 <vid_set_pixel>
          //left
          vid_set_pixel(cx - y, cy, color, display);
 2003914:	e0fffb17 	ldw	r3,-20(fp)
 2003918:	e0bffe17 	ldw	r2,-8(fp)
 200391c:	1887c83a 	sub	r3,r3,r2
 2003920:	e0800417 	ldw	r2,16(fp)
 2003924:	1809883a 	mov	r4,r3
 2003928:	e17ffc17 	ldw	r5,-16(fp)
 200392c:	100d883a 	mov	r6,r2
 2003930:	e1c00617 	ldw	r7,24(fp)
 2003934:	2002c640 	call	2002c64 <vid_set_pixel>
          vid_set_pixel(cx - y, cy + straight_height, color, display);
 2003938:	e0fffb17 	ldw	r3,-20(fp)
 200393c:	e0bffe17 	ldw	r2,-8(fp)
 2003940:	1889c83a 	sub	r4,r3,r2
 2003944:	e0fffc17 	ldw	r3,-16(fp)
 2003948:	e0800317 	ldw	r2,12(fp)
 200394c:	1887883a 	add	r3,r3,r2
 2003950:	e0800417 	ldw	r2,16(fp)
 2003954:	180b883a 	mov	r5,r3
 2003958:	100d883a 	mov	r6,r2
 200395c:	e1c00617 	ldw	r7,24(fp)
 2003960:	2002c640 	call	2002c64 <vid_set_pixel>
 2003964:	00013906 	br	2003e4c <vid_round_corner_points+0x724>
        }

    } else
    // If we've reached the 45 degree points (x=y), plot those 4 pixels
    if (x == y) {
 2003968:	e0fffd17 	ldw	r3,-12(fp)
 200396c:	e0bffe17 	ldw	r2,-8(fp)
 2003970:	1880681e 	bne	r3,r2,2003b14 <vid_round_corner_points+0x3ec>
      if(fill) {
 2003974:	e0bfff07 	ldb	r2,-4(fp)
 2003978:	10003126 	beq	r2,zero,2003a40 <vid_round_corner_points+0x318>
        vid_draw_line(cx - x, cy + y + straight_height, cx + x + straight_width, cy + y + straight_height, 1, color, display); // lower
 200397c:	e0fffb17 	ldw	r3,-20(fp)
 2003980:	e0bffd17 	ldw	r2,-12(fp)
 2003984:	1889c83a 	sub	r4,r3,r2
 2003988:	e0fffc17 	ldw	r3,-16(fp)
 200398c:	e0bffe17 	ldw	r2,-8(fp)
 2003990:	1887883a 	add	r3,r3,r2
 2003994:	e0800317 	ldw	r2,12(fp)
 2003998:	188b883a 	add	r5,r3,r2
 200399c:	e0fffb17 	ldw	r3,-20(fp)
 20039a0:	e0bffd17 	ldw	r2,-12(fp)
 20039a4:	1887883a 	add	r3,r3,r2
 20039a8:	e0800217 	ldw	r2,8(fp)
 20039ac:	188d883a 	add	r6,r3,r2
 20039b0:	e0fffc17 	ldw	r3,-16(fp)
 20039b4:	e0bffe17 	ldw	r2,-8(fp)
 20039b8:	1887883a 	add	r3,r3,r2
 20039bc:	e0800317 	ldw	r2,12(fp)
 20039c0:	1887883a 	add	r3,r3,r2
 20039c4:	00800044 	movi	r2,1
 20039c8:	d8800015 	stw	r2,0(sp)
 20039cc:	e0800417 	ldw	r2,16(fp)
 20039d0:	d8800115 	stw	r2,4(sp)
 20039d4:	e0800617 	ldw	r2,24(fp)
 20039d8:	d8800215 	stw	r2,8(sp)
 20039dc:	180f883a 	mov	r7,r3
 20039e0:	20022400 	call	2002240 <vid_draw_line>
        vid_draw_line(cx - x, cy - y, cx + x + straight_width, cy - y, 1, color, display); // upper
 20039e4:	e0fffb17 	ldw	r3,-20(fp)
 20039e8:	e0bffd17 	ldw	r2,-12(fp)
 20039ec:	1889c83a 	sub	r4,r3,r2
 20039f0:	e0fffc17 	ldw	r3,-16(fp)
 20039f4:	e0bffe17 	ldw	r2,-8(fp)
 20039f8:	188bc83a 	sub	r5,r3,r2
 20039fc:	e0fffb17 	ldw	r3,-20(fp)
 2003a00:	e0bffd17 	ldw	r2,-12(fp)
 2003a04:	1887883a 	add	r3,r3,r2
 2003a08:	e0800217 	ldw	r2,8(fp)
 2003a0c:	188d883a 	add	r6,r3,r2
 2003a10:	e0fffc17 	ldw	r3,-16(fp)
 2003a14:	e0bffe17 	ldw	r2,-8(fp)
 2003a18:	1887c83a 	sub	r3,r3,r2
 2003a1c:	00800044 	movi	r2,1
 2003a20:	d8800015 	stw	r2,0(sp)
 2003a24:	e0800417 	ldw	r2,16(fp)
 2003a28:	d8800115 	stw	r2,4(sp)
 2003a2c:	e0800617 	ldw	r2,24(fp)
 2003a30:	d8800215 	stw	r2,8(sp)
 2003a34:	180f883a 	mov	r7,r3
 2003a38:	20022400 	call	2002240 <vid_draw_line>
 2003a3c:	00010306 	br	2003e4c <vid_round_corner_points+0x724>
        
      } else {
        vid_set_pixel(cx + x + straight_width, cy + y + straight_height, color, display); // bottom right
 2003a40:	e0fffb17 	ldw	r3,-20(fp)
 2003a44:	e0bffd17 	ldw	r2,-12(fp)
 2003a48:	1887883a 	add	r3,r3,r2
 2003a4c:	e0800217 	ldw	r2,8(fp)
 2003a50:	1889883a 	add	r4,r3,r2
 2003a54:	e0fffc17 	ldw	r3,-16(fp)
 2003a58:	e0bffe17 	ldw	r2,-8(fp)
 2003a5c:	1887883a 	add	r3,r3,r2
 2003a60:	e0800317 	ldw	r2,12(fp)
 2003a64:	1887883a 	add	r3,r3,r2
 2003a68:	e0800417 	ldw	r2,16(fp)
 2003a6c:	180b883a 	mov	r5,r3
 2003a70:	100d883a 	mov	r6,r2
 2003a74:	e1c00617 	ldw	r7,24(fp)
 2003a78:	2002c640 	call	2002c64 <vid_set_pixel>
        vid_set_pixel(cx - x, cy + y + straight_height, color, display); // bottom left
 2003a7c:	e0fffb17 	ldw	r3,-20(fp)
 2003a80:	e0bffd17 	ldw	r2,-12(fp)
 2003a84:	1889c83a 	sub	r4,r3,r2
 2003a88:	e0fffc17 	ldw	r3,-16(fp)
 2003a8c:	e0bffe17 	ldw	r2,-8(fp)
 2003a90:	1887883a 	add	r3,r3,r2
 2003a94:	e0800317 	ldw	r2,12(fp)
 2003a98:	1887883a 	add	r3,r3,r2
 2003a9c:	e0800417 	ldw	r2,16(fp)
 2003aa0:	180b883a 	mov	r5,r3
 2003aa4:	100d883a 	mov	r6,r2
 2003aa8:	e1c00617 	ldw	r7,24(fp)
 2003aac:	2002c640 	call	2002c64 <vid_set_pixel>
        vid_set_pixel(cx + x + straight_width, cy - y, color, display); // top right
 2003ab0:	e0fffb17 	ldw	r3,-20(fp)
 2003ab4:	e0bffd17 	ldw	r2,-12(fp)
 2003ab8:	1887883a 	add	r3,r3,r2
 2003abc:	e0800217 	ldw	r2,8(fp)
 2003ac0:	1889883a 	add	r4,r3,r2
 2003ac4:	e0fffc17 	ldw	r3,-16(fp)
 2003ac8:	e0bffe17 	ldw	r2,-8(fp)
 2003acc:	1887c83a 	sub	r3,r3,r2
 2003ad0:	e0800417 	ldw	r2,16(fp)
 2003ad4:	180b883a 	mov	r5,r3
 2003ad8:	100d883a 	mov	r6,r2
 2003adc:	e1c00617 	ldw	r7,24(fp)
 2003ae0:	2002c640 	call	2002c64 <vid_set_pixel>
        vid_set_pixel(cx - x, cy - y, color, display); // top left
 2003ae4:	e0fffb17 	ldw	r3,-20(fp)
 2003ae8:	e0bffd17 	ldw	r2,-12(fp)
 2003aec:	1889c83a 	sub	r4,r3,r2
 2003af0:	e0fffc17 	ldw	r3,-16(fp)
 2003af4:	e0bffe17 	ldw	r2,-8(fp)
 2003af8:	1887c83a 	sub	r3,r3,r2
 2003afc:	e0800417 	ldw	r2,16(fp)
 2003b00:	180b883a 	mov	r5,r3
 2003b04:	100d883a 	mov	r6,r2
 2003b08:	e1c00617 	ldw	r7,24(fp)
 2003b0c:	2002c640 	call	2002c64 <vid_set_pixel>
 2003b10:	0000ce06 	br	2003e4c <vid_round_corner_points+0x724>
      }
    } else
    // If we're between 0 and 45 degrees plot 8 pixels.
    if (x < y) {
 2003b14:	e0fffd17 	ldw	r3,-12(fp)
 2003b18:	e0bffe17 	ldw	r2,-8(fp)
 2003b1c:	1880cb0e 	bge	r3,r2,2003e4c <vid_round_corner_points+0x724>
        if(fill) {
 2003b20:	e0bfff07 	ldb	r2,-4(fp)
 2003b24:	10006126 	beq	r2,zero,2003cac <vid_round_corner_points+0x584>
          vid_draw_line(cx - x, cy + y + straight_height, cx + x + straight_width, cy + y + straight_height, 1, color, display);
 2003b28:	e0fffb17 	ldw	r3,-20(fp)
 2003b2c:	e0bffd17 	ldw	r2,-12(fp)
 2003b30:	1889c83a 	sub	r4,r3,r2
 2003b34:	e0fffc17 	ldw	r3,-16(fp)
 2003b38:	e0bffe17 	ldw	r2,-8(fp)
 2003b3c:	1887883a 	add	r3,r3,r2
 2003b40:	e0800317 	ldw	r2,12(fp)
 2003b44:	188b883a 	add	r5,r3,r2
 2003b48:	e0fffb17 	ldw	r3,-20(fp)
 2003b4c:	e0bffd17 	ldw	r2,-12(fp)
 2003b50:	1887883a 	add	r3,r3,r2
 2003b54:	e0800217 	ldw	r2,8(fp)
 2003b58:	188d883a 	add	r6,r3,r2
 2003b5c:	e0fffc17 	ldw	r3,-16(fp)
 2003b60:	e0bffe17 	ldw	r2,-8(fp)
 2003b64:	1887883a 	add	r3,r3,r2
 2003b68:	e0800317 	ldw	r2,12(fp)
 2003b6c:	1887883a 	add	r3,r3,r2
 2003b70:	00800044 	movi	r2,1
 2003b74:	d8800015 	stw	r2,0(sp)
 2003b78:	e0800417 	ldw	r2,16(fp)
 2003b7c:	d8800115 	stw	r2,4(sp)
 2003b80:	e0800617 	ldw	r2,24(fp)
 2003b84:	d8800215 	stw	r2,8(sp)
 2003b88:	180f883a 	mov	r7,r3
 2003b8c:	20022400 	call	2002240 <vid_draw_line>
          vid_draw_line(cx - y, cy + x + straight_height, cx + y + straight_width, cy + x + straight_height, 1, color, display);
 2003b90:	e0fffb17 	ldw	r3,-20(fp)
 2003b94:	e0bffe17 	ldw	r2,-8(fp)
 2003b98:	1889c83a 	sub	r4,r3,r2
 2003b9c:	e0fffc17 	ldw	r3,-16(fp)
 2003ba0:	e0bffd17 	ldw	r2,-12(fp)
 2003ba4:	1887883a 	add	r3,r3,r2
 2003ba8:	e0800317 	ldw	r2,12(fp)
 2003bac:	188b883a 	add	r5,r3,r2
 2003bb0:	e0fffb17 	ldw	r3,-20(fp)
 2003bb4:	e0bffe17 	ldw	r2,-8(fp)
 2003bb8:	1887883a 	add	r3,r3,r2
 2003bbc:	e0800217 	ldw	r2,8(fp)
 2003bc0:	188d883a 	add	r6,r3,r2
 2003bc4:	e0fffc17 	ldw	r3,-16(fp)
 2003bc8:	e0bffd17 	ldw	r2,-12(fp)
 2003bcc:	1887883a 	add	r3,r3,r2
 2003bd0:	e0800317 	ldw	r2,12(fp)
 2003bd4:	1887883a 	add	r3,r3,r2
 2003bd8:	00800044 	movi	r2,1
 2003bdc:	d8800015 	stw	r2,0(sp)
 2003be0:	e0800417 	ldw	r2,16(fp)
 2003be4:	d8800115 	stw	r2,4(sp)
 2003be8:	e0800617 	ldw	r2,24(fp)
 2003bec:	d8800215 	stw	r2,8(sp)
 2003bf0:	180f883a 	mov	r7,r3
 2003bf4:	20022400 	call	2002240 <vid_draw_line>
          vid_draw_line(cx - y, cy - x, cx + y + straight_width, cy - x, 1, color, display);
 2003bf8:	e0fffb17 	ldw	r3,-20(fp)
 2003bfc:	e0bffe17 	ldw	r2,-8(fp)
 2003c00:	1889c83a 	sub	r4,r3,r2
 2003c04:	e0fffc17 	ldw	r3,-16(fp)
 2003c08:	e0bffd17 	ldw	r2,-12(fp)
 2003c0c:	188bc83a 	sub	r5,r3,r2
 2003c10:	e0fffb17 	ldw	r3,-20(fp)
 2003c14:	e0bffe17 	ldw	r2,-8(fp)
 2003c18:	1887883a 	add	r3,r3,r2
 2003c1c:	e0800217 	ldw	r2,8(fp)
 2003c20:	188d883a 	add	r6,r3,r2
 2003c24:	e0fffc17 	ldw	r3,-16(fp)
 2003c28:	e0bffd17 	ldw	r2,-12(fp)
 2003c2c:	1887c83a 	sub	r3,r3,r2
 2003c30:	00800044 	movi	r2,1
 2003c34:	d8800015 	stw	r2,0(sp)
 2003c38:	e0800417 	ldw	r2,16(fp)
 2003c3c:	d8800115 	stw	r2,4(sp)
 2003c40:	e0800617 	ldw	r2,24(fp)
 2003c44:	d8800215 	stw	r2,8(sp)
 2003c48:	180f883a 	mov	r7,r3
 2003c4c:	20022400 	call	2002240 <vid_draw_line>
          vid_draw_line(cx - x, cy - y, cx + x + straight_width, cy - y, 1, color, display);
 2003c50:	e0fffb17 	ldw	r3,-20(fp)
 2003c54:	e0bffd17 	ldw	r2,-12(fp)
 2003c58:	1889c83a 	sub	r4,r3,r2
 2003c5c:	e0fffc17 	ldw	r3,-16(fp)
 2003c60:	e0bffe17 	ldw	r2,-8(fp)
 2003c64:	188bc83a 	sub	r5,r3,r2
 2003c68:	e0fffb17 	ldw	r3,-20(fp)
 2003c6c:	e0bffd17 	ldw	r2,-12(fp)
 2003c70:	1887883a 	add	r3,r3,r2
 2003c74:	e0800217 	ldw	r2,8(fp)
 2003c78:	188d883a 	add	r6,r3,r2
 2003c7c:	e0fffc17 	ldw	r3,-16(fp)
 2003c80:	e0bffe17 	ldw	r2,-8(fp)
 2003c84:	1887c83a 	sub	r3,r3,r2
 2003c88:	00800044 	movi	r2,1
 2003c8c:	d8800015 	stw	r2,0(sp)
 2003c90:	e0800417 	ldw	r2,16(fp)
 2003c94:	d8800115 	stw	r2,4(sp)
 2003c98:	e0800617 	ldw	r2,24(fp)
 2003c9c:	d8800215 	stw	r2,8(sp)
 2003ca0:	180f883a 	mov	r7,r3
 2003ca4:	20022400 	call	2002240 <vid_draw_line>
 2003ca8:	00006806 	br	2003e4c <vid_round_corner_points+0x724>
        } else {
          vid_set_pixel(cx + x + straight_width, cy + y + straight_height, color, display);
 2003cac:	e0fffb17 	ldw	r3,-20(fp)
 2003cb0:	e0bffd17 	ldw	r2,-12(fp)
 2003cb4:	1887883a 	add	r3,r3,r2
 2003cb8:	e0800217 	ldw	r2,8(fp)
 2003cbc:	1889883a 	add	r4,r3,r2
 2003cc0:	e0fffc17 	ldw	r3,-16(fp)
 2003cc4:	e0bffe17 	ldw	r2,-8(fp)
 2003cc8:	1887883a 	add	r3,r3,r2
 2003ccc:	e0800317 	ldw	r2,12(fp)
 2003cd0:	1887883a 	add	r3,r3,r2
 2003cd4:	e0800417 	ldw	r2,16(fp)
 2003cd8:	180b883a 	mov	r5,r3
 2003cdc:	100d883a 	mov	r6,r2
 2003ce0:	e1c00617 	ldw	r7,24(fp)
 2003ce4:	2002c640 	call	2002c64 <vid_set_pixel>
          vid_set_pixel(cx - x, cy + y + straight_height, color, display);
 2003ce8:	e0fffb17 	ldw	r3,-20(fp)
 2003cec:	e0bffd17 	ldw	r2,-12(fp)
 2003cf0:	1889c83a 	sub	r4,r3,r2
 2003cf4:	e0fffc17 	ldw	r3,-16(fp)
 2003cf8:	e0bffe17 	ldw	r2,-8(fp)
 2003cfc:	1887883a 	add	r3,r3,r2
 2003d00:	e0800317 	ldw	r2,12(fp)
 2003d04:	1887883a 	add	r3,r3,r2
 2003d08:	e0800417 	ldw	r2,16(fp)
 2003d0c:	180b883a 	mov	r5,r3
 2003d10:	100d883a 	mov	r6,r2
 2003d14:	e1c00617 	ldw	r7,24(fp)
 2003d18:	2002c640 	call	2002c64 <vid_set_pixel>
          vid_set_pixel(cx + x + straight_width, cy - y, color, display);
 2003d1c:	e0fffb17 	ldw	r3,-20(fp)
 2003d20:	e0bffd17 	ldw	r2,-12(fp)
 2003d24:	1887883a 	add	r3,r3,r2
 2003d28:	e0800217 	ldw	r2,8(fp)
 2003d2c:	1889883a 	add	r4,r3,r2
 2003d30:	e0fffc17 	ldw	r3,-16(fp)
 2003d34:	e0bffe17 	ldw	r2,-8(fp)
 2003d38:	1887c83a 	sub	r3,r3,r2
 2003d3c:	e0800417 	ldw	r2,16(fp)
 2003d40:	180b883a 	mov	r5,r3
 2003d44:	100d883a 	mov	r6,r2
 2003d48:	e1c00617 	ldw	r7,24(fp)
 2003d4c:	2002c640 	call	2002c64 <vid_set_pixel>
          vid_set_pixel(cx - x, cy - y, color, display);
 2003d50:	e0fffb17 	ldw	r3,-20(fp)
 2003d54:	e0bffd17 	ldw	r2,-12(fp)
 2003d58:	1889c83a 	sub	r4,r3,r2
 2003d5c:	e0fffc17 	ldw	r3,-16(fp)
 2003d60:	e0bffe17 	ldw	r2,-8(fp)
 2003d64:	1887c83a 	sub	r3,r3,r2
 2003d68:	e0800417 	ldw	r2,16(fp)
 2003d6c:	180b883a 	mov	r5,r3
 2003d70:	100d883a 	mov	r6,r2
 2003d74:	e1c00617 	ldw	r7,24(fp)
 2003d78:	2002c640 	call	2002c64 <vid_set_pixel>
          vid_set_pixel(cx + y + straight_width, cy + x + straight_height, color, display);
 2003d7c:	e0fffb17 	ldw	r3,-20(fp)
 2003d80:	e0bffe17 	ldw	r2,-8(fp)
 2003d84:	1887883a 	add	r3,r3,r2
 2003d88:	e0800217 	ldw	r2,8(fp)
 2003d8c:	1889883a 	add	r4,r3,r2
 2003d90:	e0fffc17 	ldw	r3,-16(fp)
 2003d94:	e0bffd17 	ldw	r2,-12(fp)
 2003d98:	1887883a 	add	r3,r3,r2
 2003d9c:	e0800317 	ldw	r2,12(fp)
 2003da0:	1887883a 	add	r3,r3,r2
 2003da4:	e0800417 	ldw	r2,16(fp)
 2003da8:	180b883a 	mov	r5,r3
 2003dac:	100d883a 	mov	r6,r2
 2003db0:	e1c00617 	ldw	r7,24(fp)
 2003db4:	2002c640 	call	2002c64 <vid_set_pixel>
          vid_set_pixel(cx - y, cy + x + straight_height, color, display);
 2003db8:	e0fffb17 	ldw	r3,-20(fp)
 2003dbc:	e0bffe17 	ldw	r2,-8(fp)
 2003dc0:	1889c83a 	sub	r4,r3,r2
 2003dc4:	e0fffc17 	ldw	r3,-16(fp)
 2003dc8:	e0bffd17 	ldw	r2,-12(fp)
 2003dcc:	1887883a 	add	r3,r3,r2
 2003dd0:	e0800317 	ldw	r2,12(fp)
 2003dd4:	1887883a 	add	r3,r3,r2
 2003dd8:	e0800417 	ldw	r2,16(fp)
 2003ddc:	180b883a 	mov	r5,r3
 2003de0:	100d883a 	mov	r6,r2
 2003de4:	e1c00617 	ldw	r7,24(fp)
 2003de8:	2002c640 	call	2002c64 <vid_set_pixel>
          vid_set_pixel(cx + y + straight_width, cy - x, color, display);
 2003dec:	e0fffb17 	ldw	r3,-20(fp)
 2003df0:	e0bffe17 	ldw	r2,-8(fp)
 2003df4:	1887883a 	add	r3,r3,r2
 2003df8:	e0800217 	ldw	r2,8(fp)
 2003dfc:	1889883a 	add	r4,r3,r2
 2003e00:	e0fffc17 	ldw	r3,-16(fp)
 2003e04:	e0bffd17 	ldw	r2,-12(fp)
 2003e08:	1887c83a 	sub	r3,r3,r2
 2003e0c:	e0800417 	ldw	r2,16(fp)
 2003e10:	180b883a 	mov	r5,r3
 2003e14:	100d883a 	mov	r6,r2
 2003e18:	e1c00617 	ldw	r7,24(fp)
 2003e1c:	2002c640 	call	2002c64 <vid_set_pixel>
          vid_set_pixel(cx - y, cy - x, color, display);
 2003e20:	e0fffb17 	ldw	r3,-20(fp)
 2003e24:	e0bffe17 	ldw	r2,-8(fp)
 2003e28:	1889c83a 	sub	r4,r3,r2
 2003e2c:	e0fffc17 	ldw	r3,-16(fp)
 2003e30:	e0bffd17 	ldw	r2,-12(fp)
 2003e34:	1887c83a 	sub	r3,r3,r2
 2003e38:	e0800417 	ldw	r2,16(fp)
 2003e3c:	180b883a 	mov	r5,r3
 2003e40:	100d883a 	mov	r6,r2
 2003e44:	e1c00617 	ldw	r7,24(fp)
 2003e48:	2002c640 	call	2002c64 <vid_set_pixel>
        }
    }
}
 2003e4c:	e037883a 	mov	sp,fp
 2003e50:	dfc00117 	ldw	ra,4(sp)
 2003e54:	df000017 	ldw	fp,0(sp)
 2003e58:	dec00204 	addi	sp,sp,8
 2003e5c:	f800283a 	ret

02003e60 <max3>:
*  Purpose:  Returns the minimum value of 3 parameters
*            Used for drawing filled shapes
*
******************************************************************/
__inline__ int max3( int a, int b, int c )
{
 2003e60:	defffc04 	addi	sp,sp,-16
 2003e64:	df000315 	stw	fp,12(sp)
 2003e68:	df000304 	addi	fp,sp,12
 2003e6c:	e13ffd15 	stw	r4,-12(fp)
 2003e70:	e17ffe15 	stw	r5,-8(fp)
 2003e74:	e1bfff15 	stw	r6,-4(fp)
  if( a < b )
 2003e78:	e0fffd17 	ldw	r3,-12(fp)
 2003e7c:	e0bffe17 	ldw	r2,-8(fp)
 2003e80:	1880020e 	bge	r3,r2,2003e8c <max3+0x2c>
    a = b;
 2003e84:	e0bffe17 	ldw	r2,-8(fp)
 2003e88:	e0bffd15 	stw	r2,-12(fp)
  if( a < c )
 2003e8c:	e0fffd17 	ldw	r3,-12(fp)
 2003e90:	e0bfff17 	ldw	r2,-4(fp)
 2003e94:	1880020e 	bge	r3,r2,2003ea0 <max3+0x40>
    a = c;
 2003e98:	e0bfff17 	ldw	r2,-4(fp)
 2003e9c:	e0bffd15 	stw	r2,-12(fp)
  
  return a;
 2003ea0:	e0bffd17 	ldw	r2,-12(fp)
}
 2003ea4:	e037883a 	mov	sp,fp
 2003ea8:	df000017 	ldw	fp,0(sp)
 2003eac:	dec00104 	addi	sp,sp,4
 2003eb0:	f800283a 	ret

02003eb4 <min3>:
*  Purpose:  Returns the minimum value of 3 parameters
*            Used for drawing filled shapes.
*
******************************************************************/
__inline__ int min3( int a, int b, int c )
{
 2003eb4:	defffc04 	addi	sp,sp,-16
 2003eb8:	df000315 	stw	fp,12(sp)
 2003ebc:	df000304 	addi	fp,sp,12
 2003ec0:	e13ffd15 	stw	r4,-12(fp)
 2003ec4:	e17ffe15 	stw	r5,-8(fp)
 2003ec8:	e1bfff15 	stw	r6,-4(fp)
  if( a > b )
 2003ecc:	e0bffd17 	ldw	r2,-12(fp)
 2003ed0:	e0fffe17 	ldw	r3,-8(fp)
 2003ed4:	1880020e 	bge	r3,r2,2003ee0 <min3+0x2c>
    a = b;
 2003ed8:	e0bffe17 	ldw	r2,-8(fp)
 2003edc:	e0bffd15 	stw	r2,-12(fp)
  if( a > c )
 2003ee0:	e0bffd17 	ldw	r2,-12(fp)
 2003ee4:	e0ffff17 	ldw	r3,-4(fp)
 2003ee8:	1880020e 	bge	r3,r2,2003ef4 <min3+0x40>
    a = c;
 2003eec:	e0bfff17 	ldw	r2,-4(fp)
 2003ef0:	e0bffd15 	stw	r2,-12(fp)
  
  return a;
 2003ef4:	e0bffd17 	ldw	r2,-12(fp)
}
 2003ef8:	e037883a 	mov	sp,fp
 2003efc:	df000017 	ldw	fp,0(sp)
 2003f00:	dec00104 	addi	sp,sp,4
 2003f04:	f800283a 	ret

02003f08 <max_diff3>:
*  Purpose:  Returns the positive max difference between 3 
*            parameters.  Used for drawing filled shapes
*
******************************************************************/
__inline__ int max_diff3(int a, int b, int c)
{
 2003f08:	defff904 	addi	sp,sp,-28
 2003f0c:	dfc00615 	stw	ra,24(sp)
 2003f10:	df000515 	stw	fp,20(sp)
 2003f14:	df000504 	addi	fp,sp,20
 2003f18:	e13ffd15 	stw	r4,-12(fp)
 2003f1c:	e17ffe15 	stw	r5,-8(fp)
 2003f20:	e1bfff15 	stw	r6,-4(fp)
  int max, min;
    
  max = max3( a, b, c );
 2003f24:	e13ffd17 	ldw	r4,-12(fp)
 2003f28:	e17ffe17 	ldw	r5,-8(fp)
 2003f2c:	e1bfff17 	ldw	r6,-4(fp)
 2003f30:	2003e600 	call	2003e60 <max3>
 2003f34:	e0bffb15 	stw	r2,-20(fp)
  min = min3( a, b, c );
 2003f38:	e13ffd17 	ldw	r4,-12(fp)
 2003f3c:	e17ffe17 	ldw	r5,-8(fp)
 2003f40:	e1bfff17 	ldw	r6,-4(fp)
 2003f44:	2003eb40 	call	2003eb4 <min3>
 2003f48:	e0bffc15 	stw	r2,-16(fp)
  return (max - min);
 2003f4c:	e0fffb17 	ldw	r3,-20(fp)
 2003f50:	e0bffc17 	ldw	r2,-16(fp)
 2003f54:	1885c83a 	sub	r2,r3,r2
}
 2003f58:	e037883a 	mov	sp,fp
 2003f5c:	dfc00117 	ldw	ra,4(sp)
 2003f60:	df000017 	ldw	fp,0(sp)
 2003f64:	dec00204 	addi	sp,sp,8
 2003f68:	f800283a 	ret

02003f6c <vid_put_pixel_in_span_map>:
*            min value of an element that represents a span, 
*            essentially just a horizontal line used to fill shapes.
*
******************************************************************/
inline void vid_put_pixel_in_span_map( int x, int y, int *span_array )
{
 2003f6c:	defffc04 	addi	sp,sp,-16
 2003f70:	df000315 	stw	fp,12(sp)
 2003f74:	df000304 	addi	fp,sp,12
 2003f78:	e13ffd15 	stw	r4,-12(fp)
 2003f7c:	e17ffe15 	stw	r5,-8(fp)
 2003f80:	e1bfff15 	stw	r6,-4(fp)
  if (span_array[y*2] == -1)
 2003f84:	e0bffe17 	ldw	r2,-8(fp)
 2003f88:	100490fa 	slli	r2,r2,3
 2003f8c:	1007883a 	mov	r3,r2
 2003f90:	e0bfff17 	ldw	r2,-4(fp)
 2003f94:	10c5883a 	add	r2,r2,r3
 2003f98:	10800017 	ldw	r2,0(r2)
 2003f9c:	10bfffd8 	cmpnei	r2,r2,-1
 2003fa0:	10000f1e 	bne	r2,zero,2003fe0 <vid_put_pixel_in_span_map+0x74>
  {
    span_array[y*2] = x;
 2003fa4:	e0bffe17 	ldw	r2,-8(fp)
 2003fa8:	100490fa 	slli	r2,r2,3
 2003fac:	1007883a 	mov	r3,r2
 2003fb0:	e0bfff17 	ldw	r2,-4(fp)
 2003fb4:	10c5883a 	add	r2,r2,r3
 2003fb8:	e0fffd17 	ldw	r3,-12(fp)
 2003fbc:	10c00015 	stw	r3,0(r2)
    span_array[(y*2)+1] = x;
 2003fc0:	e0bffe17 	ldw	r2,-8(fp)
 2003fc4:	100490fa 	slli	r2,r2,3
 2003fc8:	10800104 	addi	r2,r2,4
 2003fcc:	e0ffff17 	ldw	r3,-4(fp)
 2003fd0:	1885883a 	add	r2,r3,r2
 2003fd4:	e0fffd17 	ldw	r3,-12(fp)
 2003fd8:	10c00015 	stw	r3,0(r2)
 2003fdc:	00001f06 	br	200405c <vid_put_pixel_in_span_map+0xf0>
  }
  else if( span_array[y*2] > x )
 2003fe0:	e0bffe17 	ldw	r2,-8(fp)
 2003fe4:	100490fa 	slli	r2,r2,3
 2003fe8:	1007883a 	mov	r3,r2
 2003fec:	e0bfff17 	ldw	r2,-4(fp)
 2003ff0:	10c5883a 	add	r2,r2,r3
 2003ff4:	10800017 	ldw	r2,0(r2)
 2003ff8:	e0fffd17 	ldw	r3,-12(fp)
 2003ffc:	1880080e 	bge	r3,r2,2004020 <vid_put_pixel_in_span_map+0xb4>
    span_array[y*2] = x;
 2004000:	e0bffe17 	ldw	r2,-8(fp)
 2004004:	100490fa 	slli	r2,r2,3
 2004008:	1007883a 	mov	r3,r2
 200400c:	e0bfff17 	ldw	r2,-4(fp)
 2004010:	10c5883a 	add	r2,r2,r3
 2004014:	e0fffd17 	ldw	r3,-12(fp)
 2004018:	10c00015 	stw	r3,0(r2)
 200401c:	00000f06 	br	200405c <vid_put_pixel_in_span_map+0xf0>
  else if( span_array[(y*2)+1] < x )
 2004020:	e0bffe17 	ldw	r2,-8(fp)
 2004024:	100490fa 	slli	r2,r2,3
 2004028:	10800104 	addi	r2,r2,4
 200402c:	e0ffff17 	ldw	r3,-4(fp)
 2004030:	1885883a 	add	r2,r3,r2
 2004034:	10c00017 	ldw	r3,0(r2)
 2004038:	e0bffd17 	ldw	r2,-12(fp)
 200403c:	1880070e 	bge	r3,r2,200405c <vid_put_pixel_in_span_map+0xf0>
    span_array[(y*2)+1] = x;
 2004040:	e0bffe17 	ldw	r2,-8(fp)
 2004044:	100490fa 	slli	r2,r2,3
 2004048:	10800104 	addi	r2,r2,4
 200404c:	e0ffff17 	ldw	r3,-4(fp)
 2004050:	1885883a 	add	r2,r3,r2
 2004054:	e0fffd17 	ldw	r3,-12(fp)
 2004058:	10c00015 	stw	r3,0(r2)
}
 200405c:	e037883a 	mov	sp,fp
 2004060:	df000017 	ldw	fp,0(sp)
 2004064:	dec00104 	addi	sp,sp,4
 2004068:	f800283a 	ret

0200406c <vid_bres_scan_edges>:
*            filled shapes where you fill by drawing successive
*            horizontal lines.
*
******************************************************************/
void vid_bres_scan_edges( int x1, int y1, int x2, int y2, int *span_array) 
{
 200406c:	deffee04 	addi	sp,sp,-72
 2004070:	dfc01115 	stw	ra,68(sp)
 2004074:	df001015 	stw	fp,64(sp)
 2004078:	df001004 	addi	fp,sp,64
 200407c:	e13ffc15 	stw	r4,-16(fp)
 2004080:	e17ffd15 	stw	r5,-12(fp)
 2004084:	e1bffe15 	stw	r6,-8(fp)
 2004088:	e1ffff15 	stw	r7,-4(fp)

  int x_incr, y_incr;
  int y_delta, x_delta;

  // Assure we always draw left to right
  if( x1 > x2 )
 200408c:	e0bffc17 	ldw	r2,-16(fp)
 2004090:	e0fffe17 	ldw	r3,-8(fp)
 2004094:	18800c0e 	bge	r3,r2,20040c8 <vid_bres_scan_edges+0x5c>
  {
    int tempx = x2;
 2004098:	e0bffe17 	ldw	r2,-8(fp)
 200409c:	e0bff515 	stw	r2,-44(fp)
    x2 = x1;
 20040a0:	e0bffc17 	ldw	r2,-16(fp)
 20040a4:	e0bffe15 	stw	r2,-8(fp)
    x1 = tempx;
 20040a8:	e0bff517 	ldw	r2,-44(fp)
 20040ac:	e0bffc15 	stw	r2,-16(fp)
    int tempy = y2;
 20040b0:	e0bfff17 	ldw	r2,-4(fp)
 20040b4:	e0bff615 	stw	r2,-40(fp)
    y2 = y1;
 20040b8:	e0bffd17 	ldw	r2,-12(fp)
 20040bc:	e0bfff15 	stw	r2,-4(fp)
    y1 = tempy;
 20040c0:	e0bff617 	ldw	r2,-40(fp)
 20040c4:	e0bffd15 	stw	r2,-12(fp)
  }
  
  // Find the vertical and horizontal distance between the two points
  y_delta = abs(y1-y2);
 20040c8:	e0fffd17 	ldw	r3,-12(fp)
 20040cc:	e0bfff17 	ldw	r2,-4(fp)
 20040d0:	1885c83a 	sub	r2,r3,r2
 20040d4:	1000010e 	bge	r2,zero,20040dc <vid_bres_scan_edges+0x70>
 20040d8:	0085c83a 	sub	r2,zero,r2
 20040dc:	e0bff115 	stw	r2,-60(fp)
  x_delta = (x2-x1);
 20040e0:	e0fffe17 	ldw	r3,-8(fp)
 20040e4:	e0bffc17 	ldw	r2,-16(fp)
 20040e8:	1885c83a 	sub	r2,r3,r2
 20040ec:	e0bff215 	stw	r2,-56(fp)

  // Find out what direction we are going
  if (y1 > y2) { y_incr=-1; } else { y_incr=1; }
 20040f0:	e0bffd17 	ldw	r2,-12(fp)
 20040f4:	e0ffff17 	ldw	r3,-4(fp)
 20040f8:	1880030e 	bge	r3,r2,2004108 <vid_bres_scan_edges+0x9c>
 20040fc:	00bfffc4 	movi	r2,-1
 2004100:	e0bff015 	stw	r2,-64(fp)
 2004104:	00000206 	br	2004110 <vid_bres_scan_edges+0xa4>
 2004108:	00800044 	movi	r2,1
 200410c:	e0bff015 	stw	r2,-64(fp)
  x_incr=1;
 2004110:	00800044 	movi	r2,1
 2004114:	e0bff715 	stw	r2,-36(fp)

  // Find out which axis is always incremented when drawing the line
  // If it's the horizontal axis
  if (x_delta >= y_delta) {
 2004118:	e0fff217 	ldw	r3,-56(fp)
 200411c:	e0bff117 	ldw	r2,-60(fp)
 2004120:	18802f16 	blt	r3,r2,20041e0 <vid_bres_scan_edges+0x174>
    int dPr   = y_delta<<1;
 2004124:	e0bff117 	ldw	r2,-60(fp)
 2004128:	1085883a 	add	r2,r2,r2
 200412c:	e0bff815 	stw	r2,-32(fp)
    int dPru  = dPr - (x_delta<<1);
 2004130:	e0bff217 	ldw	r2,-56(fp)
 2004134:	1085883a 	add	r2,r2,r2
 2004138:	1007883a 	mov	r3,r2
 200413c:	e0bff817 	ldw	r2,-32(fp)
 2004140:	10c5c83a 	sub	r2,r2,r3
 2004144:	e0bff915 	stw	r2,-28(fp)
    int P     = dPr - x_delta;
 2004148:	e0fff817 	ldw	r3,-32(fp)
 200414c:	e0bff217 	ldw	r2,-56(fp)
 2004150:	1885c83a 	sub	r2,r3,r2
 2004154:	e0bff315 	stw	r2,-52(fp)

    // Process the line, one horizontal point at at time
    for (; x_delta >= 0; x_delta--) {
 2004158:	00001e06 	br	20041d4 <vid_bres_scan_edges+0x168>
      // map the pixel
      vid_put_pixel_in_span_map(x1, y1, span_array);
 200415c:	e13ffc17 	ldw	r4,-16(fp)
 2004160:	e17ffd17 	ldw	r5,-12(fp)
 2004164:	e1800217 	ldw	r6,8(fp)
 2004168:	2003f6c0 	call	2003f6c <vid_put_pixel_in_span_map>
      // If we're moving along both axis
      if (P > 0) {
 200416c:	e0bff317 	ldw	r2,-52(fp)
 2004170:	00800d0e 	bge	zero,r2,20041a8 <vid_bres_scan_edges+0x13c>
        x1+=x_incr;
 2004174:	e0fffc17 	ldw	r3,-16(fp)
 2004178:	e0bff717 	ldw	r2,-36(fp)
 200417c:	1885883a 	add	r2,r3,r2
 2004180:	e0bffc15 	stw	r2,-16(fp)
        y1+=y_incr;
 2004184:	e0fffd17 	ldw	r3,-12(fp)
 2004188:	e0bff017 	ldw	r2,-64(fp)
 200418c:	1885883a 	add	r2,r3,r2
 2004190:	e0bffd15 	stw	r2,-12(fp)
        P+=dPru;
 2004194:	e0fff317 	ldw	r3,-52(fp)
 2004198:	e0bff917 	ldw	r2,-28(fp)
 200419c:	1885883a 	add	r2,r3,r2
 20041a0:	e0bff315 	stw	r2,-52(fp)
 20041a4:	00000806 	br	20041c8 <vid_bres_scan_edges+0x15c>
      } else {
        x1+=x_incr;
 20041a8:	e0fffc17 	ldw	r3,-16(fp)
 20041ac:	e0bff717 	ldw	r2,-36(fp)
 20041b0:	1885883a 	add	r2,r3,r2
 20041b4:	e0bffc15 	stw	r2,-16(fp)
        P+=dPr;
 20041b8:	e0fff317 	ldw	r3,-52(fp)
 20041bc:	e0bff817 	ldw	r2,-32(fp)
 20041c0:	1885883a 	add	r2,r3,r2
 20041c4:	e0bff315 	stw	r2,-52(fp)
    int dPr   = y_delta<<1;
    int dPru  = dPr - (x_delta<<1);
    int P     = dPr - x_delta;

    // Process the line, one horizontal point at at time
    for (; x_delta >= 0; x_delta--) {
 20041c8:	e0bff217 	ldw	r2,-56(fp)
 20041cc:	10bfffc4 	addi	r2,r2,-1
 20041d0:	e0bff215 	stw	r2,-56(fp)
 20041d4:	e0bff217 	ldw	r2,-56(fp)
 20041d8:	103fe00e 	bge	r2,zero,200415c <__alt_mem_pic_mem+0xfe00015c>
 20041dc:	00002e06 	br	2004298 <vid_bres_scan_edges+0x22c>
      }
    }
  }
  else // If it's the vertical axis
  {
    int dPr   = x_delta<<1;
 20041e0:	e0bff217 	ldw	r2,-56(fp)
 20041e4:	1085883a 	add	r2,r2,r2
 20041e8:	e0bffa15 	stw	r2,-24(fp)
    int dPru  = dPr - (y_delta<<1);
 20041ec:	e0bff117 	ldw	r2,-60(fp)
 20041f0:	1085883a 	add	r2,r2,r2
 20041f4:	1007883a 	mov	r3,r2
 20041f8:	e0bffa17 	ldw	r2,-24(fp)
 20041fc:	10c5c83a 	sub	r2,r2,r3
 2004200:	e0bffb15 	stw	r2,-20(fp)
    int P     = dPr - y_delta;
 2004204:	e0fffa17 	ldw	r3,-24(fp)
 2004208:	e0bff117 	ldw	r2,-60(fp)
 200420c:	1885c83a 	sub	r2,r3,r2
 2004210:	e0bff415 	stw	r2,-48(fp)

    // Process the line, one vertical point at at time
    for (; y_delta>=0; y_delta--) {
 2004214:	00001e06 	br	2004290 <vid_bres_scan_edges+0x224>
      // plot the pixel
      vid_put_pixel_in_span_map(x1, y1, span_array);
 2004218:	e13ffc17 	ldw	r4,-16(fp)
 200421c:	e17ffd17 	ldw	r5,-12(fp)
 2004220:	e1800217 	ldw	r6,8(fp)
 2004224:	2003f6c0 	call	2003f6c <vid_put_pixel_in_span_map>
      // If we're moving along both axis
      if (P > 0) {
 2004228:	e0bff417 	ldw	r2,-48(fp)
 200422c:	00800d0e 	bge	zero,r2,2004264 <vid_bres_scan_edges+0x1f8>
        x1+=x_incr;
 2004230:	e0fffc17 	ldw	r3,-16(fp)
 2004234:	e0bff717 	ldw	r2,-36(fp)
 2004238:	1885883a 	add	r2,r3,r2
 200423c:	e0bffc15 	stw	r2,-16(fp)
        y1+=y_incr;
 2004240:	e0fffd17 	ldw	r3,-12(fp)
 2004244:	e0bff017 	ldw	r2,-64(fp)
 2004248:	1885883a 	add	r2,r3,r2
 200424c:	e0bffd15 	stw	r2,-12(fp)
        P+=dPru;
 2004250:	e0fff417 	ldw	r3,-48(fp)
 2004254:	e0bffb17 	ldw	r2,-20(fp)
 2004258:	1885883a 	add	r2,r3,r2
 200425c:	e0bff415 	stw	r2,-48(fp)
 2004260:	00000806 	br	2004284 <vid_bres_scan_edges+0x218>
      } else {
        y1+=y_incr;
 2004264:	e0fffd17 	ldw	r3,-12(fp)
 2004268:	e0bff017 	ldw	r2,-64(fp)
 200426c:	1885883a 	add	r2,r3,r2
 2004270:	e0bffd15 	stw	r2,-12(fp)
        P+=dPr;
 2004274:	e0fff417 	ldw	r3,-48(fp)
 2004278:	e0bffa17 	ldw	r2,-24(fp)
 200427c:	1885883a 	add	r2,r3,r2
 2004280:	e0bff415 	stw	r2,-48(fp)
    int dPr   = x_delta<<1;
    int dPru  = dPr - (y_delta<<1);
    int P     = dPr - y_delta;

    // Process the line, one vertical point at at time
    for (; y_delta>=0; y_delta--) {
 2004284:	e0bff117 	ldw	r2,-60(fp)
 2004288:	10bfffc4 	addi	r2,r2,-1
 200428c:	e0bff115 	stw	r2,-60(fp)
 2004290:	e0bff117 	ldw	r2,-60(fp)
 2004294:	103fe00e 	bge	r2,zero,2004218 <__alt_mem_pic_mem+0xfe000218>
        y1+=y_incr;
        P+=dPr;
      }
    }
  }
}
 2004298:	e037883a 	mov	sp,fp
 200429c:	dfc00117 	ldw	ra,4(sp)
 20042a0:	df000017 	ldw	fp,0(sp)
 20042a4:	dec00204 	addi	sp,sp,8
 20042a8:	f800283a 	ret

020042ac <vid_draw_triangle>:
*  Purpose:  This function draws a triangle on the screen between
*            three points defined by the structure tri.
*
******************************************************************/
void vid_draw_triangle(triangle_struct* tri, alt_video_display* display)
{
 20042ac:	defff804 	addi	sp,sp,-32
 20042b0:	dfc00715 	stw	ra,28(sp)
 20042b4:	df000615 	stw	fp,24(sp)
 20042b8:	df000604 	addi	fp,sp,24
 20042bc:	e13ffe15 	stw	r4,-8(fp)
 20042c0:	e17fff15 	stw	r5,-4(fp)
  int i;
  
  // Outline it first
    vid_draw_line( tri->vertex_x[0], tri->vertex_y[0], 
 20042c4:	e0bffe17 	ldw	r2,-8(fp)
 20042c8:	11000017 	ldw	r4,0(r2)
 20042cc:	e0bffe17 	ldw	r2,-8(fp)
 20042d0:	11400317 	ldw	r5,12(r2)
 20042d4:	e0bffe17 	ldw	r2,-8(fp)
 20042d8:	11800117 	ldw	r6,4(r2)
 20042dc:	e0bffe17 	ldw	r2,-8(fp)
 20042e0:	11c00417 	ldw	r7,16(r2)
 20042e4:	e0bffe17 	ldw	r2,-8(fp)
 20042e8:	10800a17 	ldw	r2,40(r2)
 20042ec:	00c00044 	movi	r3,1
 20042f0:	d8c00015 	stw	r3,0(sp)
 20042f4:	d8800115 	stw	r2,4(sp)
 20042f8:	e0bfff17 	ldw	r2,-4(fp)
 20042fc:	d8800215 	stw	r2,8(sp)
 2004300:	20022400 	call	2002240 <vid_draw_line>
                   tri->vertex_x[1], tri->vertex_y[1], 1, 
                   tri->col, display);
    vid_draw_line( tri->vertex_x[1], tri->vertex_y[1], 
 2004304:	e0bffe17 	ldw	r2,-8(fp)
 2004308:	11000117 	ldw	r4,4(r2)
 200430c:	e0bffe17 	ldw	r2,-8(fp)
 2004310:	11400417 	ldw	r5,16(r2)
 2004314:	e0bffe17 	ldw	r2,-8(fp)
 2004318:	11800217 	ldw	r6,8(r2)
 200431c:	e0bffe17 	ldw	r2,-8(fp)
 2004320:	11c00517 	ldw	r7,20(r2)
 2004324:	e0bffe17 	ldw	r2,-8(fp)
 2004328:	10800a17 	ldw	r2,40(r2)
 200432c:	00c00044 	movi	r3,1
 2004330:	d8c00015 	stw	r3,0(sp)
 2004334:	d8800115 	stw	r2,4(sp)
 2004338:	e0bfff17 	ldw	r2,-4(fp)
 200433c:	d8800215 	stw	r2,8(sp)
 2004340:	20022400 	call	2002240 <vid_draw_line>
                   tri->vertex_x[2], tri->vertex_y[2], 1, 
                   tri->col, display);
    vid_draw_line( tri->vertex_x[2], tri->vertex_y[2], 
 2004344:	e0bffe17 	ldw	r2,-8(fp)
 2004348:	11000217 	ldw	r4,8(r2)
 200434c:	e0bffe17 	ldw	r2,-8(fp)
 2004350:	11400517 	ldw	r5,20(r2)
 2004354:	e0bffe17 	ldw	r2,-8(fp)
 2004358:	11800017 	ldw	r6,0(r2)
 200435c:	e0bffe17 	ldw	r2,-8(fp)
 2004360:	11c00317 	ldw	r7,12(r2)
 2004364:	e0bffe17 	ldw	r2,-8(fp)
 2004368:	10800a17 	ldw	r2,40(r2)
 200436c:	00c00044 	movi	r3,1
 2004370:	d8c00015 	stw	r3,0(sp)
 2004374:	d8800115 	stw	r2,4(sp)
 2004378:	e0bfff17 	ldw	r2,-4(fp)
 200437c:	d8800215 	stw	r2,8(sp)
 2004380:	20022400 	call	2002240 <vid_draw_line>
                   tri->vertex_x[0], tri->vertex_y[0], 1, 
                   tri->col, display);
//  vid_draw_line(tri->bx, tri->by, tri->cx, tri->cy, 1, tri->col, display);
//  vid_draw_line(tri->cx, tri->cy, tri->ax, tri->ay, 1, tri->col, display);
  
  if(tri->fill == DO_FILL)
 2004384:	e0bffe17 	ldw	r2,-8(fp)
 2004388:	10800b17 	ldw	r2,44(r2)
 200438c:	10800058 	cmpnei	r2,r2,1
 2004390:	10009f1e 	bne	r2,zero,2004610 <vid_draw_triangle+0x364>
  {
    tri->top_y = min3(tri->vertex_y[0], tri->vertex_y[1], tri->vertex_y[2]);
 2004394:	e0bffe17 	ldw	r2,-8(fp)
 2004398:	11000317 	ldw	r4,12(r2)
 200439c:	e0bffe17 	ldw	r2,-8(fp)
 20043a0:	10c00417 	ldw	r3,16(r2)
 20043a4:	e0bffe17 	ldw	r2,-8(fp)
 20043a8:	10800517 	ldw	r2,20(r2)
 20043ac:	180b883a 	mov	r5,r3
 20043b0:	100d883a 	mov	r6,r2
 20043b4:	2003eb40 	call	2003eb4 <min3>
 20043b8:	1007883a 	mov	r3,r2
 20043bc:	e0bffe17 	ldw	r2,-8(fp)
 20043c0:	10c00815 	stw	r3,32(r2)
    tri->bottom_y = max3(tri->vertex_y[0], tri->vertex_y[1], tri->vertex_y[2]);
 20043c4:	e0bffe17 	ldw	r2,-8(fp)
 20043c8:	11000317 	ldw	r4,12(r2)
 20043cc:	e0bffe17 	ldw	r2,-8(fp)
 20043d0:	10c00417 	ldw	r3,16(r2)
 20043d4:	e0bffe17 	ldw	r2,-8(fp)
 20043d8:	10800517 	ldw	r2,20(r2)
 20043dc:	180b883a 	mov	r5,r3
 20043e0:	100d883a 	mov	r6,r2
 20043e4:	2003e600 	call	2003e60 <max3>
 20043e8:	1007883a 	mov	r3,r2
 20043ec:	e0bffe17 	ldw	r2,-8(fp)
 20043f0:	10c00915 	stw	r3,36(r2)
    tri->spans_needed = max_diff3(tri->vertex_y[0], tri->vertex_y[1], tri->vertex_y[2]);
 20043f4:	e0bffe17 	ldw	r2,-8(fp)
 20043f8:	11000317 	ldw	r4,12(r2)
 20043fc:	e0bffe17 	ldw	r2,-8(fp)
 2004400:	10c00417 	ldw	r3,16(r2)
 2004404:	e0bffe17 	ldw	r2,-8(fp)
 2004408:	10800517 	ldw	r2,20(r2)
 200440c:	180b883a 	mov	r5,r3
 2004410:	100d883a 	mov	r6,r2
 2004414:	2003f080 	call	2003f08 <max_diff3>
 2004418:	1007883a 	mov	r3,r2
 200441c:	e0bffe17 	ldw	r2,-8(fp)
 2004420:	10c00615 	stw	r3,24(r2)
    tri->max_span = max_diff3(tri->vertex_x[0], tri->vertex_x[1], tri->vertex_x[2]);
 2004424:	e0bffe17 	ldw	r2,-8(fp)
 2004428:	11000017 	ldw	r4,0(r2)
 200442c:	e0bffe17 	ldw	r2,-8(fp)
 2004430:	10c00117 	ldw	r3,4(r2)
 2004434:	e0bffe17 	ldw	r2,-8(fp)
 2004438:	10800217 	ldw	r2,8(r2)
 200443c:	180b883a 	mov	r5,r3
 2004440:	100d883a 	mov	r6,r2
 2004444:	2003f080 	call	2003f08 <max_diff3>
 2004448:	1007883a 	mov	r3,r2
 200444c:	e0bffe17 	ldw	r2,-8(fp)
 2004450:	10c00715 	stw	r3,28(r2)
    tri->span_array = malloc(display->height * 4 * 2);
 2004454:	e0bfff17 	ldw	r2,-4(fp)
 2004458:	10800217 	ldw	r2,8(r2)
 200445c:	100490fa 	slli	r2,r2,3
 2004460:	1009883a 	mov	r4,r2
 2004464:	20087140 	call	2008714 <malloc>
 2004468:	1007883a 	mov	r3,r2
 200446c:	e0bffe17 	ldw	r2,-8(fp)
 2004470:	10c00d15 	stw	r3,52(r2)

    //init the span array
    for( i = tri->top_y; i <= tri->bottom_y; i++)
 2004474:	e0bffe17 	ldw	r2,-8(fp)
 2004478:	10800817 	ldw	r2,32(r2)
 200447c:	e0bffd15 	stw	r2,-12(fp)
 2004480:	00001206 	br	20044cc <vid_draw_triangle+0x220>
    {
      tri->span_array[i*2] = -1;
 2004484:	e0bffe17 	ldw	r2,-8(fp)
 2004488:	10800d17 	ldw	r2,52(r2)
 200448c:	e0fffd17 	ldw	r3,-12(fp)
 2004490:	180690fa 	slli	r3,r3,3
 2004494:	10c5883a 	add	r2,r2,r3
 2004498:	00ffffc4 	movi	r3,-1
 200449c:	10c00015 	stw	r3,0(r2)
      tri->span_array[(i*2) + 1] = -1;
 20044a0:	e0bffe17 	ldw	r2,-8(fp)
 20044a4:	10c00d17 	ldw	r3,52(r2)
 20044a8:	e0bffd17 	ldw	r2,-12(fp)
 20044ac:	100490fa 	slli	r2,r2,3
 20044b0:	10800104 	addi	r2,r2,4
 20044b4:	1885883a 	add	r2,r3,r2
 20044b8:	00ffffc4 	movi	r3,-1
 20044bc:	10c00015 	stw	r3,0(r2)
    tri->spans_needed = max_diff3(tri->vertex_y[0], tri->vertex_y[1], tri->vertex_y[2]);
    tri->max_span = max_diff3(tri->vertex_x[0], tri->vertex_x[1], tri->vertex_x[2]);
    tri->span_array = malloc(display->height * 4 * 2);

    //init the span array
    for( i = tri->top_y; i <= tri->bottom_y; i++)
 20044c0:	e0bffd17 	ldw	r2,-12(fp)
 20044c4:	10800044 	addi	r2,r2,1
 20044c8:	e0bffd15 	stw	r2,-12(fp)
 20044cc:	e0bffe17 	ldw	r2,-8(fp)
 20044d0:	10c00917 	ldw	r3,36(r2)
 20044d4:	e0bffd17 	ldw	r2,-12(fp)
 20044d8:	18bfea0e 	bge	r3,r2,2004484 <__alt_mem_pic_mem+0xfe000484>
      tri->span_array[i*2] = -1;
      tri->span_array[(i*2) + 1] = -1;
    }
    
    // Scan-convert the triangle  
    vid_bres_scan_edges( tri->vertex_x[0], tri->vertex_y[0], 
 20044dc:	e0bffe17 	ldw	r2,-8(fp)
 20044e0:	11000017 	ldw	r4,0(r2)
 20044e4:	e0bffe17 	ldw	r2,-8(fp)
 20044e8:	11400317 	ldw	r5,12(r2)
 20044ec:	e0bffe17 	ldw	r2,-8(fp)
 20044f0:	11800117 	ldw	r6,4(r2)
 20044f4:	e0bffe17 	ldw	r2,-8(fp)
 20044f8:	10c00417 	ldw	r3,16(r2)
 20044fc:	e0bffe17 	ldw	r2,-8(fp)
